 PowerVoice

 Timestamp is 4ba3aadc (Sat Mar 20 00:48:28 2010)

 Preferred load address is 00400000

 Start         Length     Name                   Class
 0001:00000000 00089b94H .text                   CODE
 0001:00089ba0 00000018H .text$AFX_COL1          CODE
 0001:00089bc0 0000606aH .text$x                 CODE
 0001:0008fc30 000006e6H .text$yc                CODE
 0001:00090320 0000028fH .text$yd                CODE
 0002:00000000 000010c4H .idata$5                DATA
 0002:000010d0 00032618H .rdata                  DATA
 0002:000336e8 0000006aH .rdata$debug            DATA
 0002:00033754 00000088H .rdata$r                DATA
 0002:000337e0 0000069cH .rdata$sxdata           DATA
 0002:00033e7c 00000004H .rtc$IAA                DATA
 0002:00033e80 00000004H .rtc$IMZ                DATA
 0002:00033e84 00000004H .rtc$IZZ                DATA
 0002:00033e88 00000004H .rtc$TAA                DATA
 0002:00033e8c 00000004H .rtc$TMZ                DATA
 0002:00033e90 00000004H .rtc$TZZ                DATA
 0002:00033e94 00007bdcH .xdata$x                DATA
 0002:0003ba70 00000000H ATL$__a                 DATA
 0002:0003ba70 00000000H ATL$__z                 DATA
 0002:0003ba70 0000012cH .idata$2                DATA
 0002:0003bb9c 00000014H .idata$3                DATA
 0002:0003bbb0 000010c4H .idata$4                DATA
 0002:0003cc74 00001448H .idata$6                DATA
 0002:0003e0bc 00000000H .edata                  DATA
 0003:00000000 00000004H .CRT$XCA                DATA
 0003:00000004 00000004H .CRT$XCAA               DATA
 0003:00000008 0000000cH .CRT$XCC                DATA
 0003:00000014 00000074H .CRT$XCL                DATA
 0003:00000088 0000003cH .CRT$XCU                DATA
 0003:000000c4 00000004H .CRT$XCZ                DATA
 0003:000000c8 00000004H .CRT$XIA                DATA
 0003:000000cc 00000004H .CRT$XIZ                DATA
 0003:000000d0 00000910H .data                   DATA
 0003:000009e0 00003aa4H .bss                    DATA
 0004:00000000 00001a98H .rsrc$01                DATA
 0004:00001aa0 000692e0H .rsrc$02                DATA

  Address         Publics by Value              Rva+Base     Lib:Object

 0000:00000000       __except_list              00000000     <absolute>
 0000:000001a7       ___safe_se_handler_count   000001a7     <absolute>
 0000:00009876       __fltused                  00009876     <absolute>
 0000:00009876       __ldused                   00009876     <absolute>
 0000:00000000       ___ImageBase               00400000     <linker-defined>
 0001:00000000       ??0SIVR_Group@@QAE@XZ      00401000 f i _Global.obj
 0001:00000040       ??1SIVR_Group@@QAE@XZ      00401040 f i _Global.obj
 0001:00000080       ??1_bstr_t@@QAE@XZ         00401080 f i _Global.obj
 0001:000000b0       ?_Free@_bstr_t@@AAEXXZ     004010b0 f i _Global.obj
 0001:000000f0       ?Release@Data_t@_bstr_t@@QAEKXZ 004010f0 f i _Global.obj
 0001:00000170       ??_GData_t@_bstr_t@@AAEPAXI@Z 00401170 f i _Global.obj
 0001:000001b0       ??1Data_t@_bstr_t@@AAE@XZ  004011b0 f i _Global.obj
 0001:000001e0       ?_Free@Data_t@_bstr_t@@AAEXXZ 004011e0 f i _Global.obj
 0001:00000250       ?_AtlGetThreadACPThunk@ATL@@YGIXZ 00401250 f i BrowsePath.obj
 0001:00000330       ?InterlockedExchangePointer@@YGPAXPAPAXPAX@Z 00401330 f i BrowsePath.obj
 0001:00000360       ?_AtlGetThreadACPFake@ATL@@YGIXZ 00401360 f i BrowsePath.obj
 0001:00000460       ?_AtlGetThreadACPReal@ATL@@YGIXZ 00401460 f i BrowsePath.obj
 0001:00000470       ??0CBrowsePath@@QAE@PAVCWnd@@H@Z 00401470 f   BrowsePath.obj
 0001:000005b0       ?DoDataExchange@CBrowsePath@@MAEXPAVCDataExchange@@@Z 004015b0 f   BrowsePath.obj
 0001:00000620       ?GetThisMessageMap@CBrowsePath@@KGPBUAFX_MSGMAP@@XZ 00401620 f   BrowsePath.obj
 0001:00000630       ?GetMessageMap@CBrowsePath@@MBEPBUAFX_MSGMAP@@XZ 00401630 f   BrowsePath.obj
 0001:00000650       ?OnOK@CBrowsePath@@MAEXXZ  00401650 f   BrowsePath.obj
 0001:00000810       ?OnInitDialog@CBrowsePath@@MAEHXZ 00401810 f   BrowsePath.obj
 0001:000010c0       ?InitDriverList@CBrowsePath@@AAEHXZ 004020c0 f   BrowsePath.obj
 0001:000011c0       ?OnSelchangeCmbDrivers@CBrowsePath@@IAEXXZ 004021c0 f   BrowsePath.obj
 0001:00001350       ?InsertNewFileItem@CBrowsePath@@AAEHHV?$CStringT@DV?$StrTraitMFC_DLL@DV?$ChTraitsCRT@D@ATL@@@@@ATL@@KAAVCTime@3@@Z 00402350 f   BrowsePath.obj
 0001:00001560       ?OnSelchangedTreDir@CBrowsePath@@IAEXPAUtagNMHDR@@PAJ@Z 00402560 f   BrowsePath.obj
 0001:000017e0       ?FindListCtrlItem@CBrowsePath@@AAEHPAVCListCtrl@@V?$CStringT@DV?$StrTraitMFC_DLL@DV?$ChTraitsCRT@D@ATL@@@@@ATL@@PAH@Z 004027e0 f   BrowsePath.obj
 0001:00001920       ?OnDblclkLstFileview@CBrowsePath@@IAEXPAUtagNMHDR@@PAJ@Z 00402920 f   BrowsePath.obj
 0001:00001970       ??_GCBrowsePath@@UAEPAXI@Z 00402970 f i BrowsePath.obj
 0001:00001970       ??_ECBrowsePath@@UAEPAXI@Z 00402970 f i BrowsePath.obj
 0001:000019b0       ??1CBrowsePath@@UAE@XZ     004029b0 f i BrowsePath.obj
 0001:00001a80       ??HATL@@YA?AV?$CStringT@DV?$StrTraitMFC_DLL@DV?$ChTraitsCRT@D@ATL@@@@@0@ABV10@0@Z 00402a80 f i BrowsePath.obj
 0001:00001bd0       ??8ATL@@YA_NABV?$CStringT@DV?$StrTraitMFC_DLL@DV?$ChTraitsCRT@D@ATL@@@@@0@PBD@Z 00402bd0 f i BrowsePath.obj
 0001:00001c00       ??A?$CArray@VCTime@ATL@@AAV12@@@QAEAAVCTime@ATL@@H@Z 00402c00 f i BrowsePath.obj
 0001:00001c30       ?ElementAt@?$CArray@VCTime@ATL@@AAV12@@@QAEAAVCTime@ATL@@H@Z 00402c30 f i BrowsePath.obj
 0001:00001ca0       ?Format@CTime@ATL@@QBE?AV?$CStringT@DV?$StrTraitMFC_DLL@DV?$ChTraitsCRT@D@ATL@@@@@2@PBD@Z 00402ca0 f i BrowsePath.obj
 0001:00001de0       ??0Cchannelcontrol@@QAE@XZ 00402de0 f   channelcontrol.obj
 0001:00001f10       ??1Cchannelcontrol@@UAE@XZ 00402f10 f   channelcontrol.obj
 0001:00001fa0       ?CreateChObj@Cchannelcontrol@@QAEXH@Z 00402fa0 f   channelcontrol.obj
 0001:00001fc0       ?ivr_channel_open@Cchannelcontrol@@QAEHPAD0@Z 00402fc0 f   channelcontrol.obj
 0001:00002070       ?ivr_channel_stop_play@Cchannelcontrol@@QAEHXZ 00403070 f   channelcontrol.obj
 0001:00002140       ?ivr_channel_stop@Cchannelcontrol@@QAEHXZ 00403140 f   channelcontrol.obj
 0001:000021a0       ?ivr_channel_close@Cchannelcontrol@@QAEHXZ 004031a0 f   channelcontrol.obj
 0001:000021f0       ?ivr_channel_waitring@Cchannelcontrol@@QAEHXZ 004031f0 f   channelcontrol.obj
 0001:00002210       ?ivr_channel_hook@Cchannelcontrol@@QAEHHJ@Z 00403210 f   channelcontrol.obj
 0001:000022e0       ?ivr_channel_terminate@Cchannelcontrol@@QAEHXZ 004032e0 f   channelcontrol.obj
 0001:00002390       ?getdigmask@Cchannelcontrol@@AAEHQAD@Z 00403390 f   channelcontrol.obj
 0001:00002420       ?ivr_channel_sendDTMF@Cchannelcontrol@@QAEHPBD@Z 00403420 f   channelcontrol.obj
 0001:000025c0       ?ivr_channel_dailout@Cchannelcontrol@@QAEHPBDH_NPAJ@Z 004035c0 f   channelcontrol.obj
 0001:00002600       ?ivr_channel_divert@Cchannelcontrol@@QAEHPBDJ@Z 00403600 f   channelcontrol.obj
 0001:000027f0       ?ResetAllSyncEvents@Cchannelcontrol@@QAEXXZ 004037f0 f   channelcontrol.obj
 0001:00002850       ?GetTerminateCode@Cchannelcontrol@@QAEKH@Z 00403850 f   channelcontrol.obj
 0001:000028c0       ?SetTerminateCode@Cchannelcontrol@@QAEXHKPBDPAUIPCSParam@@@Z 004038c0 f   channelcontrol.obj
 0001:00002b40       ?ConsultConference@Cchannelcontrol@@QAEHPBDH@Z 00403b40 f   channelcontrol.obj
 0001:00002d20       ?CompleteTransfer@Cchannelcontrol@@QAEHH@Z 00403d20 f   channelcontrol.obj
 0001:00002ee0       ?StopConsultaion@Cchannelcontrol@@QAEHXZ 00403ee0 f   channelcontrol.obj
 0001:00003090       ?ivr_channel_gettermmsk@Cchannelcontrol@@QAEHH@Z 00404090 f   channelcontrol.obj
 0001:00003110       ?ivr_channel_play@Cchannelcontrol@@QAEHPBDPAD_NH@Z 00404110 f   channelcontrol.obj
 0001:00003660       ?ivr_channel_playbuffer@Cchannelcontrol@@QAEHPBEHPAD_N@Z 00404660 f   channelcontrol.obj
 0001:000036b0       ?ivr_channel_async_play@Cchannelcontrol@@QAEHPBDPAD_N2@Z 004046b0 f   channelcontrol.obj
 0001:000039b0       ?ivr_channel_playrecord@Cchannelcontrol@@QAEHPBD@Z 004049b0 f   channelcontrol.obj
 0001:00003cd0       ?ivr_channel_getdigit@Cchannelcontrol@@QAEHPBDHPADHH1_N@Z 00404cd0 f   channelcontrol.obj
 0001:00004190       ?ivr_channel_record@Cchannelcontrol@@QAEHPBDHHH_NHPAD@Z 00405190 f   channelcontrol.obj
 0001:00004590       ?ivr_asr_recording@Cchannelcontrol@@QAEHPAVCASRInterface@@PBD_NHH@Z 00405590 f   channelcontrol.obj
 0001:000045b0       ?ivr_channel_numberplay@Cchannelcontrol@@QAEHPBDHE@Z 004055b0 f   channelcontrol.obj
 0001:000047f0       ?ivr_channel_clear@Cchannelcontrol@@QAEXXZ 004057f0 f   channelcontrol.obj
 0001:00004810       ?fax_channel_filefind@Cchannelcontrol@@QAEHPBD@Z 00405810 f   channelcontrol.obj
 0001:00004940       ?fax_channel_tolower_string@Cchannelcontrol@@QAEXPAD@Z 00405940 f   channelcontrol.obj
 0001:000049f0       ?fax_channel_fileopen@Cchannelcontrol@@QAEHPBD@Z 004059f0 f   channelcontrol.obj
 0001:00004a10       ?fax_channel_fileclose@Cchannelcontrol@@QAEXXZ 00405a10 f   channelcontrol.obj
 0001:00004a30       ?fax_channel_send_init@Cchannelcontrol@@QAEXPBD00@Z 00405a30 f   channelcontrol.obj
 0001:00004a50       ?fax_channel_send@Cchannelcontrol@@QAEHPBD000@Z 00405a50 f   channelcontrol.obj
 0001:00004a80       ?fax_channel_receive_init@Cchannelcontrol@@QAEXPBD@Z 00405a80 f   channelcontrol.obj
 0001:00004aa0       ?fax_channel_receive@Cchannelcontrol@@QAEHPBDPAD0@Z 00405aa0 f   channelcontrol.obj
 0001:00004ac0       ?ivr_channel_getstate@Cchannelcontrol@@QAEHH@Z 00405ac0 f   channelcontrol.obj
 0001:00004af0       ?ivr_channel_digitplay@Cchannelcontrol@@QAEHNHE@Z 00405af0 f   channelcontrol.obj
 0001:00005580       ?ivr_channel_monkeyplay@Cchannelcontrol@@QAEHNE@Z 00406580 f   channelcontrol.obj
 0001:00006310       ?ivr_channel_timeplay@Cchannelcontrol@@QAEHKEE@Z 00407310 f   channelcontrol.obj
 0001:00006670       ?sc_channel_link@Cchannelcontrol@@QAEHPAV1@@Z 00407670 f   channelcontrol.obj
 0001:00006690       ?sc_channel_unlink@Cchannelcontrol@@QAEHPAV1@@Z 00407690 f   channelcontrol.obj
 0001:000066b0       ?sc_fax_link@Cchannelcontrol@@QAEHPAV1@@Z 004076b0 f   channelcontrol.obj
 0001:000066f0       ?sc_fax_unlink@Cchannelcontrol@@QAEHJ@Z 004076f0 f   channelcontrol.obj
 0001:00006710       ??_ECchannelcontrol@@UAEPAXI@Z 00407710 f i channelcontrol.obj
 0001:00006710       ??_GCchannelcontrol@@UAEPAXI@Z 00407710 f i channelcontrol.obj
 0001:00006750       ??0CTraceFileAndLineInfo@ATL@@QAE@PBDH@Z 00407750 f i channelcontrol.obj
 0001:00006780       ??RCTraceFileAndLineInfo@ATL@@QBAXPBDZZ 00407780 f i channelcontrol.obj
 0001:000067e0       ?TraceV@CTrace@ATL@@QBAXPBDHKI0PAD@Z 004077e0 f i channelcontrol.obj
 0001:00006820       ?GetIntefaceStarted@CCMEInterface@@QAEHXZ 00407820 f i channelcontrol.obj
 0001:00006840       ?GetIsInCall@CIVRChannel@@QAEHXZ 00407840 f i channelcontrol.obj
 0001:00006860       ?pow@@YANHH@Z              00407860 f i channelcontrol.obj
 0001:00006890       ??9ATL@@YA_NABV?$CStringT@DV?$StrTraitMFC_DLL@DV?$ChTraitsCRT@D@ATL@@@@@0@PBD@Z 00407890 f i channelcontrol.obj
 0001:000068c0       ??$_Pow_int@H@@YAHHH@Z     004078c0 f i channelcontrol.obj
 0001:00006950       ??0CClientSocket@@QAE@XZ   00407950 f   ClientSocket.obj
 0001:00006b00       ??1CClientSocket@@UAE@XZ   00407b00 f   ClientSocket.obj
 0001:00006bd0       ?OnClose@CClientSocket@@UAEXH@Z 00407bd0 f   ClientSocket.obj
 0001:00006c20       ?OnReceive@CClientSocket@@UAEXH@Z 00407c20 f   ClientSocket.obj
 0001:00006e50       ?CloseConnection@CClientSocket@@QAEXXZ 00407e50 f   ClientSocket.obj
 0001:00006eb0       ?GetConnectionLength@CClientSocket@@QAEKXZ 00407eb0 f   ClientSocket.obj
 0001:00006f60       ?GetBindingLength@CClientSocket@@QAEJXZ 00407f60 f   ClientSocket.obj
 0001:00007030       ?KeepLiveChecking@CClientSocket@@QAEHXZ 00408030 f   ClientSocket.obj
 0001:00007150       ?GetWorkObject@CClientSocket@@QAEPAXE@Z 00408150 f   ClientSocket.obj
 0001:000071c0       ?GetWorkObject@CClientSocket@@QAEPAXPAE@Z 004081c0 f   ClientSocket.obj
 0001:00007220       ?GetWorkObjectType@CClientSocket@@QAEEXZ 00408220 f   ClientSocket.obj
 0001:00007270       ?ClearWorkObject@CClientSocket@@QAEXXZ 00408270 f   ClientSocket.obj
 0001:00007310       ?SetWorkObject@CClientSocket@@QAEXPAXE@Z 00408310 f   ClientSocket.obj
 0001:00007600       ?GetMinimumMessageSize@CClientSocket@@QBEIXZ 00408600 f   ClientSocket.obj
 0001:00007620       ?GetMessageSize@CClientSocket@@IAEIXZ 00408620 f   ClientSocket.obj
 0001:000076d0       ?GetRequests@CClientSocket@@IAEXXZ 004086d0 f   ClientSocket.obj
 0001:00007860       ?SendTextMessage@CClientSocket@@QAEHPBDH@Z 00408860 f   ClientSocket.obj
 0001:00007a50       ?SendServerTimeMessage@CClientSocket@@QAEHXZ 00408a50 f   ClientSocket.obj
 0001:00007c70       ?SendControlData@CClientSocket@@QAEHPBEI@Z 00408c70 f   ClientSocket.obj
 0001:00007dd0       ?AddMessage@CClientSocket@@QAEHPBEIK@Z 00408dd0 f   ClientSocket.obj
 0001:00007e30       ?ProcessRequests@CClientSocket@@IAEHXZ 00408e30 f   ClientSocket.obj
 0001:00007ef0       ?ProcessMsg_Admin@CClientSocket@@IAEHXZ 00408ef0 f   ClientSocket.obj
 0001:00008270       ?ProcessMsg_Client@CClientSocket@@IAEHXZ 00409270 f   ClientSocket.obj
 0001:00008290       ??_GCClientSocket@@UAEPAXI@Z 00409290 f i ClientSocket.obj
 0001:00008290       ??_ECClientSocket@@UAEPAXI@Z 00409290 f i ClientSocket.obj
 0001:000082d0       ??_ECClientSocket@@WBE@AEPAXI@Z 004092d0 f i ClientSocket.obj
 0001:000082e0       ?CreateObject@CClientThread@@SGPAVCObject@@XZ 004092e0 f   ClientThread.obj
 0001:00008370       ?_GetBaseClass@CClientThread@@KGPAUCRuntimeClass@@XZ 00409370 f   ClientThread.obj
 0001:00008390       ?GetThisClass@CClientThread@@SGPAUCRuntimeClass@@XZ 00409390 f   ClientThread.obj
 0001:000083a0       ?GetRuntimeClass@CClientThread@@UBEPAUCRuntimeClass@@XZ 004093a0 f   ClientThread.obj
 0001:000083c0       ??0CClientThread@@IAE@XZ   004093c0 f   ClientThread.obj
 0001:00008470       ??1CClientThread@@MAE@XZ   00409470 f   ClientThread.obj
 0001:000084f0       ?GetThisMessageMap@CClientThread@@KGPBUAFX_MSGMAP@@XZ 004094f0 f   ClientThread.obj
 0001:00008500       ?GetMessageMap@CClientThread@@MBEPBUAFX_MSGMAP@@XZ 00409500 f   ClientThread.obj
 0001:00008520       ?InitInstance@CClientThread@@UAEHXZ 00409520 f   ClientThread.obj
 0001:000086a0       ?ExitInstance@CClientThread@@UAEHXZ 004096a0 f   ClientThread.obj
 0001:00008710       ?GetPeerName@CClientThread@@QAE?AV?$CStringT@DV?$StrTraitMFC_DLL@DV?$ChTraitsCRT@D@ATL@@@@@ATL@@XZ 00409710 f   ClientThread.obj
 0001:00008770       ?SendStatusToMainWindow@CClientThread@@QAEXIEK@Z 00409770 f   ClientThread.obj
 0001:000088a0       ?OnIdle@CClientThread@@UAEHJ@Z 004098a0 f   ClientThread.obj
 0001:00008ab0       ??_GCClientThread@@MAEPAXI@Z 00409ab0 f i ClientThread.obj
 0001:00008ab0       ??_ECClientThread@@MAEPAXI@Z 00409ab0 f i ClientThread.obj
 0001:00008af0       ??0CConfigBox@@QAE@PAVCWnd@@@Z 00409af0 f   ConfigBox.obj
 0001:00008bd0       ??1CConfigBox@@UAE@XZ      00409bd0 f   ConfigBox.obj
 0001:00008ce0       ?DoDataExchange@CConfigBox@@MAEXPAVCDataExchange@@@Z 00409ce0 f   ConfigBox.obj
 0001:00008d20       ?GetThisMessageMap@CConfigBox@@KGPBUAFX_MSGMAP@@XZ 00409d20 f   ConfigBox.obj
 0001:00008d30       ?GetMessageMap@CConfigBox@@MBEPBUAFX_MSGMAP@@XZ 00409d30 f   ConfigBox.obj
 0001:00008d50       ?PreTranslateMessage@CConfigBox@@UAEHPAUtagMSG@@@Z 00409d50 f   ConfigBox.obj
 0001:00008d80       ?OnInitDialog@CConfigBox@@MAEHXZ 00409d80 f   ConfigBox.obj
 0001:00009300       ?ChangePageStyle@CConfigBox@@IAEXH@Z 0040a300 f   ConfigBox.obj
 0001:00009460       ?OnApplyClick@CConfigBox@@IAEXXZ 0040a460 f   ConfigBox.obj
 0001:00009690       ?OnOK@CConfigBox@@MAEXXZ   0040a690 f   ConfigBox.obj
 0001:000096c0       ?OnCancel@CConfigBox@@MAEXXZ 0040a6c0 f   ConfigBox.obj
 0001:000097f0       ?OnReset@CConfigBox@@IAEXXZ 0040a7f0 f   ConfigBox.obj
 0001:000098f0       ?SetApplyEnableState@CConfigBox@@QAEXH@Z 0040a8f0 f   ConfigBox.obj
 0001:00009930       ?OnSelchangedTreeOpt@CConfigBox@@IAEXPAUtagNMHDR@@PAJ@Z 0040a930 f   ConfigBox.obj
 0001:000099b0       ??_ECConfigBox@@UAEPAXI@Z  0040a9b0 f i ConfigBox.obj
 0001:000099b0       ??_GCConfigBox@@UAEPAXI@Z  0040a9b0 f i ConfigBox.obj
 0001:000099f0       ?_GetBaseClass@CConfigSheet@@KGPAUCRuntimeClass@@XZ 0040a9f0 f   ConfigSheet.obj
 0001:00009a10       ?GetThisClass@CConfigSheet@@SGPAUCRuntimeClass@@XZ 0040aa10 f   ConfigSheet.obj
 0001:00009a20       ?GetRuntimeClass@CConfigSheet@@UBEPAUCRuntimeClass@@XZ 0040aa20 f   ConfigSheet.obj
 0001:00009a40       ??0CConfigSheet@@QAE@XZ    0040aa40 f   ConfigSheet.obj
 0001:00009a70       ??1CConfigSheet@@UAE@XZ    0040aa70 f   ConfigSheet.obj
 0001:00009aa0       ?GetThisMessageMap@CConfigSheet@@KGPBUAFX_MSGMAP@@XZ 0040aaa0 f   ConfigSheet.obj
 0001:00009ab0       ?GetMessageMap@CConfigSheet@@MBEPBUAFX_MSGMAP@@XZ 0040aab0 f   ConfigSheet.obj
 0001:00009ad0       ?CheckKey@CConfigSheet@@QAEHD@Z 0040aad0 f   ConfigSheet.obj
 0001:00009c80       ?PreTranslateMessage@CConfigSheet@@UAEHPAUtagMSG@@@Z 0040ac80 f   ConfigSheet.obj
 0001:00009d20       ??_ECConfigSheet@@UAEPAXI@Z 0040ad20 f i ConfigSheet.obj
 0001:00009d20       ??_GCConfigSheet@@UAEPAXI@Z 0040ad20 f i ConfigSheet.obj
 0001:00009d60       ??0CDlgAutoLoadCallFlow@@QAE@PAVCWnd@@@Z 0040ad60 f   DlgAutoLoadCallFlow.obj
 0001:00009ec0       ?DoDataExchange@CDlgAutoLoadCallFlow@@MAEXPAVCDataExchange@@@Z 0040aec0 f   DlgAutoLoadCallFlow.obj
 0001:00009f80       ?GetThisMessageMap@CDlgAutoLoadCallFlow@@KGPBUAFX_MSGMAP@@XZ 0040af80 f   DlgAutoLoadCallFlow.obj
 0001:00009f90       ?GetMessageMap@CDlgAutoLoadCallFlow@@MBEPBUAFX_MSGMAP@@XZ 0040af90 f   DlgAutoLoadCallFlow.obj
 0001:00009fb0       ?OnInitDialog@CDlgAutoLoadCallFlow@@MAEHXZ 0040afb0 f   DlgAutoLoadCallFlow.obj
 0001:0000a120       ?OnOK@CDlgAutoLoadCallFlow@@MAEXXZ 0040b120 f   DlgAutoLoadCallFlow.obj
 0001:0000a1e0       ?SetSeletedItemWithCurrentProject@CDlgAutoLoadCallFlow@@AAEXXZ 0040b1e0 f   DlgAutoLoadCallFlow.obj
 0001:0000a270       ?LoadCallFlowProjectList@CDlgAutoLoadCallFlow@@AAEHXZ 0040b270 f   DlgAutoLoadCallFlow.obj
 0001:0000b0e0       ?OnDestroy@CDlgAutoLoadCallFlow@@IAEXXZ 0040c0e0 f   DlgAutoLoadCallFlow.obj
 0001:0000b120       ?OnBtnBrowse@CDlgAutoLoadCallFlow@@IAEXXZ 0040c120 f   DlgAutoLoadCallFlow.obj
 0001:0000b270       ?OnOptSource@CDlgAutoLoadCallFlow@@IAEXXZ 0040c270 f   DlgAutoLoadCallFlow.obj
 0001:0000b330       ??_ECDlgAutoLoadCallFlow@@UAEPAXI@Z 0040c330 f i DlgAutoLoadCallFlow.obj
 0001:0000b330       ??_GCDlgAutoLoadCallFlow@@UAEPAXI@Z 0040c330 f i DlgAutoLoadCallFlow.obj
 0001:0000b370       ??1CDlgAutoLoadCallFlow@@UAE@XZ 0040c370 f i DlgAutoLoadCallFlow.obj
 0001:0000b410       ??C?$_com_ptr_t@V?$_com_IIID@U_Recordset@@$1?_GUID_00000556_0000_0010_8000_00aa006d2ea4@@3U__s_GUID@@B@@@@QBEPAU_Recordset@@XZ 0040c410 f i DlgAutoLoadCallFlow.obj
 0001:0000b410       ??C?$_com_ptr_t@V?$_com_IIID@UFields@@$1?_GUID_00000564_0000_0010_8000_00aa006d2ea4@@3U__s_GUID@@B@@@@QBEPAUFields@@XZ 0040c410 f i DlgAutoLoadCallFlow.obj
 0001:0000b410       ??C?$_com_ptr_t@V?$_com_IIID@UField@@$1?_GUID_00000569_0000_0010_8000_00aa006d2ea4@@3U__s_GUID@@B@@@@QBEPAUField@@XZ 0040c410 f i DlgAutoLoadCallFlow.obj
 0001:0000b450       ?CreateInstance@?$_com_ptr_t@V?$_com_IIID@U_Recordset@@$1?_GUID_00000556_0000_0010_8000_00aa006d2ea4@@3U__s_GUID@@B@@@@QAEJABU_GUID@@PAUIUnknown@@K@Z 0040c450 f i DlgAutoLoadCallFlow.obj
 0001:0000b580       ?GetIID@?$_com_ptr_t@V?$_com_IIID@U_Recordset@@$1?_GUID_00000556_0000_0010_8000_00aa006d2ea4@@3U__s_GUID@@B@@@@SAABU_GUID@@XZ 0040c580 f i DlgAutoLoadCallFlow.obj
 0001:0000b5a0       ?GetIID@?$_com_IIID@U_Recordset@@$1?_GUID_00000556_0000_0010_8000_00aa006d2ea4@@3U__s_GUID@@B@@SAABU_GUID@@XZ 0040c5a0 f i DlgAutoLoadCallFlow.obj
 0001:0000b5b0       ??0_bstr_t@@QAE@PBD@Z      0040c5b0 f i DlgAutoLoadCallFlow.obj
 0001:0000b660       ?length@_bstr_t@@QBEIXZ    0040c660 f i DlgAutoLoadCallFlow.obj
 0001:0000b6b0       ??0Data_t@_bstr_t@@QAE@PBD@Z 0040c6b0 f i DlgAutoLoadCallFlow.obj
 0001:0000b700       ?Length@Data_t@_bstr_t@@QBEIXZ 0040c700 f i DlgAutoLoadCallFlow.obj
 0001:0000b760       ??2Data_t@_bstr_t@@SAPAXI@Z 0040c760 f i DlgAutoLoadCallFlow.obj
 0001:0000b780       ??0_variant_t@@QAE@ABV_bstr_t@@@Z 0040c780 f i DlgAutoLoadCallFlow.obj
 0001:0000b820       ??B_bstr_t@@QBEPAGXZ       0040c820 f i DlgAutoLoadCallFlow.obj
 0001:0000b870       ??0_variant_t@@QAE@PBD@Z   0040c870 f i DlgAutoLoadCallFlow.obj
 0001:0000b8b0       ??1_variant_t@@QAE@XZ      0040c8b0 f i DlgAutoLoadCallFlow.obj
 0001:0000b8f0       ?CheckError@_com_util@@YAXJ@Z 0040c8f0 f i DlgAutoLoadCallFlow.obj
 0001:0000b910       ?GetActualSize@Field20@@QAEJXZ 0040c910 f i DlgAutoLoadCallFlow.obj
 0001:0000b9b0       ?GetValue@Field20@@QAE?AV_variant_t@@XZ 0040c9b0 f i DlgAutoLoadCallFlow.obj
 0001:0000ba80       ??0_variant_t@@QAE@AAUtagVARIANT@@_N@Z 0040ca80 f i DlgAutoLoadCallFlow.obj
 0001:0000bb00       ?GetItem@Fields15@@QAE?AV?$_com_ptr_t@V?$_com_IIID@UField@@$1?_GUID_00000569_0000_0010_8000_00aa006d2ea4@@3U__s_GUID@@B@@@@ABV_variant_t@@@Z 0040cb00 f i DlgAutoLoadCallFlow.obj
 0001:0000bbf0       ?PutCursorType@Recordset15@@QAEXW4CursorTypeEnum@@@Z 0040cbf0 f i DlgAutoLoadCallFlow.obj
 0001:0000bc50       ?GetFields@Recordset15@@QAE?AV?$_com_ptr_t@V?$_com_IIID@UFields@@$1?_GUID_00000564_0000_0010_8000_00aa006d2ea4@@3U__s_GUID@@B@@@@XZ 0040cc50 f i DlgAutoLoadCallFlow.obj
 0001:0000bd10       ?GetRecordCount@Recordset15@@QAEJXZ 0040cd10 f i DlgAutoLoadCallFlow.obj
 0001:0000bdb0       ?Close@Recordset15@@QAEJXZ 0040cdb0 f i DlgAutoLoadCallFlow.obj
 0001:0000be10       ?MoveNext@Recordset15@@QAEJXZ 0040ce10 f i DlgAutoLoadCallFlow.obj
 0001:0000be70       ?Open@Recordset15@@QAEJABV_variant_t@@0W4CursorTypeEnum@@W4LockTypeEnum@@J@Z 0040ce70 f i DlgAutoLoadCallFlow.obj
 0001:0000bf50       ?PutCursorLocation@Recordset15@@QAEXW4CursorLocationEnum@@@Z 0040cf50 f i DlgAutoLoadCallFlow.obj
 0001:0000bfb0       ??1?$_com_ptr_t@V?$_com_IIID@U_Recordset@@$1?_GUID_00000556_0000_0010_8000_00aa006d2ea4@@3U__s_GUID@@B@@@@QAE@XZ 0040cfb0 f i DlgAutoLoadCallFlow.obj
 0001:0000bfb0       ??1?$_com_ptr_t@V?$_com_IIID@UField@@$1?_GUID_00000569_0000_0010_8000_00aa006d2ea4@@3U__s_GUID@@B@@@@QAE@XZ 0040cfb0 f i DlgAutoLoadCallFlow.obj
 0001:0000bfb0       ??1?$_com_ptr_t@V?$_com_IIID@UFields@@$1?_GUID_00000564_0000_0010_8000_00aa006d2ea4@@3U__s_GUID@@B@@@@QAE@XZ 0040cfb0 f i DlgAutoLoadCallFlow.obj
 0001:0000bfe0       ??0?$_com_ptr_t@V?$_com_IIID@UField@@$1?_GUID_00000569_0000_0010_8000_00aa006d2ea4@@3U__s_GUID@@B@@@@QAE@PAUField@@_N@Z 0040cfe0 f i DlgAutoLoadCallFlow.obj
 0001:0000bfe0       ??0?$_com_ptr_t@V?$_com_IIID@UFields@@$1?_GUID_00000564_0000_0010_8000_00aa006d2ea4@@3U__s_GUID@@B@@@@QAE@PAUFields@@_N@Z 0040cfe0 f i DlgAutoLoadCallFlow.obj
 0001:0000c020       ?_AddRef@?$_com_ptr_t@V?$_com_IIID@UField@@$1?_GUID_00000569_0000_0010_8000_00aa006d2ea4@@3U__s_GUID@@B@@@@AAEXXZ 0040d020 f i DlgAutoLoadCallFlow.obj
 0001:0000c020       ?_AddRef@?$_com_ptr_t@V?$_com_IIID@U_Recordset@@$1?_GUID_00000556_0000_0010_8000_00aa006d2ea4@@3U__s_GUID@@B@@@@AAEXXZ 0040d020 f i IVRGroup.obj
 0001:0000c020       ?_AddRef@?$_com_ptr_t@V?$_com_IIID@UFields@@$1?_GUID_00000564_0000_0010_8000_00aa006d2ea4@@3U__s_GUID@@B@@@@AAEXXZ 0040d020 f i DlgAutoLoadCallFlow.obj
 0001:0000c060       ?_Release@?$_com_ptr_t@V?$_com_IIID@UFields@@$1?_GUID_00000564_0000_0010_8000_00aa006d2ea4@@3U__s_GUID@@B@@@@AAEXXZ 0040d060 f i DlgAutoLoadCallFlow.obj
 0001:0000c060       ?_Release@?$_com_ptr_t@V?$_com_IIID@U_Recordset@@$1?_GUID_00000556_0000_0010_8000_00aa006d2ea4@@3U__s_GUID@@B@@@@AAEXXZ 0040d060 f i DlgAutoLoadCallFlow.obj
 0001:0000c060       ?_Release@?$_com_ptr_t@V?$_com_IIID@UField@@$1?_GUID_00000569_0000_0010_8000_00aa006d2ea4@@3U__s_GUID@@B@@@@AAEXXZ 0040d060 f i DlgAutoLoadCallFlow.obj
 0001:0000c0a0       ??0CDlgAutoLoadResource@@QAE@PAVCWnd@@@Z 0040d0a0 f   DlgAutoLoadResource.obj
 0001:0000c190       ?DoDataExchange@CDlgAutoLoadResource@@MAEXPAVCDataExchange@@@Z 0040d190 f   DlgAutoLoadResource.obj
 0001:0000c220       ?GetThisMessageMap@CDlgAutoLoadResource@@KGPBUAFX_MSGMAP@@XZ 0040d220 f   DlgAutoLoadResource.obj
 0001:0000c230       ?GetMessageMap@CDlgAutoLoadResource@@MBEPBUAFX_MSGMAP@@XZ 0040d230 f   DlgAutoLoadResource.obj
 0001:0000c250       ?OnInitDialog@CDlgAutoLoadResource@@MAEHXZ 0040d250 f   DlgAutoLoadResource.obj
 0001:0000c310       ?OnOK@CDlgAutoLoadResource@@MAEXXZ 0040d310 f   DlgAutoLoadResource.obj
 0001:0000c3b0       ?SetSeletedItemWithCurrentProject@CDlgAutoLoadResource@@AAEXXZ 0040d3b0 f   DlgAutoLoadResource.obj
 0001:0000c440       ?LoadResourceProjectList@CDlgAutoLoadResource@@AAEHXZ 0040d440 f   DlgAutoLoadResource.obj
 0001:0000d2a0       ??_ECDlgAutoLoadResource@@UAEPAXI@Z 0040e2a0 f i DlgAutoLoadResource.obj
 0001:0000d2a0       ??_GCDlgAutoLoadResource@@UAEPAXI@Z 0040e2a0 f i DlgAutoLoadResource.obj
 0001:0000d2e0       ??1CDlgAutoLoadResource@@UAE@XZ 0040e2e0 f i DlgAutoLoadResource.obj
 0001:0000d360       ??0CDlgGetPassword@@QAE@PAVCWnd@@@Z 0040e360 f   DlgGetPassword.obj
 0001:0000d400       ?DoDataExchange@CDlgGetPassword@@MAEXPAVCDataExchange@@@Z 0040e400 f   DlgGetPassword.obj
 0001:0000d460       ?GetThisMessageMap@CDlgGetPassword@@KGPBUAFX_MSGMAP@@XZ 0040e460 f   DlgGetPassword.obj
 0001:0000d470       ?GetMessageMap@CDlgGetPassword@@MBEPBUAFX_MSGMAP@@XZ 0040e470 f   DlgGetPassword.obj
 0001:0000d490       ?OnOK@CDlgGetPassword@@MAEXXZ 0040e490 f   DlgGetPassword.obj
 0001:0000d560       ??_GCDlgGetPassword@@UAEPAXI@Z 0040e560 f i DlgGetPassword.obj
 0001:0000d560       ??_ECDlgGetPassword@@UAEPAXI@Z 0040e560 f i DlgGetPassword.obj
 0001:0000d5a0       ??1CDlgGetPassword@@UAE@XZ 0040e5a0 f i DlgGetPassword.obj
 0001:0000d5e0       ??8ATL@@YA_NABV?$CStringT@DV?$StrTraitMFC_DLL@DV?$ChTraitsCRT@D@ATL@@@@@0@0@Z 0040e5e0 f i DlgGetPassword.obj
 0001:0000d620       ??0CDlgSeleCallFlowTable@@QAE@PAVCWnd@@@Z 0040e620 f   DlgSeleCallFlowTable.obj
 0001:0000d6d0       ?DoDataExchange@CDlgSeleCallFlowTable@@MAEXPAVCDataExchange@@@Z 0040e6d0 f   DlgSeleCallFlowTable.obj
 0001:0000d720       ?GetThisMessageMap@CDlgSeleCallFlowTable@@KGPBUAFX_MSGMAP@@XZ 0040e720 f   DlgSeleCallFlowTable.obj
 0001:0000d730       ?GetMessageMap@CDlgSeleCallFlowTable@@MBEPBUAFX_MSGMAP@@XZ 0040e730 f   DlgSeleCallFlowTable.obj
 0001:0000d750       ?OnOK@CDlgSeleCallFlowTable@@MAEXXZ 0040e750 f   DlgSeleCallFlowTable.obj
 0001:0000d7e0       ?OnInitDialog@CDlgSeleCallFlowTable@@MAEHXZ 0040e7e0 f   DlgSeleCallFlowTable.obj
 0001:0000d880       ?SetSeletedItemWithCurrentProject@CDlgSeleCallFlowTable@@AAEXXZ 0040e880 f   DlgSeleCallFlowTable.obj
 0001:0000d910       ?LoadCallFlowProjectList@CDlgSeleCallFlowTable@@AAEHXZ 0040e910 f   DlgSeleCallFlowTable.obj
 0001:0000e770       ?OnDestroy@CDlgSeleCallFlowTable@@IAEXXZ 0040f770 f   DlgSeleCallFlowTable.obj
 0001:0000e7a0       ?OnDblclkCmbCallflow@CDlgSeleCallFlowTable@@IAEXXZ 0040f7a0 f   DlgSeleCallFlowTable.obj
 0001:0000e7e0       ??_ECDlgSeleCallFlowTable@@UAEPAXI@Z 0040f7e0 f i DlgSeleCallFlowTable.obj
 0001:0000e7e0       ??_GCDlgSeleCallFlowTable@@UAEPAXI@Z 0040f7e0 f i DlgSeleCallFlowTable.obj
 0001:0000e820       ??1CDlgSeleCallFlowTable@@UAE@XZ 0040f820 f i DlgSeleCallFlowTable.obj
 0001:0000e890       ??0CDLGSELERESOURCE@@QAE@PAVCWnd@@@Z 0040f890 f   DLGSELERESOURCE.obj
 0001:0000e920       ?DoDataExchange@CDLGSELERESOURCE@@MAEXPAVCDataExchange@@@Z 0040f920 f   DLGSELERESOURCE.obj
 0001:0000e960       ?GetThisMessageMap@CDLGSELERESOURCE@@KGPBUAFX_MSGMAP@@XZ 0040f960 f   DLGSELERESOURCE.obj
 0001:0000e970       ?GetMessageMap@CDLGSELERESOURCE@@MBEPBUAFX_MSGMAP@@XZ 0040f970 f   DLGSELERESOURCE.obj
 0001:0000e990       ?OnOK@CDLGSELERESOURCE@@MAEXXZ 0040f990 f   DLGSELERESOURCE.obj
 0001:0000ea20       ?OnInitDialog@CDLGSELERESOURCE@@MAEHXZ 0040fa20 f   DLGSELERESOURCE.obj
 0001:0000eac0       ?SetSeletedItemWithCurrentProject@CDLGSELERESOURCE@@AAEXXZ 0040fac0 f   DLGSELERESOURCE.obj
 0001:0000eb40       ?LoadResourceProjectList@CDLGSELERESOURCE@@AAEHXZ 0040fb40 f   DLGSELERESOURCE.obj
 0001:0000f990       ?OnDblclkCmbResource@CDLGSELERESOURCE@@IAEXXZ 00410990 f   DLGSELERESOURCE.obj
 0001:0000f9d0       ??_GCDLGSELERESOURCE@@UAEPAXI@Z 004109d0 f i DLGSELERESOURCE.obj
 0001:0000f9d0       ??_ECDLGSELERESOURCE@@UAEPAXI@Z 004109d0 f i DLGSELERESOURCE.obj
 0001:0000fa10       ??1CDLGSELERESOURCE@@UAE@XZ 00410a10 f i DLGSELERESOURCE.obj
 0001:0000fa70       ??0CDlgViewLicense@@QAE@PAVCWnd@@@Z 00410a70 f   DlgViewLicense.obj
 0001:0000fd40       ?DoDataExchange@CDlgViewLicense@@MAEXPAVCDataExchange@@@Z 00410d40 f   DlgViewLicense.obj
 0001:0000fe70       ?GetThisMessageMap@CDlgViewLicense@@KGPBUAFX_MSGMAP@@XZ 00410e70 f   DlgViewLicense.obj
 0001:0000fe80       ?GetMessageMap@CDlgViewLicense@@MBEPBUAFX_MSGMAP@@XZ 00410e80 f   DlgViewLicense.obj
 0001:0000fea0       ?OnInitDialog@CDlgViewLicense@@MAEHXZ 00410ea0 f   DlgViewLicense.obj
 0001:000100c0       ??_ECDlgViewLicense@@UAEPAXI@Z 004110c0 f i DlgViewLicense.obj
 0001:000100c0       ??_GCDlgViewLicense@@UAEPAXI@Z 004110c0 f i DlgViewLicense.obj
 0001:00010100       ??1CDlgViewLicense@@UAE@XZ 00411100 f i DlgViewLicense.obj
 0001:00010230       ??0CFaxManager@@QAE@XZ     00411230 f   FaxManager.obj
 0001:000102a0       ??1CFaxManager@@UAE@XZ     004112a0 f   FaxManager.obj
 0001:00010320       ?RemoveAllFaxResource@CFaxManager@@QAEXXZ 00411320 f   FaxManager.obj
 0001:00010490       ?GetFaxResourceCount@CFaxManager@@QAEHXZ 00411490 f   FaxManager.obj
 0001:000104e0       ?AddFaxResource@CFaxManager@@QAEPAVCFaxResource@@PAVCchannelcontrol@@JJ@Z 004114e0 f   FaxManager.obj
 0001:00010640       ?RemoveFaxResource@CFaxManager@@QAEHJ@Z 00411640 f   FaxManager.obj
 0001:00010780       ?AllocateFaxResource@CFaxManager@@QAEPAVCFaxResource@@H@Z 00411780 f   FaxManager.obj
 0001:00010920       ?ReleaseFaxResource@CFaxManager@@QAEHJ@Z 00411920 f   FaxManager.obj
 0001:00010a20       ??_GCFaxManager@@UAEPAXI@Z 00411a20 f i FaxManager.obj
 0001:00010a20       ??_ECFaxManager@@UAEPAXI@Z 00411a20 f i FaxManager.obj
 0001:00010a60       ??0?$CMap@JJPAVCFaxResource@@PAV1@@@QAE@H@Z 00411a60 f i FaxManager.obj
 0001:00010b20       ?Lookup@?$CMap@JJPAVCFaxResource@@PAV1@@@QBEHJAAPAVCFaxResource@@@Z 00411b20 f i FaxManager.obj
 0001:00010bf0       ?SetAt@?$CMap@JJPAVCFaxResource@@PAV1@@@QAEXJPAVCFaxResource@@@Z 00411bf0 f i FaxManager.obj
 0001:00010c20       ?RemoveKey@?$CMap@JJPAVCFaxResource@@PAV1@@@QAEHJ@Z 00411c20 f i FaxManager.obj
 0001:00010cf0       ?RemoveAll@?$CMap@JJPAVCFaxResource@@PAV1@@@QAEXXZ 00411cf0 f i FaxManager.obj
 0001:00010dc0       ?GetStartPosition@?$CMap@KKPAVCIVRChannel@@PAV1@@@QBEPAU__POSITION@@XZ 00411dc0 f i IVRChannel.obj
 0001:00010dc0       ?GetStartPosition@?$CMap@JJPAVCFaxResource@@PAV1@@@QBEPAU__POSITION@@XZ 00411dc0 f i FaxManager.obj
 0001:00010de0       ?GetNextAssoc@?$CMap@JJPAVCFaxResource@@PAV1@@@QBEXAAPAU__POSITION@@AAJAAPAVCFaxResource@@@Z 00411de0 f i FaxManager.obj
 0001:00010f50       ??1?$CMap@JJPAVCFaxResource@@PAV1@@@UAE@XZ 00411f50 f i FaxManager.obj
 0001:00010fd0       ?Serialize@?$CMap@JJPAVCFaxResource@@PAV1@@@UAEXAAVCArchive@@@Z 00411fd0 f i FaxManager.obj
 0001:00011170       ?Dump@?$CMap@JJPAVCFaxResource@@PAV1@@@UBEXAAVCDumpContext@@@Z 00412170 f i FaxManager.obj
 0001:00011290       ?AssertValid@?$CMap@JJPAVCFaxResource@@PAV1@@@UBEXXZ 00412290 f i FaxManager.obj
 0001:00011300       ??_G?$CMap@JJPAVCFaxResource@@PAV1@@@UAEPAXI@Z 00412300 f i FaxManager.obj
 0001:00011300       ??_E?$CMap@JJPAVCFaxResource@@PAV1@@@UAEPAXI@Z 00412300 f i FaxManager.obj
 0001:00011340       ??A?$CMap@JJPAVCFaxResource@@PAV1@@@QAEAAPAVCFaxResource@@J@Z 00412340 f i FaxManager.obj
 0001:00011450       ?FreeAssoc@?$CMap@JJPAVCFaxResource@@PAV1@@@IAEXPAVCAssoc@1@@Z 00412450 f i FaxManager.obj
 0001:000114c0       ?GetAssocAt@?$CMap@JJPAVCFaxResource@@PAV1@@@IBEPAVCAssoc@1@JAAI0@Z 004124c0 f i FaxManager.obj
 0001:00011560       ??$HashKey@K@@YGIK@Z       00412560 f i IVRChannel.obj
 0001:00011560       ??$HashKey@J@@YGIJ@Z       00412560 f i FaxManager.obj
 0001:00011570       ??$CompareElements@JJ@@YGHPBJ0@Z 00412570 f i FaxManager.obj
 0001:000115e0       ??$SerializeElements@J@@YGXAAVCArchive@@PAJH@Z 004125e0 f i FaxManager.obj
 0001:00011710       ??$SerializeElements@PAVCFaxResource@@@@YGXAAVCArchive@@PAPAVCFaxResource@@H@Z 00412710 f i FaxManager.obj
 0001:00011840       ??$DumpElements@J@@YGXAAVCDumpContext@@PBJH@Z 00412840 f i FaxManager.obj
 0001:00011880       ??$DumpElements@PAVCFaxResource@@@@YGXAAVCDumpContext@@PBQAVCFaxResource@@H@Z 00412880 f i FaxManager.obj
 0001:000118c0       ?InitHashTable@?$CMap@JJPAVCFaxResource@@PAV1@@@QAEXIH@Z 004128c0 f i FaxManager.obj
 0001:000119b0       ?NewAssoc@?$CMap@JJPAVCFaxResource@@PAV1@@@IAEPAVCAssoc@1@J@Z 004129b0 f i FaxManager.obj
 0001:00011b50       ??$?2K@Wrapper@?$CSimpleArray@KV?$CSimpleArrayEqualHelper@K@ATL@@@ATL@@SAPAXIPAK@Z 00412b50 f i atlsd:Allocate.obj
 0001:00011b50       ??2@YAPAXIPAX@Z            00412b50 f i FaxManager.obj
 0001:00011b50       ??$?2PAUHINSTANCE__@@@Wrapper@?$CSimpleArray@PAUHINSTANCE__@@V?$CSimpleArrayEqualHelper@PAUHINSTANCE__@@@ATL@@@ATL@@SAPAXIPAPAUHINSTANCE__@@@Z 00412b50 f i atlsd:atlbase.obj
 0001:00011b50       ??$?2UCModuleInfo@CTraceSnapshot@@@Wrapper@?$CSimpleArray@UCModuleInfo@CTraceSnapshot@@V?$CSimpleArrayEqualHelper@UCModuleInfo@CTraceSnapshot@@@ATL@@@ATL@@SAPAXIPAUCModuleInfo@CTraceSnapshot@@@Z 00412b50 f i atlsd:Allocate.obj
 0001:00011b60       ??0const_iterator@?$list@PAVCCheckGroupBox@@V?$allocator@PAVCCheckGroupBox@@@std@@@std@@QAE@PAU_Node@?$_List_nod@PAVCCheckGroupBox@@V?$allocator@PAVCCheckGroupBox@@@std@@@2@@Z 00412b60 f i CheckGroupBox.obj
 0001:00011b60       ??0CPair@?$CMap@KKPAVCIVRChannel@@PAV1@@@IAE@K@Z 00412b60 f i IVRChannel.obj
 0001:00011b60       ??0CPair@?$CMap@JJPAVCFaxResource@@PAV1@@@IAE@J@Z 00412b60 f i FaxManager.obj
 0001:00011b80       ??0CFaxResource@@QAE@PAVCchannelcontrol@@JJ@Z 00412b80 f   FaxResource.obj
 0001:00011c50       ??1CFaxResource@@UAE@XZ    00412c50 f   FaxResource.obj
 0001:00011ce0       ?GetFaxResID@CFaxResource@@QAEJXZ 00412ce0 f   FaxResource.obj
 0001:00011d00       ?GetFaxResType@CFaxResource@@QAEJXZ 00412d00 f   FaxResource.obj
 0001:00011d20       ?GetStatus@CFaxResource@@QAEEPAH@Z 00412d20 f   FaxResource.obj
 0001:00011d80       ?SetStatus@CFaxResource@@QAEXEH@Z 00412d80 f   FaxResource.obj
 0001:00011e80       ?GetASRObj@CFaxResource@@QAEPAVCchannelcontrol@@XZ 00412e80 f   FaxResource.obj
 0001:00011ea0       ?GetTotalBusyTime@CFaxResource@@QAEKXZ 00412ea0 f   FaxResource.obj
 0001:00011ec0       ?Channel_Stop@CFaxResource@@QAEHXZ 00412ec0 f   FaxResource.obj
 0001:00011ee0       ?GetSendResult@CFaxResource@@QAEEXZ 00412ee0 f   FaxResource.obj
 0001:00011f00       ?SendFaxFile@CFaxResource@@QAEHPBD000@Z 00412f00 f   FaxResource.obj
 0001:00011fc0       ?ReceiveFaxFile@CFaxResource@@QAEHPBDPAD0@Z 00412fc0 f   FaxResource.obj
 0001:00012050       ??_ECFaxResource@@UAEPAXI@Z 00413050 f i FaxResource.obj
 0001:00012050       ??_GCFaxResource@@UAEPAXI@Z 00413050 f i FaxResource.obj
 0001:00012090       ??0CIVRCH_Collection@@QAE@XZ 00413090 f   IVRChannel.obj
 0001:00012100       ??1CIVRCH_Collection@@UAE@XZ 00413100 f   IVRChannel.obj
 0001:00012180       ?RemoveAllAgents@CIVRCH_Collection@@QAEXXZ 00413180 f   IVRChannel.obj
 0001:000121c0       ?GetIVRChannelCount@CIVRCH_Collection@@QAEHXZ 004131c0 f   IVRChannel.obj
 0001:00012210       ?AddAgent@CIVRCH_Collection@@QAEHKPAVCIVRChannel@@@Z 00413210 f   IVRChannel.obj
 0001:00012260       ?RemoveAgent@CIVRCH_Collection@@QAEXK@Z 00413260 f   IVRChannel.obj
 0001:000122a0       ?FindAgentIndexWithID@CIVRCH_Collection@@QAEPAVCIVRChannel@@K@Z 004132a0 f   IVRChannel.obj
 0001:00012330       ??0CIVRChannel@@QAE@XZ     00413330 f   IVRChannel.obj
 0001:00012880       ??1CIVRChannel@@UAE@XZ     00413880 f   IVRChannel.obj
 0001:00012ad0       ?CreateComObject@CIVRChannel@@QAEHPAG@Z 00413ad0 f   IVRChannel.obj
 0001:00012bd0       ?GetDailyCallCount@CIVRChannel@@QAEJXZ 00413bd0 f   IVRChannel.obj
 0001:00012bf0       ?GetYTDCallCount@CIVRChannel@@QAEJXZ 00413bf0 f   IVRChannel.obj
 0001:00012c10       ?ResetDailyCallCount@CIVRChannel@@QAEXXZ 00413c10 f   IVRChannel.obj
 0001:00012c50       ?ResetYTDCallCount@CIVRChannel@@QAEXXZ 00413c50 f   IVRChannel.obj
 0001:00012ca0       ?IncreaseCallCount@CIVRChannel@@QAEXXZ 00413ca0 f   IVRChannel.obj
 0001:00012d10       ?GetIVRTestFlag@CIVRChannel@@QAEHXZ 00413d10 f   IVRChannel.obj
 0001:00012d30       ?SetIVRTestFlag@CIVRChannel@@QAEXH@Z 00413d30 f   IVRChannel.obj
 0001:00012d60       ?GetIVRTestNOCDR@CIVRChannel@@QAEHXZ 00413d60 f   IVRChannel.obj
 0001:00012d80       ?SetIVRTestNOCDR@CIVRChannel@@QAEXH@Z 00413d80 f   IVRChannel.obj
 0001:00012db0       ?GetIVRTestTime@CIVRChannel@@QAEHAAVCTime@ATL@@@Z 00413db0 f   IVRChannel.obj
 0001:00012df0       ?SetIVRTestTime@CIVRChannel@@QAEXPBD@Z 00413df0 f   IVRChannel.obj
 0001:00012e80       ?LockFlagData@CIVRChannel@@QAEXH@Z 00413e80 f   IVRChannel.obj
 0001:00012ed0       ?GetQueueWaitEventID@CIVRChannel@@QAEKXZ 00413ed0 f   IVRChannel.obj
 0001:00012ef0       ?SetQueueWaitEventData@CIVRChannel@@QAEXPAEI@Z 00413ef0 f   IVRChannel.obj
 0001:00012f30       ?ResetQueueWaitEvent@CIVRChannel@@QAEXK@Z 00413f30 f   IVRChannel.obj
 0001:00012f90       ?SetQueueWaitEvent@CIVRChannel@@QAEXK@Z 00413f90 f   IVRChannel.obj
 0001:000130d0       ?GetIsMonitorred@CIVRChannel@@QAEHXZ 004140d0 f   IVRChannel.obj
 0001:000130f0       ?SetIsMonitorred@CIVRChannel@@QAEXH@Z 004140f0 f   IVRChannel.obj
 0001:00013140       ?GetForceNextNode@CIVRChannel@@QAEGXZ 00414140 f   IVRChannel.obj
 0001:00013160       ?SetForceNextNode@CIVRChannel@@QAEXG@Z 00414160 f   IVRChannel.obj
 0001:000131a0       ?GetStatus@CIVRChannel@@QAEEXZ 004141a0 f   IVRChannel.obj
 0001:000131c0       ?SetStatus@CIVRChannel@@QAEXE@Z 004141c0 f   IVRChannel.obj
 0001:00013230       ?GetChannelCreateDuration@CIVRChannel@@QAEKXZ 00414230 f   IVRChannel.obj
 0001:00013280       ?GetChannelStartDuration@CIVRChannel@@QAEKXZ 00414280 f   IVRChannel.obj
 0001:000132f0       ?SetStarted@CIVRChannel@@QAEXH@Z 004142f0 f   IVRChannel.obj
 0001:00013350       ?GetNeedCTI@CIVRChannel@@QAEHXZ 00414350 f   IVRChannel.obj
 0001:00013390       ?GetCTIOpened@CIVRChannel@@QAEHXZ 00414390 f   IVRChannel.obj
 0001:000133b0       ?GetCTIAvailble@CIVRChannel@@QAEHXZ 004143b0 f   IVRChannel.obj
 0001:00013410       ?SetCTIOpened@CIVRChannel@@QAEXH@Z 00414410 f   IVRChannel.obj
 0001:00013480       ?SetCallRefID@CIVRChannel@@QAEXKEEGPBD@Z 00414480 f   IVRChannel.obj
 0001:00013520       ?SetNewCallRefID@CIVRChannel@@QAEXK@Z 00414520 f   IVRChannel.obj
 0001:00013540       ?Create@CIVRChannel@@QAEXG@Z 00414540 f   IVRChannel.obj
 0001:000135e0       ?InitCh@CIVRChannel@@QAEHXZ 004145e0 f   IVRChannel.obj
 0001:00013670       ?SetHookOn@CIVRChannel@@QAEHE@Z 00414670 f   IVRChannel.obj
 0001:000138f0       ?IVRStatisticsFunction@CIVRChannel@@QAEHXZ 004148f0 f   IVRChannel.obj
 0001:00013a10       ?InsertCallBackRecord@CIVRChannel@@AAEHV?$CStringT@DV?$StrTraitMFC_DLL@DV?$ChTraitsCRT@D@ATL@@@@@ATL@@EPBD@Z 00414a10 f   IVRChannel.obj
 0001:00013ed0       ?InsertIVRCDR@CIVRChannel@@QAEHXZ 00414ed0 f   IVRChannel.obj
 0001:00014ac0       ?Shortcut_InsertIVRCDRDetail@CIVRChannel@@AAEHXZ 00415ac0 f   IVRChannel.obj
 0001:00014c20       ?InsertIVRCDRDetail@CIVRChannel@@AAEHGEGGPBDKG0@Z 00415c20 f   IVRChannel.obj
 0001:00014ec0       ?InsertFAXCDR@CIVRChannel@@AAEHEPBD000000EEEE@Z 00415ec0 f   IVRChannel.obj
 0001:000153b0       ?InsertACCSCDR@CIVRChannel@@AAEHV?$CStringT@DV?$StrTraitMFC_DLL@DV?$ChTraitsCRT@D@ATL@@@@@ATL@@0@Z 004163b0 f   IVRChannel.obj
 0001:00015510       ?ExecuteSQLStatement@CIVRChannel@@QAEHV?$CStringT@DV?$StrTraitMFC_DLL@DV?$ChTraitsCRT@D@ATL@@@@@ATL@@@Z 00416510 f   IVRChannel.obj
 0001:000155c0       ?ProcessTimer@CIVRChannel@@QAEHXZ 004165c0 f   IVRChannel.obj
 0001:000159c0       ?NF_N61_QueueWaiting@CIVRChannel@@QAEHK@Z 004169c0 f   IVRChannel.obj
 0001:000164a0       ?NF_QueueProcess@CIVRChannel@@AAEXXZ 004174a0 f   IVRChannel.obj
 0001:00016690       ?GetBreakKey@CIVRChannel@@AAEHEPAD@Z 00417690 f   IVRChannel.obj
 0001:000167f0       ?PlayVoiceEx@CIVRChannel@@QAEHGE_NH@Z 004177f0 f   IVRChannel.obj
 0001:000169a0       ?TTSPlayBufferEx@CIVRChannel@@QAEHPADE_N@Z 004179a0 f   IVRChannel.obj
 0001:00016e10       ?PlayRecordEx@CIVRChannel@@QAEHAAV?$CStringT@DV?$StrTraitMFC_DLL@DV?$ChTraitsCRT@D@ATL@@@@@ATL@@_N@Z 00417e10 f   IVRChannel.obj
 0001:00017340       ?GetDigitEx@CIVRChannel@@QAEHGEPADEEE_N@Z 00418340 f   IVRChannel.obj
 0001:00017500       ?RecFileEx@CIVRChannel@@QAEHGEPBD00GE_NEEEEEE@Z 00418500 f   IVRChannel.obj
 0001:00017c90       ?ReleaseFaxResource@CIVRChannel@@IAEXXZ 00418c90 f   IVRChannel.obj
 0001:00017d00       ?SendFaxFile@CIVRChannel@@QAEHPBD000PAE@Z 00418d00 f   IVRChannel.obj
 0001:00017db0       ?ReceiveFaxFile@CIVRChannel@@QAEHPBDPAD0PAE@Z 00418db0 f   IVRChannel.obj
 0001:00017e40       ?SendFaxEx@CIVRChannel@@QAEHGGG@Z 00418e40 f   IVRChannel.obj
 0001:00018070       ?SetChannelStop@CIVRChannel@@QAEHXZ 00419070 f   IVRChannel.obj
 0001:000180e0       ?NF_SetCallAnswerDelay@CIVRChannel@@QAEHG@Z 004190e0 f   IVRChannel.obj
 0001:00018110       ?NF_GetCallAnswerDelay@CIVRChannel@@QAEGXZ 00419110 f   IVRChannel.obj
 0001:00018130       ?NF_SetChannelRestartTime@CIVRChannel@@QAEHG@Z 00419130 f   IVRChannel.obj
 0001:00018170       ?NF_GetChannelRestartTime@CIVRChannel@@QAEGXZ 00419170 f   IVRChannel.obj
 0001:00018190       ?NF_GetLanguageID@CIVRChannel@@QAEEXZ 00419190 f   IVRChannel.obj
 0001:000181b0       ?NF_SetLanguageID@CIVRChannel@@QAEXE@Z 004191b0 f   IVRChannel.obj
 0001:00018250       ?NF_GetAppData@CIVRChannel@@QAEPAEXZ 00419250 f   IVRChannel.obj
 0001:00018270       ?NF_SetAppData@CIVRChannel@@QAEXPAE@Z 00419270 f   IVRChannel.obj
 0001:000182c0       ?NF_GetOBResult@CIVRChannel@@QAEEXZ 004192c0 f   IVRChannel.obj
 0001:000182e0       ?NF_GetOBMsgTelNo@CIVRChannel@@QAE?AV?$CStringT@DV?$StrTraitMFC_DLL@DV?$ChTraitsCRT@D@ATL@@@@@ATL@@XZ 004192e0 f   IVRChannel.obj
 0001:00018340       ?NF_SetOBMsgTelNo@CIVRChannel@@QAEXPBD@Z 00419340 f   IVRChannel.obj
 0001:000183b0       ?NF_GetOBPacketID@CIVRChannel@@QAEKXZ 004193b0 f   IVRChannel.obj
 0001:000183d0       ?NF_SetOBPacketID@CIVRChannel@@QAEXK@Z 004193d0 f   IVRChannel.obj
 0001:000183f0       ?NF_GetOBCampaignID@CIVRChannel@@QAEGXZ 004193f0 f   IVRChannel.obj
 0001:00018410       ?NF_SetOBCampaignID@CIVRChannel@@QAEXG@Z 00419410 f   IVRChannel.obj
 0001:00018440       ?NF_GetOBTaskID@CIVRChannel@@QAEKXZ 00419440 f   IVRChannel.obj
 0001:00018460       ?NF_SetOBTaskID@CIVRChannel@@QAEXK@Z 00419460 f   IVRChannel.obj
 0001:00018480       ?NF_GetCCDialProgress@CIVRChannel@@QAEEXZ 00419480 f   IVRChannel.obj
 0001:000184a0       ?NF_GetCCTalking@CIVRChannel@@QAEHXZ 004194a0 f   IVRChannel.obj
 0001:000184c0       ?NF_SetCCTalking@CIVRChannel@@QAEXH@Z 004194c0 f   IVRChannel.obj
 0001:00018510       ?NF_GetUserData@CIVRChannel@@QAEPADXZ 00419510 f   IVRChannel.obj
 0001:00018530       ?NF_SetUserData@CIVRChannel@@QAEXPBD@Z 00419530 f   IVRChannel.obj
 0001:000185a0       ?NF_GetExtData@CIVRChannel@@QAEPADXZ 004195a0 f   IVRChannel.obj
 0001:000185c0       ?NF_SetExtData@CIVRChannel@@QAEXPBDH@Z 004195c0 f   IVRChannel.obj
 0001:00018670       ?NF_GetCallerID@CIVRChannel@@QAEPAEXZ 00419670 f   IVRChannel.obj
 0001:00018690       ?NF_SetCallerID@CIVRChannel@@QAEXPAE@Z 00419690 f   IVRChannel.obj
 0001:000186f0       ?NF_GetCalleeID@CIVRChannel@@QAEPAEXZ 004196f0 f   IVRChannel.obj
 0001:00018710       ?NF_SetCalleeID@CIVRChannel@@QAEXPAE@Z 00419710 f   IVRChannel.obj
 0001:00018790       ?NF_SetUserValue@CIVRChannel@@IAEHEPAEH@Z 00419790 f   IVRChannel.obj
 0001:00018f60       ?NF_SetUserValue@CIVRChannel@@IAEHPBDPAEH@Z 00419f60 f   IVRChannel.obj
 0001:00019030       ?NF_GetUserValue@CIVRChannel@@IAEHEPAE@Z 0041a030 f   IVRChannel.obj
 0001:00019570       ?NF_GetUserValue@CIVRChannel@@IAEHPBDPAE@Z 0041a570 f   IVRChannel.obj
 0001:00019aa0       ?NF_GetUserValueLocation@CIVRChannel@@IAEHPBD@Z 0041aaa0 f   IVRChannel.obj
 0001:00019b80       ?NF_SetAccessLog@CIVRChannel@@IAEHE@Z 0041ab80 f   IVRChannel.obj
 0001:00019c00       ?NF_GetAccessLog@CIVRChannel@@IAE_NE@Z 0041ac00 f   IVRChannel.obj
 0001:00019c50       ?NF_SetNextNode@CIVRChannel@@QAEHG@Z 0041ac50 f   IVRChannel.obj
 0001:00019cf0       ?NF_GetNextNode@CIVRChannel@@QAEGXZ 0041acf0 f   IVRChannel.obj
 0001:00019d10       ?NF_SetNodeEvent@CIVRChannel@@QAEHG@Z 0041ad10 f   IVRChannel.obj
 0001:00019d40       ?NF_GetNodeEvent@CIVRChannel@@QAEGXZ 0041ad40 f   IVRChannel.obj
 0001:00019d60       ?NF_TransferDefault@CIVRChannel@@IAEHEG@Z 0041ad60 f   IVRChannel.obj
 0001:00019e60       ?NF_006@CIVRChannel@@IAEGHPBE0@Z 0041ae60 f   IVRChannel.obj
 0001:00019f20       ?NF_007@CIVRChannel@@IAEGHPBE0@Z 0041af20 f   IVRChannel.obj
 0001:0001a630       ?NF_008@CIVRChannel@@IAEGHPBE0@Z 0041b630 f   IVRChannel.obj
 0001:0001acf0       ?NF_009@CIVRChannel@@IAEGHPBE0@Z 0041bcf0 f   IVRChannel.obj
 0001:0001afd0       ?NF_010@CIVRChannel@@IAEGHPBE0@Z 0041bfd0 f   IVRChannel.obj
 0001:0001b3f0       ?NF_016@CIVRChannel@@IAEGHPBE0@Z 0041c3f0 f   IVRChannel.obj
 0001:0001bdc0       ?NF_017@CIVRChannel@@IAEGHPBE0@Z 0041cdc0 f   IVRChannel.obj
 0001:0001c060       ?NF_018@CIVRChannel@@IAEGHPBE0@Z 0041d060 f   IVRChannel.obj
 0001:0001c100       ?NF_019@CIVRChannel@@IAEGHPBE0@Z 0041d100 f   IVRChannel.obj
 0001:0001c220       ?NF_020@CIVRChannel@@IAEGHPBE0@Z 0041d220 f   IVRChannel.obj
 0001:0001c320       ?NF_021@CIVRChannel@@IAEGHPBE0@Z 0041d320 f   IVRChannel.obj
 0001:0001d680       ?NF_022@CIVRChannel@@IAEGHPBE0@Z 0041e680 f   IVRChannel.obj
 0001:0001df40       ?NF_023@CIVRChannel@@IAEGHPBE0@Z 0041ef40 f   IVRChannel.obj
 0001:0001e100       ?NF_028@CIVRChannel@@IAEGHPBE0@Z 0041f100 f   IVRChannel.obj
 0001:0001ece0       ?NF_030@CIVRChannel@@IAEGHPBE0@Z 0041fce0 f   IVRChannel.obj
 0001:0001f370       ?NF_040@CIVRChannel@@IAEGHPBE0@Z 00420370 f   IVRChannel.obj
 0001:0001f610       ?GetRecordNumber@CIVRChannel@@QAEHPBDG@Z 00420610 f   IVRChannel.obj
 0001:0001f800       ?CloseRecordFile@CIVRChannel@@QAEHPAD@Z 00420800 f   IVRChannel.obj
 0001:0001fc20       ?DeleteRecordFile@CIVRChannel@@QAEHPAD@Z 00420c20 f   IVRChannel.obj
 0001:0001ffd0       ?NF_041@CIVRChannel@@IAEGHPBE0@Z 00420fd0 f   IVRChannel.obj
 0001:000222f0       ?NF_050@CIVRChannel@@IAEGHPBE0@Z 004232f0 f   IVRChannel.obj
 0001:00023120       ?NF_051@CIVRChannel@@IAEGHPBE0@Z 00424120 f   IVRChannel.obj
 0001:000231e0       ?NF_055@CIVRChannel@@IAEGHPBE0@Z 004241e0 f   IVRChannel.obj
 0001:00023eb0       ?NF_060@CIVRChannel@@IAEGHPBE0@Z 00424eb0 f   IVRChannel.obj
 0001:00024550       ?NF_061@CIVRChannel@@IAEGHPBE0@Z 00425550 f   IVRChannel.obj
 0001:00024fb0       ?NF_062@CIVRChannel@@IAEGHPBE0@Z 00425fb0 f   IVRChannel.obj
 0001:00025070       ?NF_063@CIVRChannel@@IAEGHPBE0@Z 00426070 f   IVRChannel.obj
 0001:00025130       ?NF_069@CIVRChannel@@IAEGHPBE0@Z 00426130 f   IVRChannel.obj
 0001:00025400       ?NF_070@CIVRChannel@@IAEGHPBE0@Z 00426400 f   IVRChannel.obj
 0001:00026040       ?NF_071@CIVRChannel@@IAEGHPBE0@Z 00427040 f   IVRChannel.obj
 0001:00026820       ?NF_080@CIVRChannel@@IAEGHPBE0@Z 00427820 f   IVRChannel.obj
 0001:00026950       ?NF_090@CIVRChannel@@IAEGHPBE0@Z 00427950 f   IVRChannel.obj
 0001:000278d0       ?NF_091@CIVRChannel@@IAEGHPBE0@Z 004288d0 f   IVRChannel.obj
 0001:00029890       ?NF_096@CIVRChannel@@IAEGHPBE0@Z 0042a890 f   IVRChannel.obj
 0001:00029d50       ?NF_100@CIVRChannel@@IAEGHPBE0@Z 0042ad50 f   IVRChannel.obj
 0001:00029f60       ?NF_101@CIVRChannel@@IAEGHPBE0@Z 0042af60 f   IVRChannel.obj
 0001:0002a4c0       ?NF_102@CIVRChannel@@IAEGHPBE0@Z 0042b4c0 f   IVRChannel.obj
 0001:0002b430       ?NF_GotoNode@CIVRChannel@@QAEHGG@Z 0042c430 f   IVRChannel.obj
 0001:0002b490       ?GetGroupNoWithLineNo@CIVRChannel@@AAEEG@Z 0042c490 f   IVRChannel.obj
 0001:0002b510       ?NF_CallIn@CIVRChannel@@QAEXEG@Z 0042c510 f   IVRChannel.obj
 0001:0002b780       ?NF_Find_WorkNode@CIVRChannel@@AAEJG@Z 0042c780 f   IVRChannel.obj
 0001:0002b860       ?NF_Find_Run@CIVRChannel@@AAEHXZ 0042c860 f   IVRChannel.obj
 0001:0002c400       ?ResetChData@CIVRChannel@@AAEXXZ 0042d400 f   IVRChannel.obj
 0001:0002c7b0       ?Destory@CIVRChannel@@QAEXXZ 0042d7b0 f   IVRChannel.obj
 0001:0002c7f0       ?GetChannelTIT@CIVRChannel@@QAEKXZ 0042d7f0 f   IVRChannel.obj
 0001:0002c880       ?SetBeginTime@CIVRChannel@@QAEXXZ 0042d880 f   IVRChannel.obj
 0001:0002c990       ?GetDuration@CIVRChannel@@QAEKXZ 0042d990 f   IVRChannel.obj
 0001:0002ca00       ?OpenCh@CIVRChannel@@QAEHXZ 0042da00 f   IVRChannel.obj
 0001:0002ca90       ?CloseCh@CIVRChannel@@QAEHXZ 0042da90 f   IVRChannel.obj
 0001:0002caf0       ?StartCh@CIVRChannel@@QAEHXZ 0042daf0 f   IVRChannel.obj
 0001:0002cbe0       ?StopCh@CIVRChannel@@QAEHXZ 0042dbe0 f   IVRChannel.obj
 0001:0002cc70       ?CTI_GetGCCRN@CIVRChannel@@QAEJXZ 0042dc70 f   IVRChannel.obj
 0001:0002cc90       ?CTI_SetGCCRN@CIVRChannel@@QAEJJ@Z 0042dc90 f   IVRChannel.obj
 0001:0002cce0       ?CTI_ClearCall@CIVRChannel@@QAEXXZ 0042dce0 f   IVRChannel.obj
 0001:0002cd50       ?CTI_UnsetChannelError@CIVRChannel@@QAEXXZ 0042dd50 f   IVRChannel.obj
 0001:0002cda0       ?CTI_SetChannelError@CIVRChannel@@QAEXXZ 0042dda0 f   IVRChannel.obj
 0001:0002ce10       ?CTI_ErrorHandler@CIVRChannel@@QAEHH@Z 0042de10 f   IVRChannel.obj
 0001:0002cf30       ?PropertyChanged@CIVRChannel@@QAEXEH@Z 0042df30 f   IVRChannel.obj
 0001:0002d0b0       ?SwitchToStationEx@CIVRChannel@@QAEHEK_N@Z 0042e0b0 f   IVRChannel.obj
 0001:0002d340       ?SetExitCode@CIVRChannel@@QAEXG@Z 0042e340 f   IVRChannel.obj
 0001:0002d3f0       ?TerminalAssert@CIVRChannel@@AAEHEGE@Z 0042e3f0 f   IVRChannel.obj
 0001:0002d5e0       ?CheckUserPassword@CIVRChannel@@QAEHPAE0G@Z 0042e5e0 f   IVRChannel.obj
 0001:0002d940       ?UpdateUserPassword@CIVRChannel@@QAEHPAE0G@Z 0042e940 f   IVRChannel.obj
 0001:0002dca0       ?ReadDigitsEx@CIVRChannel@@QAEHN@Z 0042eca0 f   IVRChannel.obj
 0001:0002ddb0       ?NF_RecordLastKey@CIVRChannel@@AAEXE@Z 0042edb0 f   IVRChannel.obj
 0001:0002de00       ?NF_EraseLastKey@CIVRChannel@@AAEX_N@Z 0042ee00 f   IVRChannel.obj
 0001:0002de90       ?GetResourcePathWithID@CIVRChannel@@AAEPADGPAD@Z 0042ee90 f   IVRChannel.obj
 0001:0002e000       ?GetVoiceFilePlayLength@CIVRChannel@@AAEGG@Z 0042f000 f   IVRChannel.obj
 0001:0002e2b0       ?WaitForStartupToComplete@CIVRChannel@@AAEHXZ 0042f2b0 f   IVRChannel.obj
 0001:0002e350       ?WaitForShutdownToComplete@CIVRChannel@@AAEXXZ 0042f350 f   IVRChannel.obj
 0001:0002e3c0       ?CallFlowProcess@CIVRChannel@@IAEHXZ 0042f3c0 f   IVRChannel.obj
 0001:0002e510       ?Run@CIVRChannel@@MAEHXZ   0042f510 f   IVRChannel.obj
 0001:0002e6f0       ?MQ_SendMsg_InitChannel@CIVRChannel@@QAEHXZ 0042f6f0 f   IVRChannel.obj
 0001:0002e8c0       ?MQ_SendMsg_DropChannel@CIVRChannel@@QAEHXZ 0042f8c0 f   IVRChannel.obj
 0001:0002ea90       ?MQ_SendMsg_SetCallWaiting@CIVRChannel@@AAEHPBDH@Z 0042fa90 f   IVRChannel.obj
 0001:0002ec90       ?MQ_SendMsg_Singlestep@CIVRChannel@@AAEHPBD@Z 0042fc90 f   IVRChannel.obj
 0001:0002eeb0       ?MQ_SendMsg_CallOut@CIVRChannel@@AAEHPBD@Z 0042feb0 f   IVRChannel.obj
 0001:0002f0c0       ?MQ_SendMsg_CallClear@CIVRChannel@@AAEHXZ 004300c0 f   IVRChannel.obj
 0001:0002f290       ?MQ_SendMsg_QueryQueuePosition@CIVRChannel@@AAEHG@Z 00430290 f   IVRChannel.obj
 0001:0002f4a0       ?MQ_SendMsg_QueryAgentStatus@CIVRChannel@@AAEHEKPBD@Z 004304a0 f   IVRChannel.obj
 0001:0002f6b0       ?MQ_SendMsg_QueryRoutePoint@CIVRChannel@@AAEHEG@Z 004306b0 f   IVRChannel.obj
 0001:0002f8a0       ?MQ_SendMsg_StatusReport@CIVRChannel@@AAEHXZ 004308a0 f   IVRChannel.obj
 0001:0002faa0       ?MQ_SendMsg_NodeTransfer@CIVRChannel@@AAEHGPBD@Z 00430aa0 f   IVRChannel.obj
 0001:0002fc90       ?MQ_SendMsg_AddQueueTask@CIVRChannel@@AAEHK@Z 00430c90 f   IVRChannel.obj
 0001:0002ff30       ?MQ_SendMsg_RemoveQueueTask@CIVRChannel@@AAEHPBDKK@Z 00430f30 f   IVRChannel.obj
 0001:00030180       ?MQ_SendMsg_PauseQueueTask@CIVRChannel@@AAEHPBDKK@Z 00431180 f   IVRChannel.obj
 0001:000303a0       ?MQ_SendMsg_DispatchTaskReqAck@CIVRChannel@@AAEHPBDKE@Z 004313a0 f   IVRChannel.obj
 0001:000305b0       ?MQ_SendMsg_ContinueQueueTask@CIVRChannel@@AAEHPBDKK@Z 004315b0 f   IVRChannel.obj
 0001:000307d0       ?MQ_SendMsg_FinishQueueTask@CIVRChannel@@AAEHPBDKK@Z 004317d0 f   IVRChannel.obj
 0001:00030a20       ?ReadTextFile@CIVRChannel@@AAEHPBDAAV?$CStringT@DV?$StrTraitMFC_DLL@DV?$ChTraitsCRT@D@ATL@@@@@ATL@@@Z 00431a20 f   IVRChannel.obj
 0001:00030c20       ?FillupCallBindedData@CIVRChannel@@AAEXPAD0@Z 00431c20 f   IVRChannel.obj
 0001:00030f60       ?FillupExtReceiveData@CIVRChannel@@AAEXPAUSData2_096@@PAE@Z 00431f60 f   IVRChannel.obj
 0001:00031150       ?FillupExtSendData@CIVRChannel@@AAEHPAUSData1_096@@PAUSData2_096@@PAD@Z 00432150 f   IVRChannel.obj
 0001:00031290       ?SendExternMsg@CIVRChannel@@QAEHGEPBDH@Z 00432290 f   IVRChannel.obj
 0001:000313e0       ?SendExtOBResult@CIVRChannel@@QAEHE@Z 004323e0 f   IVRChannel.obj
 0001:000314d0       ?UnLinkOBChannel@CIVRChannel@@AAEHXZ 004324d0 f   IVRChannel.obj
 0001:000315a0       ??_GCIVRCH_Collection@@UAEPAXI@Z 004325a0 f i IVRChannel.obj
 0001:000315a0       ??_ECIVRCH_Collection@@UAEPAXI@Z 004325a0 f i IVRChannel.obj
 0001:000315e0       ??_ECIVRChannel@@UAEPAXI@Z 004325e0 f i IVRChannel.obj
 0001:000315e0       ??_GCIVRChannel@@UAEPAXI@Z 004325e0 f i IVRChannel.obj
 0001:00031620       ?SetTickTime@CIVRChannel@@IAEXXZ 00432620 f i IVRChannel.obj
 0001:00031660       ?GetNeedCTI@CIVRGroup@@QAEHXZ 00432660 f i IVRChannel.obj
 0001:00031680       ?GetStarted@CIVRChannel@@QAEHXZ 00432680 f i IVRChannel.obj
 0001:000316a0       ?GetTickTime@CIVRChannel@@IAEKXZ 004326a0 f i IVRChannel.obj
 0001:000316c0       ?GetUserVars@CIVRGroup@@QAEEE@Z 004326c0 f i IVRChannel.obj
 0001:000316f0       ?GetRootNode@CIVRGroup@@QAEGE@Z 004326f0 f i IVRChannel.obj
 0001:00031720       ??4_bstr_t@@QAEAAV0@PBD@Z  00432720 f i IVRChannel.obj
 0001:000317d0       ??4_bstr_t@@QAEAAV0@PBG@Z  004327d0 f i IVRChannel.obj
 0001:00031880       ?GetExitCode@CIVRChannel@@QAEGXZ 00432880 f i IVRChannel.obj
 0001:000318a0       ??B_bstr_t@@QBEPADXZ       004328a0 f i IVRChannel.obj
 0001:000318a0       ??B_bstr_t@@QBEPBDXZ       004328a0 f i IVRChannel.obj
 0001:000318f0       ??0Data_t@_bstr_t@@QAE@PBG@Z 004328f0 f i IVRChannel.obj
 0001:00031960       ?GetString@Data_t@_bstr_t@@QBEPBDXZ 00432960 f i IVRChannel.obj
 0001:000319a0       ?GetLineNO@CIVRChannel@@QAEGXZ 004329a0 f i IVRChannel.obj
 0001:000319c0       ??4_bstr_t@@QAEAAV0@ABV0@@Z 004329c0 f i IVRChannel.obj
 0001:00031a10       ?_AddRef@_bstr_t@@AAEXXZ   00432a10 f i IVRChannel.obj
 0001:00031a40       ?AddRef@Data_t@_bstr_t@@QAEKXZ 00432a40 f i IVRChannel.obj
 0001:00031a80       ??1_com_error@@UAE@XZ      00432a80 f i IVRChannel.obj
 0001:00031af0       ??_E_com_error@@UAEPAXI@Z  00432af0 f i IVRChannel.obj
 0001:00031af0       ??_G_com_error@@UAEPAXI@Z  00432af0 f i IVRChannel.obj
 0001:00031b30       ?ErrorMessage@_com_error@@QBEPBDXZ 00432b30 f i IVRChannel.obj
 0001:00031c90       ?WCode@_com_error@@QBEGXZ  00432c90 f i IVRChannel.obj
 0001:00031cc0       ?HRESULTToWCode@_com_error@@SAGJ@Z 00432cc0 f i IVRChannel.obj
 0001:00031d00       ?GetIVRProgramID@CIVRGroup@@QAEEXZ 00432d00 f i IVRChannel.obj
 0001:00031d20       ?GetCurrentETID@CIVRGroup@@QAEEXZ 00432d20 f i IVRChannel.obj
 0001:00031d40       ?GetRCN@CIVRGroup@@QAEJE@Z 00432d40 f i IVRChannel.obj
 0001:00031d70       ?GetIsBindFaxRes@CIVRGroup@@QAEHXZ 00432d70 f i IVRChannel.obj
 0001:00031d90       ?GetCallRefID@CIVRChannel@@QAEKXZ 00432d90 f i IVRChannel.obj
 0001:00031db0       ??9ATL@@YA_NABV?$CStringT@DV?$StrTraitMFC_DLL@DV?$ChTraitsCRT@D@ATL@@@@@0@0@Z 00432db0 f i IVRChannel.obj
 0001:00031df0       ??MATL@@YA_NABV?$CStringT@DV?$StrTraitMFC_DLL@DV?$ChTraitsCRT@D@ATL@@@@@0@0@Z 00432df0 f i IVRChannel.obj
 0001:00031e30       ??OATL@@YA_NABV?$CStringT@DV?$StrTraitMFC_DLL@DV?$ChTraitsCRT@D@ATL@@@@@0@0@Z 00432e30 f i IVRChannel.obj
 0001:00031e70       ??NATL@@YA_NABV?$CStringT@DV?$StrTraitMFC_DLL@DV?$ChTraitsCRT@D@ATL@@@@@0@0@Z 00432e70 f i IVRChannel.obj
 0001:00031eb0       ??PATL@@YA_NABV?$CStringT@DV?$StrTraitMFC_DLL@DV?$ChTraitsCRT@D@ATL@@@@@0@0@Z 00432eb0 f i IVRChannel.obj
 0001:00031ef0       ??0?$CMap@KKPAVCIVRChannel@@PAV1@@@QAE@H@Z 00432ef0 f i IVRChannel.obj
 0001:00031fb0       ?GetCount@?$CMap@JJPAVCFaxResource@@PAV1@@@QBEHXZ 00432fb0 f i FaxManager.obj
 0001:00031fb0       ?GetCount@?$CMap@KKPAVCIVRChannel@@PAV1@@@QBEHXZ 00432fb0 f i IVRChannel.obj
 0001:00031fd0       ?Lookup@?$CMap@KKPAVCIVRChannel@@PAV1@@@QBEHKAAPAVCIVRChannel@@@Z 00432fd0 f i IVRChannel.obj
 0001:000320a0       ?SetAt@?$CMap@KKPAVCIVRChannel@@PAV1@@@QAEXKPAVCIVRChannel@@@Z 004330a0 f i IVRChannel.obj
 0001:000320d0       ?RemoveKey@?$CMap@KKPAVCIVRChannel@@PAV1@@@QAEHK@Z 004330d0 f i IVRChannel.obj
 0001:000321a0       ?RemoveAll@?$CMap@KKPAVCIVRChannel@@PAV1@@@QAEXXZ 004331a0 f i IVRChannel.obj
 0001:00032270       ??1?$CMap@KKPAVCIVRChannel@@PAV1@@@UAE@XZ 00433270 f i IVRChannel.obj
 0001:000322f0       ?Serialize@?$CMap@KKPAVCIVRChannel@@PAV1@@@UAEXAAVCArchive@@@Z 004332f0 f i IVRChannel.obj
 0001:00032490       ?Dump@?$CMap@KKPAVCIVRChannel@@PAV1@@@UBEXAAVCDumpContext@@@Z 00433490 f i IVRChannel.obj
 0001:000325b0       ?AssertValid@?$CMap@KKPAVCIVRChannel@@PAV1@@@UBEXXZ 004335b0 f i IVRChannel.obj
 0001:00032620       ??_E?$CMap@KKPAVCIVRChannel@@PAV1@@@UAEPAXI@Z 00433620 f i IVRChannel.obj
 0001:00032620       ??_G?$CMap@KKPAVCIVRChannel@@PAV1@@@UAEPAXI@Z 00433620 f i IVRChannel.obj
 0001:00032660       ??A?$CMap@KKPAVCIVRChannel@@PAV1@@@QAEAAPAVCIVRChannel@@K@Z 00433660 f i IVRChannel.obj
 0001:00032770       ?GetNextAssoc@?$CMap@KKPAVCIVRChannel@@PAV1@@@QBEXAAPAU__POSITION@@AAKAAPAVCIVRChannel@@@Z 00433770 f i IVRChannel.obj
 0001:000328e0       ?FreeAssoc@?$CMap@KKPAVCIVRChannel@@PAV1@@@IAEXPAVCAssoc@1@@Z 004338e0 f i IVRChannel.obj
 0001:00032950       ?GetAssocAt@?$CMap@KKPAVCIVRChannel@@PAV1@@@IBEPAVCAssoc@1@KAAI0@Z 00433950 f i IVRChannel.obj
 0001:000329f0       ??$CompareElements@KK@@YGHPBK0@Z 004339f0 f i IVRChannel.obj
 0001:00032a60       ??$SerializeElements@K@@YGXAAVCArchive@@PAKH@Z 00433a60 f i IVRChannel.obj
 0001:00032b90       ??$SerializeElements@PAVCIVRChannel@@@@YGXAAVCArchive@@PAPAVCIVRChannel@@H@Z 00433b90 f i IVRChannel.obj
 0001:00032cc0       ??$DumpElements@K@@YGXAAVCDumpContext@@PBKH@Z 00433cc0 f i IVRChannel.obj
 0001:00032d00       ??$DumpElements@PAVCIVRChannel@@@@YGXAAVCDumpContext@@PBQAVCIVRChannel@@H@Z 00433d00 f i IVRChannel.obj
 0001:00032d40       ?InitHashTable@?$CMap@KKPAVCIVRChannel@@PAV1@@@QAEXIH@Z 00433d40 f i IVRChannel.obj
 0001:00032e30       ?NewAssoc@?$CMap@KKPAVCIVRChannel@@PAV1@@@IAEPAVCAssoc@1@K@Z 00433e30 f i IVRChannel.obj
 0001:00032fd0       ??_ECIVRChannel@@W7AEPAXI@Z 00433fd0 f i IVRChannel.obj
 0001:00032fe0       ??0CIVRClient_Admin@@QAE@XZ 00433fe0 f   IVRClient_Admin.obj
 0001:00033030       ??1CIVRClient_Admin@@UAE@XZ 00434030 f   IVRClient_Admin.obj
 0001:00033060       ?GetVersion@CIVRClient_Admin@@QAEEXZ 00434060 f   IVRClient_Admin.obj
 0001:00033080       ?SetVersion@CIVRClient_Admin@@QAEXE@Z 00434080 f   IVRClient_Admin.obj
 0001:000330b0       ?GetConnected@CIVRClient_Admin@@QAEPAXXZ 004340b0 f   IVRClient_Admin.obj
 0001:00033100       ?SetConnected@CIVRClient_Admin@@QAEXPAX@Z 00434100 f   IVRClient_Admin.obj
 0001:00033150       ?SetDisconnected@CIVRClient_Admin@@QAEXXZ 00434150 f   IVRClient_Admin.obj
 0001:000331a0       ?ProcessTCPMessage@CIVRClient_Admin@@QAEHUSMsgHeader@@PBE@Z 004341a0 f   IVRClient_Admin.obj
 0001:000342c0       ??_ECIVRClient_Admin@@UAEPAXI@Z 004352c0 f i IVRClient_Admin.obj
 0001:000342c0       ??_GCIVRClient_Admin@@UAEPAXI@Z 004352c0 f i IVRClient_Admin.obj
 0001:00034300       ?GetStartCH@CIVRGroup@@QAEGXZ 00435300 f i IVRClient_Admin.obj
 0001:00034320       ?GetEndCH@CIVRGroup@@QAEGXZ 00435320 f i IVRClient_Admin.obj
 0001:00034340       ??0CIVRClient_MSI@@QAE@K@Z 00435340 f   IVRClient_MSI.obj
 0001:00034390       ??1CIVRClient_MSI@@UAE@XZ  00435390 f   IVRClient_MSI.obj
 0001:000343c0       ?GetAgentID@CIVRClient_MSI@@QAEKXZ 004353c0 f   IVRClient_MSI.obj
 0001:000343e0       ?GetVersion@CIVRClient_MSI@@QAEEXZ 004353e0 f   IVRClient_MSI.obj
 0001:00034400       ?SetVersion@CIVRClient_MSI@@QAEXE@Z 00435400 f   IVRClient_MSI.obj
 0001:00034430       ?GetConnected@CIVRClient_MSI@@QAEPAXXZ 00435430 f   IVRClient_MSI.obj
 0001:00034480       ?SetConnected@CIVRClient_MSI@@QAEXPAX@Z 00435480 f   IVRClient_MSI.obj
 0001:000344d0       ?SetDisconnected@CIVRClient_MSI@@QAEXXZ 004354d0 f   IVRClient_MSI.obj
 0001:00034520       ?ProcessTCPMessage@CIVRClient_MSI@@QAEHUSMsgHeader@@PBE@Z 00435520 f   IVRClient_MSI.obj
 0001:000345e0       ??_GCIVRClient_MSI@@UAEPAXI@Z 004355e0 f i IVRClient_MSI.obj
 0001:000345e0       ??_ECIVRClient_MSI@@UAEPAXI@Z 004355e0 f i IVRClient_MSI.obj
 0001:00034620       ??0CIVRObject@@QAE@XZ      00435620 f   IVRGroup.obj
 0001:00034650       ??1CIVRObject@@UAE@XZ      00435650 f   IVRGroup.obj
 0001:00034670       ??0CIVRGroup@@QAE@XZ       00435670 f   IVRGroup.obj
 0001:00034950       ??1CIVRGroup@@UAE@XZ       00435950 f   IVRGroup.obj
 0001:00034b60       ?SetStarted@CIVRGroup@@QAEXH@Z 00435b60 f   IVRGroup.obj
 0001:00034ba0       ?Create@CIVRGroup@@QAEXE@Z 00435ba0 f   IVRGroup.obj
 0001:00034c70       ?GetStarted@CIVRGroup@@QAEHXZ 00435c70 f   IVRGroup.obj
 0001:00034c90       ?IncreaseCallCount@CIVRGroup@@QAEXXZ 00435c90 f   IVRGroup.obj
 0001:00034ce0       ?GetAutoLoadCallFlow@CIVRGroup@@QAEHAAVCTime@ATL@@PAEAAV?$CStringT@DV?$StrTraitMFC_DLL@DV?$ChTraitsCRT@D@ATL@@@@@3@@Z 00435ce0 f   IVRGroup.obj
 0001:00034d70       ?SetAutoLoadCallFlow@CIVRGroup@@QAEXHVCTime@ATL@@EPBD@Z 00435d70 f   IVRGroup.obj
 0001:00034e00       ?GetAutoLoadResource@CIVRGroup@@QAEHAAVCTime@ATL@@PAG@Z 00435e00 f   IVRGroup.obj
 0001:00034e70       ?SetAutoLoadResource@CIVRGroup@@QAEXHVCTime@ATL@@G@Z 00435e70 f   IVRGroup.obj
 0001:00034ee0       ?CheckAutomaticTimer@CIVRGroup@@QAEXH@Z 00435ee0 f   IVRGroup.obj
 0001:000351d0       ?ExecuteSQLStatement@CIVRGroup@@QAEHV?$CStringT@DV?$StrTraitMFC_DLL@DV?$ChTraitsCRT@D@ATL@@@@@ATL@@@Z 004361d0 f   IVRGroup.obj
 0001:00035280       ?InitDefaultET@CIVRGroup@@AAEHXZ 00436280 f   IVRGroup.obj
 0001:00035700       ?LoadDefaultET@CIVRGroup@@IAEHXZ 00436700 f   IVRGroup.obj
 0001:00035800       ?LoadIVRProgram@CIVRGroup@@IAEHXZ 00436800 f   IVRGroup.obj
 0001:00035860       ?GetIVRProgramName@CIVRGroup@@IAEHXZ 00436860 f   IVRGroup.obj
 0001:00035d90       ?SetIVRProgramID@CIVRGroup@@QAEXE@Z 00436d90 f   IVRGroup.obj
 0001:00035de0       ?SetResourcePrjID@CIVRGroup@@QAEXG@Z 00436de0 f   IVRGroup.obj
 0001:00035e30       ?SetEnabled@CIVRGroup@@QAEXH@Z 00436e30 f   IVRGroup.obj
 0001:00035e80       ?SetNeedCTI@CIVRGroup@@QAEXH@Z 00436e80 f   IVRGroup.obj
 0001:00035ec0       ?SetIsOBOnly@CIVRGroup@@QAEXH@Z 00436ec0 f   IVRGroup.obj
 0001:00035ef0       ?SetIsBindFaxRes@CIVRGroup@@QAEXH@Z 00436ef0 f   IVRGroup.obj
 0001:00035f20       ?SetCTIRoutePointID@CIVRGroup@@QAEXK@Z 00436f20 f   IVRGroup.obj
 0001:00035f50       ?GetIsMonitorred@CIVRGroup@@QAEHXZ 00436f50 f   IVRGroup.obj
 0001:00035f70       ?SetIsMonitorred@CIVRGroup@@QAEXH@Z 00436f70 f   IVRGroup.obj
 0001:00035fd0       ?GetMonitorChannel@CIVRGroup@@QAEHXZ 00436fd0 f   IVRGroup.obj
 0001:00035ff0       ?SetMonitorChannel@CIVRGroup@@QAEEH@Z 00436ff0 f   IVRGroup.obj
 0001:00036100       ?SetUnMonitorChannel@CIVRGroup@@QAEEH@Z 00437100 f   IVRGroup.obj
 0001:000361c0       ?InitializeChannels@CIVRGroup@@QAEXXZ 004371c0 f   IVRGroup.obj
 0001:000362b0       ?SetCaption@CIVRGroup@@QAEXV?$CStringT@DV?$StrTraitMFC_DLL@DV?$ChTraitsCRT@D@ATL@@@@@ATL@@@Z 004372b0 f   IVRGroup.obj
 0001:00036370       ?SetIVRFileName@CIVRGroup@@QAEXV?$CStringT@DV?$StrTraitMFC_DLL@DV?$ChTraitsCRT@D@ATL@@@@@ATL@@@Z 00437370 f   IVRGroup.obj
 0001:00036430       ?SetIVRProgramCaption@CIVRGroup@@QAEXV?$CStringT@DV?$StrTraitMFC_DLL@DV?$ChTraitsCRT@D@ATL@@@@@ATL@@@Z 00437430 f   IVRGroup.obj
 0001:000364f0       ?SetStartCH@CIVRGroup@@QAEXG@Z 004374f0 f   IVRGroup.obj
 0001:00036610       ?SetEndCH@CIVRGroup@@QAEXG@Z 00437610 f   IVRGroup.obj
 0001:00036720       ?GetFlagCH@CIVRGroup@@QAEGXZ 00437720 f   IVRGroup.obj
 0001:00036780       ?SetFlagCH@CIVRGroup@@QAEXG@Z 00437780 f   IVRGroup.obj
 0001:000367b0       ?MoveToNextFlagCH@CIVRGroup@@QAEPAVCIVRChannel@@XZ 004377b0 f   IVRGroup.obj
 0001:000369b0       ?LoadIVRProgramFromDB@CIVRGroup@@IAEHXZ 004379b0 f   IVRGroup.obj
 0001:000389f0       ?LoadIVRProgramFromFile@CIVRGroup@@IAEHXZ 004399f0 f   IVRGroup.obj
 0001:000392c0       ?Init_SelectET@CIVRGroup@@QAEHXZ 0043a2c0 f   IVRGroup.obj
 0001:00039390       ?NF_000@CIVRGroup@@IAEGPBE@Z 0043a390 f   IVRGroup.obj
 0001:000394e0       ?NF_001@CIVRGroup@@IAEGPBE@Z 0043a4e0 f   IVRGroup.obj
 0001:000395f0       ?NF_002@CIVRGroup@@IAEGEPBE@Z 0043a5f0 f   IVRGroup.obj
 0001:00039740       ?InitIVRGroup@CIVRGroup@@QAEHXZ 0043a740 f   IVRGroup.obj
 0001:000398b0       ?LoadResourceMap@CIVRGroup@@QAEHXZ 0043a8b0 f   IVRGroup.obj
 0001:00039e70       ?LoadResourceMap@CIVRGroup@@QAEHG@Z 0043ae70 f   IVRGroup.obj
 0001:0003a720       ?PropertyChanged@CIVRGroup@@QAEXEH@Z 0043b720 f   IVRGroup.obj
 0001:0003a780       ?GetMinGCTIT@CIVRGroup@@QAEKXZ 0043b780 f   IVRGroup.obj
 0001:0003a7a0       ?SetMinGCTIT@CIVRGroup@@QAEXK@Z 0043b7a0 f   IVRGroup.obj
 0001:0003a7c0       ?CalculateGCTIT@CIVRGroup@@QAEXXZ 0043b7c0 f   IVRGroup.obj
 0001:0003a870       ?StartGroup@CIVRGroup@@QAEHH@Z 0043b870 f   IVRGroup.obj
 0001:0003a9f0       ?StopGroup@CIVRGroup@@QAEHH@Z 0043b9f0 f   IVRGroup.obj
 0001:0003aae0       ?MQ_SendMsg_GroupMonitorAck@CIVRGroup@@QAEHHE@Z 0043bae0 f   IVRGroup.obj
 0001:0003acb0       ?MQ_SendMsg_GroupPropName@CIVRGroup@@QAEHXZ 0043bcb0 f   IVRGroup.obj
 0001:0003af80       ?MQ_SendMsg_GroupPropCallFlow@CIVRGroup@@QAEHXZ 0043bf80 f   IVRGroup.obj
 0001:0003b160       ?MQ_SendMsg_GroupPropResource@CIVRGroup@@QAEHXZ 0043c160 f   IVRGroup.obj
 0001:0003b310       ?MQ_SendMsg_ChannelStart@CIVRGroup@@QAEHGPBD@Z 0043c310 f   IVRGroup.obj
 0001:0003b4d0       ?MQ_SendMsg_ChannelStop@CIVRGroup@@QAEHG@Z 0043c4d0 f   IVRGroup.obj
 0001:0003b680       ??_ECIVRObject@@UAEPAXI@Z  0043c680 f i IVRGroup.obj
 0001:0003b680       ??_GCIVRObject@@UAEPAXI@Z  0043c680 f i IVRGroup.obj
 0001:0003b6c0       ??_GCIVRGroup@@UAEPAXI@Z   0043c6c0 f i IVRGroup.obj
 0001:0003b6c0       ??_ECIVRGroup@@UAEPAXI@Z   0043c6c0 f i IVRGroup.obj
 0001:0003b700       ?AlterET@CIVRGroup@@QAEXXZ 0043c700 f i IVRGroup.obj
 0001:0003b730       ?SetRootNode@CIVRGroup@@QAEXEG@Z 0043c730 f i IVRGroup.obj
 0001:0003b760       ?SetRCN@CIVRGroup@@QAEXEJ@Z 0043c760 f i IVRGroup.obj
 0001:0003b790       ?GetGroupNO@CIVRGroup@@QAEEXZ 0043c790 f i IVRGroup.obj
 0001:0003b7b0       ?GetEnabled@CIVRGroup@@QAEHXZ 0043c7b0 f i IVRGroup.obj
 0001:0003b7d0       ??$?0V?$_com_IIID@U_Recordset@@$1?_GUID_00000556_0000_0010_8000_00aa006d2ea4@@3U__s_GUID@@B@@@?$_com_ptr_t@V?$_com_IIID@U_Recordset@@$1?_GUID_00000556_0000_0010_8000_00aa006d2ea4@@3U__s_GUID@@B@@@@QAE@ABV0@@Z 0043c7d0 f i IVRGroup.obj
 0001:0003b810       ??0_bstr_t@@QAE@ABV0@@Z    0043c810 f i IVRGroup.obj
 0001:0003b850       ??0_bstr_t@@QAE@PBG@Z      0043c850 f i IVRGroup.obj
 0001:0003b900       ?MoveFirst@Recordset15@@QAEJXZ 0043c900 f i IVRGroup.obj
 0001:0003b960       ??0CListenSocket@@QAE@XZ   0043c960 f   ListenSocket.obj
 0001:0003b9a0       ??1CListenSocket@@UAE@XZ   0043c9a0 f   ListenSocket.obj
 0001:0003b9d0       ?OnAccept@CListenSocket@@UAEXH@Z 0043c9d0 f   ListenSocket.obj
 0001:0003bbf0       ??_ECListenSocket@@UAEPAXI@Z 0043cbf0 f i ListenSocket.obj
 0001:0003bbf0       ??_GCListenSocket@@UAEPAXI@Z 0043cbf0 f i ListenSocket.obj
 0001:0003bc30       ?CreateObject@CIVRGroupView@@SGPAVCObject@@XZ 0043cc30 f   MainFrm.obj
 0001:0003bcc0       ?_GetBaseClass@CIVRGroupView@@KGPAUCRuntimeClass@@XZ 0043ccc0 f   MainFrm.obj
 0001:0003bce0       ?GetThisClass@CIVRGroupView@@SGPAUCRuntimeClass@@XZ 0043cce0 f   MainFrm.obj
 0001:0003bcf0       ?GetRuntimeClass@CIVRGroupView@@UBEPAUCRuntimeClass@@XZ 0043ccf0 f   MainFrm.obj
 0001:0003bd10       ?GetThisMessageMap@CIVRGroupView@@KGPBUAFX_MSGMAP@@XZ 0043cd10 f   MainFrm.obj
 0001:0003bd20       ?GetMessageMap@CIVRGroupView@@MBEPBUAFX_MSGMAP@@XZ 0043cd20 f   MainFrm.obj
 0001:0003bd40       ??0CIVRGroupView@@IAE@XZ   0043cd40 f   MainFrm.obj
 0001:0003bd90       ??1CIVRGroupView@@UAE@XZ   0043cd90 f   MainFrm.obj
 0001:0003be40       ?OnDraw@CIVRGroupView@@UAEXPAVCDC@@@Z 0043ce40 f   MainFrm.obj
 0001:0003be60       ?OnInitialUpdate@CIVRGroupView@@UAEXXZ 0043ce60 f   MainFrm.obj
 0001:0003be90       ?OnItemchanged@CIVRGroupView@@IAEXPAUtagNMHDR@@PAJ@Z 0043ce90 f   MainFrm.obj
 0001:0003bf20       ?WindowProc@CIVRGroupView@@MAEJIIJ@Z 0043cf20 f   MainFrm.obj
 0001:0003c040       ?InitMainForm@CIVRGroupView@@AAEXXZ 0043d040 f   MainFrm.obj
 0001:0003c410       ?FindListCtrlItem@CIVRGroupView@@AAEHPAVCListCtrl@@V?$CStringT@DV?$StrTraitMFC_DLL@DV?$ChTraitsCRT@D@ATL@@@@@ATL@@PAH@Z 0043d410 f   MainFrm.obj
 0001:0003c580       ?SetShowGroupNo@CIVRGroupView@@QAEXH@Z 0043d580 f   MainFrm.obj
 0001:0003c600       ?Screen_ClearAllItems@CIVRGroupView@@QAEXXZ 0043d600 f   MainFrm.obj
 0001:0003c650       ?Screen_Initialize_ListItmes@CIVRGroupView@@QAEXXZ 0043d650 f   MainFrm.obj
 0001:0003c6c0       ?Screen_ChangeListItemProgram@CIVRGroupView@@QAEHI@Z 0043d6c0 f   MainFrm.obj
 0001:0003ca30       ?Screen_ChangeListItemResource@CIVRGroupView@@QAEHI@Z 0043da30 f   MainFrm.obj
 0001:0003cc40       ?Screen_ChangeListItemCallCount@CIVRGroupView@@QAEHI@Z 0043dc40 f   MainFrm.obj
 0001:0003ce50       ?Screen_ChangeListItemNeedCTI@CIVRGroupView@@QAEHI@Z 0043de50 f   MainFrm.obj
 0001:0003d070       ?Screen_ChangeListItemIcon@CIVRGroupView@@QAEHI@Z 0043e070 f   MainFrm.obj
 0001:0003d2a0       ?Screen_DeleteGroup@CIVRGroupView@@QAEHI@Z 0043e2a0 f   MainFrm.obj
 0001:0003d410       ?Screen_InsertGroup@CIVRGroupView@@QAEHPAVCIVRGroup@@@Z 0043e410 f   MainFrm.obj
 0001:0003dc00       ?CreateObject@CMainFrame@@SGPAVCObject@@XZ 0043ec00 f   MainFrm.obj
 0001:0003dc90       ?_GetBaseClass@CMainFrame@@KGPAUCRuntimeClass@@XZ 0043ec90 f   MainFrm.obj
 0001:0003dcb0       ?GetThisClass@CMainFrame@@SGPAUCRuntimeClass@@XZ 0043ecb0 f   MainFrm.obj
 0001:0003dcc0       ?GetRuntimeClass@CMainFrame@@UBEPAUCRuntimeClass@@XZ 0043ecc0 f   MainFrm.obj
 0001:0003dce0       ?GetThisMessageMap@CMainFrame@@KGPBUAFX_MSGMAP@@XZ 0043ece0 f   MainFrm.obj
 0001:0003dcf0       ?GetMessageMap@CMainFrame@@MBEPBUAFX_MSGMAP@@XZ 0043ecf0 f   MainFrm.obj
 0001:0003dd10       ?OnSysReInitDevices@CMainFrame@@IAEJIJ@Z 0043ed10 f   MainFrm.obj
 0001:0003dd40       ?OnClientOnline@CMainFrame@@IAEJIJ@Z 0043ed40 f   MainFrm.obj
 0001:0003ddf0       ?OnClientOffline@CMainFrame@@IAEJIJ@Z 0043edf0 f   MainFrm.obj
 0001:0003de90       ?OnMoveProgressBar@CMainFrame@@IAEJIJ@Z 0043ee90 f   MainFrm.obj
 0001:0003dec0       ??0CMainFrame@@IAE@XZ      0043eec0 f   MainFrm.obj
 0001:0003e3a0       ??1CMainFrame@@MAE@XZ      0043f3a0 f   MainFrm.obj
 0001:0003e600       ?Screen_GetWindowPosition@CMainFrame@@AAEXPAH000@Z 0043f600 f   MainFrm.obj
 0001:0003e6e0       ?Screen_SetWindowPosition@CMainFrame@@AAEXHHHH@Z 0043f6e0 f   MainFrm.obj
 0001:0003e7a0       ?SB_PositionControl@CMainFrame@@QAEHPAVCWnd@@H@Z 0043f7a0 f   MainFrm.obj
 0001:0003e940       ?OnCreate@CMainFrame@@IAEHPAUtagCREATESTRUCTA@@@Z 0043f940 f   MainFrm.obj
 0001:0003f350       ?OnTrayNotification@CMainFrame@@QAEJIJ@Z 00440350 f   MainFrm.obj
 0001:0003f370       ?PreCreateWindow@CMainFrame@@UAEHAAUtagCREATESTRUCTA@@@Z 00440370 f   MainFrm.obj
 0001:0003f3c0       ?AssertValid@CMainFrame@@UBEXXZ 004403c0 f   MainFrm.obj
 0001:0003f3f0       ?Dump@CMainFrame@@UBEXAAVCDumpContext@@@Z 004403f0 f   MainFrm.obj
 0001:0003f420       ?OnCreateClient@CMainFrame@@MAEHPAUtagCREATESTRUCTA@@PAUCCreateContext@@@Z 00440420 f   MainFrm.obj
 0001:0003f580       ?RefreshMainMenuOnGroup@CMainFrame@@QAEXPAVCIVRGroup@@@Z 00440580 f   MainFrm.obj
 0001:0003f5f0       ?GetCTIOpened@CMainFrame@@QAEHXZ 004405f0 f   MainFrm.obj
 0001:0003f610       ?SetCTIOpened@CMainFrame@@QAEXH@Z 00440610 f   MainFrm.obj
 0001:0003f6a0       ?WriteStatusBar@CMainFrame@@QAEXHH@Z 004406a0 f   MainFrm.obj
 0001:0003f890       ?WriteStatusBar@CMainFrame@@QAEXPAD@Z 00440890 f   MainFrm.obj
 0001:0003f8d0       ?ProgressStep@CMainFrame@@QAEXXZ 004408d0 f   MainFrm.obj
 0001:0003f900       ?SetMainMenuStatus@CMainFrame@@QAEXH@Z 00440900 f   MainFrm.obj
 0001:0003fbd0       ?OnSize@CMainFrame@@IAEXIHH@Z 00440bd0 f   MainFrm.obj
 0001:0003fc20       ?DestroyWindow@CMainFrame@@UAEHXZ 00440c20 f   MainFrm.obj
 0001:0003fc60       ?OnRestore@CMainFrame@@IAEXXZ 00440c60 f   MainFrm.obj
 0001:0003fca0       ?OnExit@CMainFrame@@IAEXXZ 00440ca0 f   MainFrm.obj
 0001:0003fcd0       ?OnExeStart@CMainFrame@@IAEXXZ 00440cd0 f   MainFrm.obj
 0001:0003fde0       ?OnExeRestart@CMainFrame@@IAEXXZ 00440de0 f   MainFrm.obj
 0001:0003ff20       ?OnExeRestartAll@CMainFrame@@IAEXXZ 00440f20 f   MainFrm.obj
 0001:00040090       ?OnExeStartAll@CMainFrame@@IAEXXZ 00441090 f   MainFrm.obj
 0001:000401f0       ?OnExeStop@CMainFrame@@IAEXXZ 004411f0 f   MainFrm.obj
 0001:00040300       ?OnExeStopAll@CMainFrame@@IAEXXZ 00441300 f   MainFrm.obj
 0001:00040450       ?OnFileConfig@CMainFrame@@IAEXXZ 00441450 f   MainFrm.obj
 0001:00040560       ?OnFileLoadDb@CMainFrame@@IAEXXZ 00441560 f   MainFrm.obj
 0001:00040810       ?OnFileLoadFile@CMainFrame@@IAEXXZ 00441810 f   MainFrm.obj
 0001:00040c10       ?OnFileMruFile1@CMainFrame@@IAEXXZ 00441c10 f   MainFrm.obj
 0001:00040c30       ?OnUpdateRestore@CMainFrame@@IAEXPAVCCmdUI@@@Z 00441c30 f   MainFrm.obj
 0001:00040c70       ?OnHotKey@CMainFrame@@IAEJIJ@Z 00441c70 f   MainFrm.obj
 0001:00040cb0       ?HotKey_Install@CMainFrame@@AAEHID@Z 00441cb0 f   MainFrm.obj
 0001:00040d50       ?HotKey_Remove@CMainFrame@@AAEXI@Z 00441d50 f   MainFrm.obj
 0001:00040db0       ?OnClose@CMainFrame@@IAEXXZ 00441db0 f   MainFrm.obj
 0001:00040f00       ?Information_Init_SetSystemTones@CMainFrame@@AAEXV?$CStringT@DV?$StrTraitMFC_DLL@DV?$ChTraitsCRT@D@ATL@@@@@ATL@@H@Z 00441f00 f   MainFrm.obj
 0001:000413a0       ?Information_LoadIniSystemParamter@CMainFrame@@AAEHXZ 004423a0 f   MainFrm.obj
 0001:000439c0       ?Sys_StartSystem@CMainFrame@@QAEHXZ 004449c0 f   MainFrm.obj
 0001:00043fc0       ?Sys_StopSystem@CMainFrame@@QAEHXZ 00444fc0 f   MainFrm.obj
 0001:00044200       ?Sys_ReInitDevices@CMainFrame@@QAEHXZ 00445200 f   MainFrm.obj
 0001:00044240       ?Sys_ConnectEXTServer@CMainFrame@@QAEHXZ 00445240 f   MainFrm.obj
 0001:00044310       ?Sys_ConnectCTIServer@CMainFrame@@QAEHXZ 00445310 f   MainFrm.obj
 0001:000443e0       ?Sys_ConnectDataRecord@CMainFrame@@QAEHXZ 004453e0 f   MainFrm.obj
 0001:000444b0       ?Sys_AutoDetectVoiceDev@CMainFrame@@AAEHXZ 004454b0 f   MainFrm.obj
 0001:000444e0       ?Sys_InitializePhysicalDev@CMainFrame@@AAEHXZ 004454e0 f   MainFrm.obj
 0001:00044520       ?Sys_CreateWorkObjects@CMainFrame@@AAEHXZ 00445520 f   MainFrm.obj
 0001:00044970       ?MsgPrintf@CMainFrame@@QAAXIPADZZ 00445970 f   MainFrm.obj
 0001:00044a40       ?OnViewAllCh@CMainFrame@@IAEXXZ 00445a40 f   MainFrm.obj
 0001:00044b10       ?OnViewReport@CMainFrame@@IAEXXZ 00445b10 f   MainFrm.obj
 0001:00044ba0       ?OnUpdateExeRestart@CMainFrame@@IAEXPAVCCmdUI@@@Z 00445ba0 f   MainFrm.obj
 0001:00044c10       ?OnUpdateExeRestartAll@CMainFrame@@IAEXPAVCCmdUI@@@Z 00445c10 f   MainFrm.obj
 0001:00044c80       ?OnUpdateExeStart@CMainFrame@@IAEXPAVCCmdUI@@@Z 00445c80 f   MainFrm.obj
 0001:00044cf0       ?OnUpdateExeStartAll@CMainFrame@@IAEXPAVCCmdUI@@@Z 00445cf0 f   MainFrm.obj
 0001:00044d60       ?OnUpdateExeStop@CMainFrame@@IAEXPAVCCmdUI@@@Z 00445d60 f   MainFrm.obj
 0001:00044dd0       ?OnUpdateExeStopAll@CMainFrame@@IAEXPAVCCmdUI@@@Z 00445dd0 f   MainFrm.obj
 0001:00044e40       ?OnUpdateFileConfig@CMainFrame@@IAEXPAVCCmdUI@@@Z 00445e40 f   MainFrm.obj
 0001:00044e80       ?OnUpdateFileLoadDb@CMainFrame@@IAEXPAVCCmdUI@@@Z 00445e80 f   MainFrm.obj
 0001:00044ef0       ?OnUpdateFileLoadFile@CMainFrame@@IAEXPAVCCmdUI@@@Z 00445ef0 f   MainFrm.obj
 0001:00044f60       ?OnUpdateFileLoadResource@CMainFrame@@IAEXPAVCCmdUI@@@Z 00445f60 f   MainFrm.obj
 0001:00044fd0       ?OnFileLoadResource@CMainFrame@@IAEXXZ 00445fd0 f   MainFrm.obj
 0001:00045190       ?OnUpdateViewAllCh@CMainFrame@@IAEXPAVCCmdUI@@@Z 00446190 f   MainFrm.obj
 0001:000451d0       ?RecalcLayout@CMainFrame@@UAEXH@Z 004461d0 f   MainFrm.obj
 0001:00045220       ?MQ_SendMsg_Register@CMainFrame@@QAEHXZ 00446220 f   MainFrm.obj
 0001:00045540       ?MQ_SendMsg_Unregister@CMainFrame@@QAEHXZ 00446540 f   MainFrm.obj
 0001:00045650       ?MQ_SendExtMsg_Register@CMainFrame@@QAEHXZ 00446650 f   MainFrm.obj
 0001:00045790       ?MQ_SendExtMsg_Unregister@CMainFrame@@QAEHXZ 00446790 f   MainFrm.obj
 0001:000458a0       ?OnTimer@CMainFrame@@IAEXI@Z 004468a0 f   MainFrm.obj
 0001:00045bd0       ?OnViewLicInfo@CMainFrame@@IAEXXZ 00446bd0 f   MainFrm.obj
 0001:00045c80       ?OnTrunkSqllog@CMainFrame@@IAEXXZ 00446c80 f   MainFrm.obj
 0001:00045cd0       ?OnFileTimerLdCf@CMainFrame@@IAEXXZ 00446cd0 f   MainFrm.obj
 0001:00045fe0       ?OnUpdateFileTimerLdCf@CMainFrame@@IAEXPAVCCmdUI@@@Z 00446fe0 f   MainFrm.obj
 0001:00046000       ?OnFileTimerLdRes@CMainFrame@@IAEXXZ 00447000 f   MainFrm.obj
 0001:000462a0       ?OnUpdateFileTimerLdRes@CMainFrame@@IAEXPAVCCmdUI@@@Z 004472a0 f   MainFrm.obj
 0001:00046310       ?SelectChannelForRoutePoint@CMainFrame@@QAEPAVCIVRChannel@@H@Z 00447310 f   MainFrm.obj
 0001:00046460       ??_ECIVRGroupView@@UAEPAXI@Z 00447460 f i MainFrm.obj
 0001:00046460       ??_GCIVRGroupView@@UAEPAXI@Z 00447460 f i MainFrm.obj
 0001:000464a0       ??1CListView@@UAE@XZ       004474a0 f i MainFrm.obj
 0001:000464d0       ?GetIVRProgramCaption@CIVRGroup@@QAE?AV?$CStringT@DV?$StrTraitMFC_DLL@DV?$ChTraitsCRT@D@ATL@@@@@ATL@@XZ 004474d0 f i MainFrm.obj
 0001:00046530       ?GetResourcePrjID@CIVRGroup@@QAEGXZ 00447530 f i MainFrm.obj
 0001:00046550       ?GetCaption@CIVRGroup@@QAE?AV?$CStringT@DV?$StrTraitMFC_DLL@DV?$ChTraitsCRT@D@ATL@@@@@ATL@@XZ 00447550 f i MainFrm.obj
 0001:000465b0       ??_ECMainFrame@@MAEPAXI@Z  004475b0 f i MainFrm.obj
 0001:000465b0       ??_GCMainFrame@@MAEPAXI@Z  004475b0 f i MainFrm.obj
 0001:000465f0       ?GetShowGroupNo@CIVRGroupView@@QAEHXZ 004475f0 f i MainFrm.obj
 0001:00046610       ?GetIVRFileName@CIVRGroup@@QAE?AV?$CStringT@DV?$StrTraitMFC_DLL@DV?$ChTraitsCRT@D@ATL@@@@@ATL@@XZ 00447610 f i MainFrm.obj
 0001:00046670       ??0CCMEIVRServerInfo@@QAE@ABV0@@Z 00447670 f i MainFrm.obj
 0001:00046800       ??0CTTSServerInfo@@QAE@ABV0@@Z 00447800 f i MainFrm.obj
 0001:000469a0       ??_ECCMEIVRServerInfo@@UAEPAXI@Z 004479a0 f i MainFrm.obj
 0001:000469a0       ??_GCCMEIVRServerInfo@@UAEPAXI@Z 004479a0 f i MainFrm.obj
 0001:000469e0       ??_ECTTSServerInfo@@UAEPAXI@Z 004479e0 f i MainFrm.obj
 0001:000469e0       ??_GCTTSServerInfo@@UAEPAXI@Z 004479e0 f i MainFrm.obj
 0001:00046a20       ?SetDeviceNo@CIVRChannel@@QAEXV?$CStringT@DV?$StrTraitMFC_DLL@DV?$ChTraitsCRT@D@ATL@@@@@ATL@@@Z 00447a20 f i MainFrm.obj
 0001:00046aa0       ?SetMaxQueueTime@CIVRChannel@@QAEXG@Z 00447aa0 f i MainFrm.obj
 0001:00046ad0       ?SetMaxTryTimes@CIVRChannel@@QAEXE@Z 00447ad0 f i MainFrm.obj
 0001:00046af0       ?SetMaxPlayTime@CIVRChannel@@QAEXG@Z 00447af0 f i MainFrm.obj
 0001:00046b40       ?SetMaxFaxTime@CIVRChannel@@QAEXG@Z 00447b40 f i MainFrm.obj
 0001:00046b90       ?GetCTIRoutePointID@CIVRGroup@@QAEKXZ 00447b90 f i MainFrm.obj
 0001:00046bb0       ??0CMyDBReader@@QAE@XZ     00447bb0 f   MyDBReader.obj
 0001:00046c90       ??1CMyDBReader@@UAE@XZ     00447c90 f   MyDBReader.obj
 0001:00046d10       ?GetConnectionString@CMyDBReader@@QAE?AV?$CStringT@DV?$StrTraitMFC_DLL@DV?$ChTraitsCRT@D@ATL@@@@@ATL@@XZ 00447d10 f   MyDBReader.obj
 0001:000470c0       ?OpenADORecordset@CMyDBReader@@QAEHV?$_com_ptr_t@V?$_com_IIID@U_Recordset@@$1?_GUID_00000556_0000_0010_8000_00aa006d2ea4@@3U__s_GUID@@B@@@@V_bstr_t@@@Z 004480c0 f   MyDBReader.obj
 0001:00047270       ?SetDBConnectType@CMyDBReader@@QAEXI@Z 00448270 f   MyDBReader.obj
 0001:00047290       ?SetDataSource@CMyDBReader@@QAEXV?$CStringT@DV?$StrTraitMFC_DLL@DV?$ChTraitsCRT@D@ATL@@@@@ATL@@@Z 00448290 f   MyDBReader.obj
 0001:00047310       ?SetDBName@CMyDBReader@@QAEXV?$CStringT@DV?$StrTraitMFC_DLL@DV?$ChTraitsCRT@D@ATL@@@@@ATL@@@Z 00448310 f   MyDBReader.obj
 0001:00047390       ?SetUserName@CMyDBReader@@QAEXV?$CStringT@DV?$StrTraitMFC_DLL@DV?$ChTraitsCRT@D@ATL@@@@@ATL@@@Z 00448390 f   MyDBReader.obj
 0001:00047410       ?SetPassword@CMyDBReader@@QAEXV?$CStringT@DV?$StrTraitMFC_DLL@DV?$ChTraitsCRT@D@ATL@@@@@ATL@@@Z 00448410 f   MyDBReader.obj
 0001:00047490       ?GetDBConnectType@CMyDBReader@@QAEIXZ 00448490 f   MyDBReader.obj
 0001:000474b0       ?GetDataSource@CMyDBReader@@QAE?AV?$CStringT@DV?$StrTraitMFC_DLL@DV?$ChTraitsCRT@D@ATL@@@@@ATL@@XZ 004484b0 f   MyDBReader.obj
 0001:00047510       ?GetDBName@CMyDBReader@@QAE?AV?$CStringT@DV?$StrTraitMFC_DLL@DV?$ChTraitsCRT@D@ATL@@@@@ATL@@XZ 00448510 f   MyDBReader.obj
 0001:00047570       ?GetUserNameA@CMyDBReader@@QAE?AV?$CStringT@DV?$StrTraitMFC_DLL@DV?$ChTraitsCRT@D@ATL@@@@@ATL@@XZ 00448570 f   MyDBReader.obj
 0001:000475d0       ?GetPassword@CMyDBReader@@QAE?AV?$CStringT@DV?$StrTraitMFC_DLL@DV?$ChTraitsCRT@D@ATL@@@@@ATL@@XZ 004485d0 f   MyDBReader.obj
 0001:00047630       ?GotherIVRNodeDataSmall@CMyDBReader@@QAEHV?$_com_ptr_t@V?$_com_IIID@U_Recordset@@$1?_GUID_00000556_0000_0010_8000_00aa006d2ea4@@3U__s_GUID@@B@@@@PAE@Z 00448630 f   MyDBReader.obj
 0001:000478d0       ?GotherIVRNodeDataBig@CMyDBReader@@QAEHV?$_com_ptr_t@V?$_com_IIID@U_Recordset@@$1?_GUID_00000556_0000_0010_8000_00aa006d2ea4@@3U__s_GUID@@B@@@@PAE@Z 004488d0 f   MyDBReader.obj
 0001:00047b70       ??_ECMyDBReader@@UAEPAXI@Z 00448b70 f i MyDBReader.obj
 0001:00047b70       ??_GCMyDBReader@@UAEPAXI@Z 00448b70 f i MyDBReader.obj
 0001:00047bb0       ??HATL@@YA?AV?$CStringT@DV?$StrTraitMFC_DLL@DV?$ChTraitsCRT@D@ATL@@@@@0@ABV10@PBD@Z 00448bb0 f i MyDBReader.obj
 0001:00047cf0       ??HATL@@YA?AV?$CStringT@DV?$StrTraitMFC_DLL@DV?$ChTraitsCRT@D@ATL@@@@@0@PBDABV10@@Z 00448cf0 f i MyDBReader.obj
 0001:00047e30       ??0CMyThreadList@@QAE@XZ   00448e30 f   MyThreadList.obj
 0001:00047ea0       ??1CMyThreadList@@UAE@XZ   00448ea0 f   MyThreadList.obj
 0001:00047f20       ?AddThread@CMyThreadList@@QAEHPAVCClientThread@@@Z 00448f20 f   MyThreadList.obj
 0001:00047f70       ?RemoveThread@CMyThreadList@@QAEHPAVCClientThread@@@Z 00448f70 f   MyThreadList.obj
 0001:00047fe0       ?CheckAllThreads@CMyThreadList@@QAEXXZ 00448fe0 f   MyThreadList.obj
 0001:000480e0       ?RemoveAllThreads@CMyThreadList@@QAEXXZ 004490e0 f   MyThreadList.obj
 0001:00048270       ??_ECMyThreadList@@UAEPAXI@Z 00449270 f i MyThreadList.obj
 0001:00048270       ??_GCMyThreadList@@UAEPAXI@Z 00449270 f i MyThreadList.obj
 0001:000482b0       ??1?$CTypedPtrList@VCObList@@PAVCClientThread@@@@UAE@XZ 004492b0 f i MyThreadList.obj
 0001:000482e0       ??1?$_CTypedPtrList@VCObList@@PAVCClientThread@@@@UAE@XZ 004492e0 f i MyThreadList.obj
 0001:00048310       ??0?$CTypedPtrList@VCObList@@PAVCClientThread@@@@QAE@H@Z 00449310 f i MyThreadList.obj
 0001:00048350       ?AddTail@?$CTypedPtrList@VCObList@@PAVCClientThread@@@@QAEPAU__POSITION@@PAVCClientThread@@@Z 00449350 f i MyThreadList.obj
 0001:00048380       ?GetNext@?$_CTypedPtrList@VCObList@@PAVCClientThread@@@@QAEAAPAVCClientThread@@AAPAU__POSITION@@@Z 00449380 f i MyThreadList.obj
 0001:000483b0       ?GetAt@?$_CTypedPtrList@VCObList@@PAVCClientThread@@@@QAEAAPAVCClientThread@@PAU__POSITION@@@Z 004493b0 f i MyThreadList.obj
 0001:000483e0       ??_G?$CTypedPtrList@VCObList@@PAVCClientThread@@@@UAEPAXI@Z 004493e0 f i MyThreadList.obj
 0001:000483e0       ??_E?$CTypedPtrList@VCObList@@PAVCClientThread@@@@UAEPAXI@Z 004493e0 f i MyThreadList.obj
 0001:00048420       ??0?$_CTypedPtrList@VCObList@@PAVCClientThread@@@@QAE@H@Z 00449420 f i MyThreadList.obj
 0001:00048460       ??_E?$_CTypedPtrList@VCObList@@PAVCClientThread@@@@UAEPAXI@Z 00449460 f i MyThreadList.obj
 0001:00048460       ??_G?$_CTypedPtrList@VCObList@@PAVCClientThread@@@@UAEPAXI@Z 00449460 f i MyThreadList.obj
 0001:000484a0       ?CreateObject@CPageExternal@@SGPAVCObject@@XZ 004494a0 f   PageExternal.obj
 0001:00048530       ?_GetBaseClass@CPageExternal@@KGPAUCRuntimeClass@@XZ 00449530 f   PageExternal.obj
 0001:00048550       ?GetThisClass@CPageExternal@@SGPAUCRuntimeClass@@XZ 00449550 f   PageExternal.obj
 0001:00048560       ?GetRuntimeClass@CPageExternal@@UBEPAUCRuntimeClass@@XZ 00449560 f   PageExternal.obj
 0001:00048580       ??0CPageExternal@@QAE@XZ   00449580 f   PageExternal.obj
 0001:00048740       ??1CPageExternal@@UAE@XZ   00449740 f   PageExternal.obj
 0001:00048860       ?DoDataExchange@CPageExternal@@MAEXPAVCDataExchange@@@Z 00449860 f   PageExternal.obj
 0001:00048a10       ?GetThisMessageMap@CPageExternal@@KGPBUAFX_MSGMAP@@XZ 00449a10 f   PageExternal.obj
 0001:00048a20       ?GetMessageMap@CPageExternal@@MBEPBUAFX_MSGMAP@@XZ 00449a20 f   PageExternal.obj
 0001:00048a40       ?OnInitDialog@CPageExternal@@MAEHXZ 00449a40 f   PageExternal.obj
 0001:00048af0       ?Information_ReadIniFile@CPageExternal@@QAEXXZ 00449af0 f   PageExternal.obj
 0001:00048d20       ?Information_WriteNewSetting@CPageExternal@@QAEH_N@Z 00449d20 f   PageExternal.obj
 0001:00049510       ?OnChangeExt_Parameters@CPageExternal@@IAEXPAUtagNMHDR@@PAJ@Z 0044a510 f   PageExternal.obj
 0001:00049540       ?OnChangeExt_Parameters@CPageExternal@@IAEXXZ 0044a540 f   PageExternal.obj
 0001:000495a0       ?OnHScroll@CPageExternal@@QAEXIIPAVCScrollBar@@@Z 0044a5a0 f   PageExternal.obj
 0001:000495e0       ??_ECPageExternal@@UAEPAXI@Z 0044a5e0 f i PageExternal.obj
 0001:000495e0       ??_GCPageExternal@@UAEPAXI@Z 0044a5e0 f i PageExternal.obj
 0001:00049620       ?CreateObject@CPageGroup@@SGPAVCObject@@XZ 0044a620 f   PageGroup.obj
 0001:000496b0       ?_GetBaseClass@CPageGroup@@KGPAUCRuntimeClass@@XZ 0044a6b0 f   PageGroup.obj
 0001:000496d0       ?GetThisClass@CPageGroup@@SGPAUCRuntimeClass@@XZ 0044a6d0 f   PageGroup.obj
 0001:000496e0       ?GetRuntimeClass@CPageGroup@@UBEPAUCRuntimeClass@@XZ 0044a6e0 f   PageGroup.obj
 0001:00049700       ??0CPageGroup@@QAE@XZ      0044a700 f   PageGroup.obj
 0001:00049920       ??1CPageGroup@@UAE@XZ      0044a920 f   PageGroup.obj
 0001:00049a60       ?DoDataExchange@CPageGroup@@MAEXPAVCDataExchange@@@Z 0044aa60 f   PageGroup.obj
 0001:00049c10       ?GetThisMessageMap@CPageGroup@@KGPBUAFX_MSGMAP@@XZ 0044ac10 f   PageGroup.obj
 0001:00049c20       ?GetMessageMap@CPageGroup@@MBEPBUAFX_MSGMAP@@XZ 0044ac20 f   PageGroup.obj
 0001:00049c40       ?OnInitDialog@CPageGroup@@MAEHXZ 0044ac40 f   PageGroup.obj
 0001:00049c80       ?Information_ReadIniFile@CPageGroup@@QAEXXZ 0044ac80 f   PageGroup.obj
 0001:0004a150       ?Information_WriteNewSetting@CPageGroup@@QAEH_N@Z 0044b150 f   PageGroup.obj
 0001:0004aeb0       ?OnDeltaposSpnMaxGroups@CPageGroup@@IAEXPAUtagNMHDR@@PAJ@Z 0044beb0 f   PageGroup.obj
 0001:0004aef0       ?OnDeltaposSpnMaxChannels@CPageGroup@@IAEXPAUtagNMHDR@@PAJ@Z 0044bef0 f   PageGroup.obj
 0001:0004af30       ?OnSelchangeIvrGrouplist@CPageGroup@@IAEXXZ 0044bf30 f   PageGroup.obj
 0001:0004b0f0       ?OnChangeIVR_Parameters@CPageGroup@@IAEXXZ 0044c0f0 f   PageGroup.obj
 0001:0004b150       ?OnChangeIVR_TotalGroups@CPageGroup@@IAEXXZ 0044c150 f   PageGroup.obj
 0001:0004b500       ?OnChangeIVR_TotalChannels@CPageGroup@@IAEXXZ 0044c500 f   PageGroup.obj
 0001:0004b760       ?OnChangeIVR_GroupStartCHSetting@CPageGroup@@IAEXXZ 0044c760 f   PageGroup.obj
 0001:0004b820       ?OnChangeIVR_GroupEndCHSetting@CPageGroup@@IAEXXZ 0044c820 f   PageGroup.obj
 0001:0004b8d0       ?OnSelchangeIvrChlist@CPageGroup@@IAEXXZ 0044c8d0 f   PageGroup.obj
 0001:0004b960       ?OnModify@CPageGroup@@IAEXXZ 0044c960 f   PageGroup.obj
 0001:0004bde0       ??_GCPageGroup@@UAEPAXI@Z  0044cde0 f i PageGroup.obj
 0001:0004bde0       ??_ECPageGroup@@UAEPAXI@Z  0044cde0 f i PageGroup.obj
 0001:0004be20       ??0LVS_IVR_Group@CPageGroup@@QAE@XZ 0044ce20 f i PageGroup.obj
 0001:0004be60       ??1LVS_IVR_Group@CPageGroup@@QAE@XZ 0044ce60 f i PageGroup.obj
 0001:0004bea0       ?GetDeviceNo@CIVRChannel@@QAE?AV?$CStringT@DV?$StrTraitMFC_DLL@DV?$ChTraitsCRT@D@ATL@@@@@ATL@@XZ 0044cea0 f i PageGroup.obj
 0001:0004bf00       ?CreateObject@CPagePBX@@SGPAVCObject@@XZ 0044cf00 f   PagePBX.obj
 0001:0004bf90       ?_GetBaseClass@CPagePBX@@KGPAUCRuntimeClass@@XZ 0044cf90 f   PagePBX.obj
 0001:0004bfb0       ?GetThisClass@CPagePBX@@SGPAUCRuntimeClass@@XZ 0044cfb0 f   PagePBX.obj
 0001:0004bfc0       ?GetRuntimeClass@CPagePBX@@UBEPAUCRuntimeClass@@XZ 0044cfc0 f   PagePBX.obj
 0001:0004bfe0       ??0CPagePBX@@QAE@XZ        0044cfe0 f   PagePBX.obj
 0001:0004c0e0       ??1CPagePBX@@UAE@XZ        0044d0e0 f   PagePBX.obj
 0001:0004c180       ?DoDataExchange@CPagePBX@@MAEXPAVCDataExchange@@@Z 0044d180 f   PagePBX.obj
 0001:0004cb80       ?GetThisMessageMap@CPagePBX@@KGPBUAFX_MSGMAP@@XZ 0044db80 f   PagePBX.obj
 0001:0004cb90       ?GetMessageMap@CPagePBX@@MBEPBUAFX_MSGMAP@@XZ 0044db90 f   PagePBX.obj
 0001:0004cbb0       ?OnInitDialog@CPagePBX@@MAEHXZ 0044dbb0 f   PagePBX.obj
 0001:0004cc10       ?Information_ReadIniFile@CPagePBX@@QAEXXZ 0044dc10 f   PagePBX.obj
 0001:0004cf20       ?Information_WriteNewSetting@CPagePBX@@QAEH_N@Z 0044df20 f   PagePBX.obj
 0001:0004d7a0       ?OnChangePBX_Parameters@CPagePBX@@IAEXXZ 0044e7a0 f   PagePBX.obj
 0001:0004d7d0       ?OnChangePBX_Parameters@CPagePBX@@IAEXPAUtagNMHDR@@PAJ@Z 0044e7d0 f   PagePBX.obj
 0001:0004d810       ?OnChangePBX_Parameters@CPagePBX@@IAEXI@Z 0044e810 f   PagePBX.obj
 0001:0004d870       ?OnDeltaposSpnMaxSoundTime@CPagePBX@@IAEXPAUtagNMHDR@@PAJ@Z 0044e870 f   PagePBX.obj
 0001:0004d8b0       ?OnDeltaposSpnMaxQueueTime@CPagePBX@@IAEXPAUtagNMHDR@@PAJ@Z 0044e8b0 f   PagePBX.obj
 0001:0004d8f0       ?OnHScroll@CPagePBX@@QAEXIIPAVCScrollBar@@@Z 0044e8f0 f   PagePBX.obj
 0001:0004d930       ??_GCPagePBX@@UAEPAXI@Z    0044e930 f i PagePBX.obj
 0001:0004d930       ??_ECPagePBX@@UAEPAXI@Z    0044e930 f i PagePBX.obj
 0001:0004d970       ?CreateObject@CPageSystem@@SGPAVCObject@@XZ 0044e970 f   PageSystem.obj
 0001:0004da00       ?_GetBaseClass@CPageSystem@@KGPAUCRuntimeClass@@XZ 0044ea00 f   PageSystem.obj
 0001:0004da20       ?GetThisClass@CPageSystem@@SGPAUCRuntimeClass@@XZ 0044ea20 f   PageSystem.obj
 0001:0004da30       ?GetRuntimeClass@CPageSystem@@UBEPAUCRuntimeClass@@XZ 0044ea30 f   PageSystem.obj
 0001:0004da50       ??0CPageSystem@@QAE@XZ     0044ea50 f   PageSystem.obj
 0001:0004dd40       ??1CPageSystem@@UAE@XZ     0044ed40 f   PageSystem.obj
 0001:0004dea0       ?DoDataExchange@CPageSystem@@MAEXPAVCDataExchange@@@Z 0044eea0 f   PageSystem.obj
 0001:0004e090       ?GetThisMessageMap@CPageSystem@@KGPBUAFX_MSGMAP@@XZ 0044f090 f   PageSystem.obj
 0001:0004e0a0       ?GetMessageMap@CPageSystem@@MBEPBUAFX_MSGMAP@@XZ 0044f0a0 f   PageSystem.obj
 0001:0004e0c0       ?OnInitDialog@CPageSystem@@MAEHXZ 0044f0c0 f   PageSystem.obj
 0001:0004e100       ?Information_ReadIniFile@CPageSystem@@QAEXXZ 0044f100 f   PageSystem.obj
 0001:0004e7b0       ?Information_WriteNewSetting@CPageSystem@@QAEH_N@Z 0044f7b0 f   PageSystem.obj
 0001:0004f0c0       ?OnSelchangeCmbLog@CPageSystem@@IAEXXZ 004500c0 f   PageSystem.obj
 0001:0004f150       ?OnChangeSYS_Parameters@CPageSystem@@IAEXXZ 00450150 f   PageSystem.obj
 0001:0004f180       ?OnChangeSYS_Parameters@CPageSystem@@IAEXPAUtagNMHDR@@PAJ@Z 00450180 f   PageSystem.obj
 0001:0004f1c0       ?OnChangeSYS_Parameters@CPageSystem@@IAEXI@Z 004501c0 f   PageSystem.obj
 0001:0004f220       ?OnBrowse1Click@CPageSystem@@IAEXXZ 00450220 f   PageSystem.obj
 0001:0004f3a0       ?OnBrowse2Click@CPageSystem@@IAEXXZ 004503a0 f   PageSystem.obj
 0001:0004f520       ?OnChkGc@CPageSystem@@IAEXXZ 00450520 f   PageSystem.obj
 0001:0004f570       ?SetDBAccessType@CPageSystem@@AAEXXZ 00450570 f   PageSystem.obj
 0001:0004f8e0       ?OnOptDbType@CPageSystem@@IAEXXZ 004508e0 f   PageSystem.obj
 0001:0004f920       ?OnDeltaposSysSpnAnsDelay@CPageSystem@@IAEXPAUtagNMHDR@@PAJ@Z 00450920 f   PageSystem.obj
 0001:0004f980       ?OnDeltaposSysSpnResetDelay@CPageSystem@@IAEXPAUtagNMHDR@@PAJ@Z 00450980 f   PageSystem.obj
 0001:0004f9e0       ??_GCPageSystem@@UAEPAXI@Z 004509e0 f i PageSystem.obj
 0001:0004f9e0       ??_ECPageSystem@@UAEPAXI@Z 004509e0 f i PageSystem.obj
 0001:0004fa20       ??0CPCSClientSock@@QAE@XZ  00450a20 f   PCSClientSock.obj
 0001:0004fbd0       ??1CPCSClientSock@@UAE@XZ  00450bd0 f   PCSClientSock.obj
 0001:0004fce0       ?WaitForStartupToComplete@CPCSClientSock@@QAEHPBDIPAUHWND__@@@Z 00450ce0 f   PCSClientSock.obj
 0001:0004fd80       ?WaitForShutdownToComplete@CPCSClientSock@@QAEXXZ 00450d80 f   PCSClientSock.obj
 0001:0004fe00       ?Run@CPCSClientSock@@MAEHXZ 00450e00 f   PCSClientSock.obj
 0001:00050110       ?OnConnect@CPCSClientSock@@UAEXH@Z 00451110 f   PCSClientSock.obj
 0001:00050160       ?OnClose@CPCSClientSock@@UAEXH@Z 00451160 f   PCSClientSock.obj
 0001:000501a0       ?OnReceive@CPCSClientSock@@UAEXH@Z 004511a0 f   PCSClientSock.obj
 0001:00050330       ?InitSock@CPCSClientSock@@IAEHXZ 00451330 f   PCSClientSock.obj
 0001:00050410       ?CloseConnection@CPCSClientSock@@QAEXXZ 00451410 f   PCSClientSock.obj
 0001:00050470       ?SendControlData@CPCSClientSock@@QAEHPBEI@Z 00451470 f   PCSClientSock.obj
 0001:000504c0       ?GetConnected@CPCSClientSock@@QAEHXZ 004514c0 f   PCSClientSock.obj
 0001:000504e0       ?SetConnected@CPCSClientSock@@IAEXH@Z 004514e0 f   PCSClientSock.obj
 0001:00050610       ?SendProtocolData@CPCSClientSock@@QAEHGGPAE@Z 00451610 f   PCSClientSock.obj
 0001:000507a0       ?AddMessage@CPCSClientSock@@QAEHPBEIK@Z 004517a0 f   PCSClientSock.obj
 0001:000507f0       ?GetMinimumMessageSize@CPCSClientSock@@QBEIXZ 004517f0 f   PCSClientSock.obj
 0001:00050810       ?GetMessageSize@CPCSClientSock@@IAEIXZ 00451810 f   PCSClientSock.obj
 0001:000508d0       ?GetRequests@CPCSClientSock@@IAEXXZ 004518d0 f   PCSClientSock.obj
 0001:000509f0       ?ProcessRequests@CPCSClientSock@@IAEHXZ 004519f0 f   PCSClientSock.obj
 0001:00053010       ??_ECPCSClientSock@@UAEPAXI@Z 00454010 f i PCSClientSock.obj
 0001:00053010       ??_GCPCSClientSock@@UAEPAXI@Z 00454010 f i PCSClientSock.obj
 0001:00053050       ??_ECPCSClientSock@@W7AEPAXI@Z 00454050 f i PCSClientSock.obj
 0001:00053060       ??_ECPCSClientSock@@WBM@AEPAXI@Z 00454060 f i PCSClientSock.obj
 0001:00053070       ??0CPCSExtClientSock@@QAE@XZ 00454070 f   PCSExtClientSock.obj
 0001:00053220       ??1CPCSExtClientSock@@UAE@XZ 00454220 f   PCSExtClientSock.obj
 0001:00053330       ?WaitForStartupToComplete@CPCSExtClientSock@@QAEHPBDIPAUHWND__@@@Z 00454330 f   PCSExtClientSock.obj
 0001:000533d0       ?WaitForShutdownToComplete@CPCSExtClientSock@@QAEXXZ 004543d0 f   PCSExtClientSock.obj
 0001:00053450       ?Run@CPCSExtClientSock@@MAEHXZ 00454450 f   PCSExtClientSock.obj
 0001:000536f0       ?OnConnect@CPCSExtClientSock@@UAEXH@Z 004546f0 f   PCSExtClientSock.obj
 0001:00053740       ?OnClose@CPCSExtClientSock@@UAEXH@Z 00454740 f   PCSExtClientSock.obj
 0001:00053780       ?OnReceive@CPCSExtClientSock@@UAEXH@Z 00454780 f   PCSExtClientSock.obj
 0001:00053910       ?InitSock@CPCSExtClientSock@@IAEHXZ 00454910 f   PCSExtClientSock.obj
 0001:000539f0       ?CloseConnection@CPCSExtClientSock@@QAEXXZ 004549f0 f   PCSExtClientSock.obj
 0001:00053a50       ?SendControlData@CPCSExtClientSock@@QAEHPBEI@Z 00454a50 f   PCSExtClientSock.obj
 0001:00053aa0       ?GetConnected@CPCSExtClientSock@@QAEHXZ 00454aa0 f   PCSExtClientSock.obj
 0001:00053ac0       ?SetConnected@CPCSExtClientSock@@IAEXH@Z 00454ac0 f   PCSExtClientSock.obj
 0001:00053bf0       ?SendProtocolData@CPCSExtClientSock@@QAEHGGPAE@Z 00454bf0 f   PCSExtClientSock.obj
 0001:00053d80       ?AddMessage@CPCSExtClientSock@@QAEHPBEIK@Z 00454d80 f   PCSExtClientSock.obj
 0001:00053dd0       ?GetMinimumMessageSize@CPCSExtClientSock@@QBEIXZ 00454dd0 f   PCSExtClientSock.obj
 0001:00053df0       ?GetMessageSize@CPCSExtClientSock@@IAEIXZ 00454df0 f   PCSExtClientSock.obj
 0001:00053ea0       ?GetRequests@CPCSExtClientSock@@IAEXXZ 00454ea0 f   PCSExtClientSock.obj
 0001:00053fc0       ?ProcessRequests@CPCSExtClientSock@@IAEHXZ 00454fc0 f   PCSExtClientSock.obj
 0001:00054800       ??_ECPCSExtClientSock@@UAEPAXI@Z 00455800 f i PCSExtClientSock.obj
 0001:00054800       ??_GCPCSExtClientSock@@UAEPAXI@Z 00455800 f i PCSExtClientSock.obj
 0001:00054840       ??_ECPCSExtClientSock@@W7AEPAXI@Z 00455840 f i PCSExtClientSock.obj
 0001:00054850       ??_ECPCSExtClientSock@@WBM@AEPAXI@Z 00455850 f i PCSExtClientSock.obj
 0001:00054860       ?GetThisMessageMap@CPowerVoiceApp@@KGPBUAFX_MSGMAP@@XZ 00455860 f   PowerVoice.obj
 0001:00054870       ?GetMessageMap@CPowerVoiceApp@@MBEPBUAFX_MSGMAP@@XZ 00455870 f   PowerVoice.obj
 0001:00054890       ??0CPowerVoiceApp@@QAE@XZ  00455890 f   PowerVoice.obj
 0001:00054b60       ?InitInstance@CPowerVoiceApp@@UAEHXZ 00455b60 f   PowerVoice.obj
 0001:00054e60       ??0CAboutDlg@@QAE@XZ       00455e60 f   PowerVoice.obj
 0001:00054ee0       ?DoDataExchange@CAboutDlg@@MAEXPAVCDataExchange@@@Z 00455ee0 f   PowerVoice.obj
 0001:00054f40       ?GetThisMessageMap@CAboutDlg@@KGPBUAFX_MSGMAP@@XZ 00455f40 f   PowerVoice.obj
 0001:00054f50       ?GetMessageMap@CAboutDlg@@MBEPBUAFX_MSGMAP@@XZ 00455f50 f   PowerVoice.obj
 0001:00054f70       ?OnAppAbout@CPowerVoiceApp@@QAEXXZ 00455f70 f   PowerVoice.obj
 0001:00055030       ?OnInitDialog@CAboutDlg@@MAEHXZ 00456030 f   PowerVoice.obj
 0001:000552b0       ?PreTranslateMessage@CPowerVoiceApp@@UAEHPAUtagMSG@@@Z 004562b0 f   PowerVoice.obj
 0001:00055300       ?ExitInstance@CPowerVoiceApp@@UAEHXZ 00456300 f   PowerVoice.obj
 0001:00055340       ?InitSystemBuffer@CPowerVoiceApp@@AAEHXZ 00456340 f   PowerVoice.obj
 0001:00055630       ?UpdateVersionInformation@CPowerVoiceApp@@AAEXPBD@Z 00456630 f   PowerVoice.obj
 0001:000559b0       ??_GCPowerVoiceApp@@UAEPAXI@Z 004569b0 f i PowerVoice.obj
 0001:000559b0       ??_ECPowerVoiceApp@@UAEPAXI@Z 004569b0 f i PowerVoice.obj
 0001:000559f0       ??1CPowerVoiceApp@@UAE@XZ  004569f0 f i PowerVoice.obj
 0001:00055af0       ??_GCAboutDlg@@UAEPAXI@Z   00456af0 f i PowerVoice.obj
 0001:00055af0       ??_ECAboutDlg@@UAEPAXI@Z   00456af0 f i PowerVoice.obj
 0001:00055b30       ??1CAboutDlg@@UAE@XZ       00456b30 f i PowerVoice.obj
 0001:00055ba0       ?SetLinkCursor@CHyperLink@@QAEXPAUHICON__@@@Z 00456ba0 f i PowerVoice.obj
 0001:00055bc0       ?CreateObject@CPowerVoiceDoc@@SGPAVCObject@@XZ 00456bc0 f   PowerVoiceDoc.obj
 0001:00055c50       ?_GetBaseClass@CPowerVoiceDoc@@KGPAUCRuntimeClass@@XZ 00456c50 f   PowerVoiceDoc.obj
 0001:00055c70       ?GetThisClass@CPowerVoiceDoc@@SGPAUCRuntimeClass@@XZ 00456c70 f   PowerVoiceDoc.obj
 0001:00055c80       ?GetRuntimeClass@CPowerVoiceDoc@@UBEPAUCRuntimeClass@@XZ 00456c80 f   PowerVoiceDoc.obj
 0001:00055ca0       ?GetThisMessageMap@CPowerVoiceDoc@@KGPBUAFX_MSGMAP@@XZ 00456ca0 f   PowerVoiceDoc.obj
 0001:00055cb0       ?GetMessageMap@CPowerVoiceDoc@@MBEPBUAFX_MSGMAP@@XZ 00456cb0 f   PowerVoiceDoc.obj
 0001:00055cd0       ??0CPowerVoiceDoc@@IAE@XZ  00456cd0 f   PowerVoiceDoc.obj
 0001:00055d00       ??1CPowerVoiceDoc@@UAE@XZ  00456d00 f   PowerVoiceDoc.obj
 0001:00055d30       ?AssertValid@CPowerVoiceDoc@@UBEXXZ 00456d30 f   PowerVoiceDoc.obj
 0001:00055d60       ?Dump@CPowerVoiceDoc@@UBEXAAVCDumpContext@@@Z 00456d60 f   PowerVoiceDoc.obj
 0001:00055d90       ??_ECPowerVoiceDoc@@UAEPAXI@Z 00456d90 f i PowerVoiceDoc.obj
 0001:00055d90       ??_GCPowerVoiceDoc@@UAEPAXI@Z 00456d90 f i PowerVoiceDoc.obj
 0001:00055dd0       ?CreateObject@CPowerVoiceView@@SGPAVCObject@@XZ 00456dd0 f   PowerVoiceView.obj
 0001:00055e60       ?_GetBaseClass@CPowerVoiceView@@KGPAUCRuntimeClass@@XZ 00456e60 f   PowerVoiceView.obj
 0001:00055e80       ?GetThisClass@CPowerVoiceView@@SGPAUCRuntimeClass@@XZ 00456e80 f   PowerVoiceView.obj
 0001:00055e90       ?GetRuntimeClass@CPowerVoiceView@@UBEPAUCRuntimeClass@@XZ 00456e90 f   PowerVoiceView.obj
 0001:00055eb0       ?GetThisMessageMap@CPowerVoiceView@@KGPBUAFX_MSGMAP@@XZ 00456eb0 f   PowerVoiceView.obj
 0001:00055ec0       ?GetMessageMap@CPowerVoiceView@@MBEPBUAFX_MSGMAP@@XZ 00456ec0 f   PowerVoiceView.obj
 0001:00055ee0       ??0CPowerVoiceView@@IAE@XZ 00456ee0 f   PowerVoiceView.obj
 0001:00055f30       ??1CPowerVoiceView@@UAE@XZ 00456f30 f   PowerVoiceView.obj
 0001:00055fe0       ?AssertValid@CPowerVoiceView@@UBEXXZ 00456fe0 f   PowerVoiceView.obj
 0001:00056010       ?Dump@CPowerVoiceView@@UBEXAAVCDumpContext@@@Z 00457010 f   PowerVoiceView.obj
 0001:00056040       ?GetDocument@CPowerVoiceView@@QAEPAVCPowerVoiceDoc@@XZ 00457040 f   PowerVoiceView.obj
 0001:00056090       ?OnInitialUpdate@CPowerVoiceView@@UAEXXZ 00457090 f   PowerVoiceView.obj
 0001:000561d0       ?WindowProc@CPowerVoiceView@@MAEJIIJ@Z 004571d0 f   PowerVoiceView.obj
 0001:00056320       ?InitMainForm@CPowerVoiceView@@AAEXXZ 00457320 f   PowerVoiceView.obj
 0001:000566d0       ?Screen_ChangeViewMode@CPowerVoiceView@@QAEH_N@Z 004576d0 f   PowerVoiceView.obj
 0001:00056730       ?Screen_ShowIVRChannelInfo@CPowerVoiceView@@QAEXPAVCIVRGroup@@@Z 00457730 f   PowerVoiceView.obj
 0001:00056810       ?Screen_ChangeListItemCallLength@CPowerVoiceView@@QAEHI@Z 00457810 f   PowerVoiceView.obj
 0001:00056a10       ?Screen_ChangeListItemCallCount@CPowerVoiceView@@QAEHI@Z 00457a10 f   PowerVoiceView.obj
 0001:00056c10       ?Screen_ChangeListItemCTIStatus@CPowerVoiceView@@QAEHI@Z 00457c10 f   PowerVoiceView.obj
 0001:00056e50       ?Screen_ChangeListItemCallerID@CPowerVoiceView@@QAEHI@Z 00457e50 f   PowerVoiceView.obj
 0001:00057140       ?Screen_ChangeListItemStatus@CPowerVoiceView@@QAEHI@Z 00458140 f   PowerVoiceView.obj
 0001:00057580       ?Screen_DeleteChannel@CPowerVoiceView@@QAEHI@Z 00458580 f   PowerVoiceView.obj
 0001:000576e0       ?Screen_InsertChannel@CPowerVoiceView@@QAEHPAVCIVRChannel@@@Z 004586e0 f   PowerVoiceView.obj
 0001:00057db0       ?FindListCtrlItem@CPowerVoiceView@@AAEHPAVCListCtrl@@V?$CStringT@DV?$StrTraitMFC_DLL@DV?$ChTraitsCRT@D@ATL@@@@@ATL@@PAH@Z 00458db0 f   PowerVoiceView.obj
 0001:00057f20       ?OnDblclk@CPowerVoiceView@@IAEXPAUtagNMHDR@@PAJ@Z 00458f20 f   PowerVoiceView.obj
 0001:00057fd0       ?OnCustomDraw@CPowerVoiceView@@IAEXPAUtagNMHDR@@PAJ@Z 00458fd0 f   PowerVoiceView.obj
 0001:00058070       ??_ECPowerVoiceView@@UAEPAXI@Z 00459070 f i PowerVoiceView.obj
 0001:00058070       ??_GCPowerVoiceView@@UAEPAXI@Z 00459070 f i PowerVoiceView.obj
 0001:000580b0       ?GetEnabled@CIVRChannel@@QAEHXZ 004590b0 f i PowerVoiceView.obj
 0001:000580d0       ?GetCurETID@CIVRChannel@@QAEEXZ 004590d0 f i PowerVoiceView.obj
 0001:000580f0       ??0CProductLicense@@QAE@XZ 004590f0 f   ProductLicense.obj
 0001:00058330       ??1CProductLicense@@UAE@XZ 00459330 f   ProductLicense.obj
 0001:00058450       ?DateDiscription@CProductLicense@@AAEHPAE0H@Z 00459450 f   ProductLicense.obj
 0001:00058520       ?TrialVersionExpiredCheck@CProductLicense@@QAEHXZ 00459520 f   ProductLicense.obj
 0001:00058590       ?InitializeProductLicense@CProductLicense@@QAEHPBD0@Z 00459590 f   ProductLicense.obj
 0001:00058960       ?GetLicenseClient@CProductLicense@@QAEHH@Z 00459960 f   ProductLicense.obj
 0001:000589b0       ?GetLicenseUsedClient@CProductLicense@@QAEHH@Z 004599b0 f   ProductLicense.obj
 0001:00058a10       ?IncreaseLicenseUsedClient@CProductLicense@@QAEHH@Z 00459a10 f   ProductLicense.obj
 0001:00058a90       ?DecreaseLicenseUsedClient@CProductLicense@@QAEHH@Z 00459a90 f   ProductLicense.obj
 0001:00058b10       ?IsLicenseClientUsedUp@CProductLicense@@QAEHH@Z 00459b10 f   ProductLicense.obj
 0001:00058b60       ??_GCProductLicense@@UAEPAXI@Z 00459b60 f i ProductLicense.obj
 0001:00058b60       ??_ECProductLicense@@UAEPAXI@Z 00459b60 f i ProductLicense.obj
 0001:00058ba0       ??0CSplashWnd@@IAE@XZ      00459ba0 f   Splash.obj
 0001:00058c10       ??1CSplashWnd@@UAE@XZ      00459c10 f   Splash.obj
 0001:00058ca0       ?GetThisMessageMap@CSplashWnd@@KGPBUAFX_MSGMAP@@XZ 00459ca0 f   Splash.obj
 0001:00058cb0       ?GetMessageMap@CSplashWnd@@MBEPBUAFX_MSGMAP@@XZ 00459cb0 f   Splash.obj
 0001:00058cd0       ?EnableSplashScreen@CSplashWnd@@SAXH@Z 00459cd0 f   Splash.obj
 0001:00058ce0       ?ShowSplashScreen@CSplashWnd@@SAXPAVCWnd@@@Z 00459ce0 f   Splash.obj
 0001:00058df0       ?PreTranslateAppMessage@CSplashWnd@@SAHPAUtagMSG@@@Z 00459df0 f   Splash.obj
 0001:00058e80       ?Create@CSplashWnd@@IAEHPAVCWnd@@@Z 00459e80 f   Splash.obj
 0001:00058f60       ?HideSplashScreen@CSplashWnd@@IAEXXZ 00459f60 f   Splash.obj
 0001:00058fa0       ?PostNcDestroy@CSplashWnd@@UAEXXZ 00459fa0 f   Splash.obj
 0001:00059000       ?OnCreate@CSplashWnd@@IAEHPAUtagCREATESTRUCTA@@@Z 0045a000 f   Splash.obj
 0001:00059060       ?OnPaint@CSplashWnd@@IAEXXZ 0045a060 f   Splash.obj
 0001:000591f0       ?OnTimer@CSplashWnd@@IAEXI@Z 0045a1f0 f   Splash.obj
 0001:00059220       ??_ECSplashWnd@@UAEPAXI@Z  0045a220 f i Splash.obj
 0001:00059220       ??_GCSplashWnd@@UAEPAXI@Z  0045a220 f i Splash.obj
 0001:00059260       ??0CManulSync@@QAE@XZ      0045a260 f   StdAfx.obj
 0001:000592a0       ??1CManulSync@@QAE@XZ      0045a2a0 f   StdAfx.obj
 0001:000592f0       ?Enter@CManulSync@@QBEXXZ  0045a2f0 f   StdAfx.obj
 0001:00059330       ?Leave@CManulSync@@QBEXXZ  0045a330 f   StdAfx.obj
 0001:00059370       ??0CManualResetEvent@@QAE@XZ 0045a370 f   StdAfx.obj
 0001:00059400       ??1CManualResetEvent@@QAE@XZ 0045a400 f   StdAfx.obj
 0001:00059450       ?Create@CManualResetEvent@@QAE_NPAD@Z 0045a450 f   StdAfx.obj
 0001:000594b0       ?Set@CManualResetEvent@@QAE_NXZ 0045a4b0 f   StdAfx.obj
 0001:000594f0       ?Reset@CManualResetEvent@@QAE_NXZ 0045a4f0 f   StdAfx.obj
 0001:00059530       ?Pulse@CManualResetEvent@@QAE_NXZ 0045a530 f   StdAfx.obj
 0001:00059570       ?GetHANDLE@CManualResetEvent@@QBEPAXXZ 0045a570 f   StdAfx.obj
 0001:00059590       ?Wait@CManualResetEvent@@QBEXXZ 0045a590 f   StdAfx.obj
 0001:000595e0       ?Wait@CManualResetEvent@@QBE_NK@Z 0045a5e0 f   StdAfx.obj
 0001:00059670       ??0CMutexValueManger@@QAE@XZ 0045a670 f   StdAfx.obj
 0001:000596b0       ??1CMutexValueManger@@QAE@XZ 0045a6b0 f   StdAfx.obj
 0001:000596e0       ?GetValue@CMutexValueManger@@QAEJXZ 0045a6e0 f   StdAfx.obj
 0001:00059730       ?SetValue@CMutexValueManger@@QAEXJ@Z 0045a730 f   StdAfx.obj
 0001:00059770       ?IncreaseValue@CMutexValueManger@@QAEXXZ 0045a770 f   StdAfx.obj
 0001:000597b0       ?DecreaseValue@CMutexValueManger@@QAEXXZ 0045a7b0 f   StdAfx.obj
 0001:000597f0       ??0CMyTimeBomb@@QAE@XZ     0045a7f0 f   StdAfx.obj
 0001:00059830       ??1CMyTimeBomb@@QAE@XZ     0045a830 f   StdAfx.obj
 0001:00059850       ?GetEnabled@CMyTimeBomb@@QAEHXZ 0045a850 f   StdAfx.obj
 0001:00059870       ?SetEnabled@CMyTimeBomb@@QAEXH@Z 0045a870 f   StdAfx.obj
 0001:000598a0       ?GetExploded@CMyTimeBomb@@QAEHXZ 0045a8a0 f   StdAfx.obj
 0001:000598c0       ?GetExplodeTime@CMyTimeBomb@@QAE?AVCTime@ATL@@XZ 0045a8c0 f   StdAfx.obj
 0001:000598f0       ?SetExplodeTime@CMyTimeBomb@@QAEXVCTime@ATL@@@Z 0045a8f0 f   StdAfx.obj
 0001:00059920       ?CheckTimer@CMyTimeBomb@@QAEHXZ 0045a920 f   StdAfx.obj
 0001:000599a0       ?GetRemainSeconds@CMyTimeBomb@@QAEJXZ 0045a9a0 f   StdAfx.obj
 0001:00059a80       ?AfmWaitWithMessageLoop@@YAKKPBQAXHK@Z 0045aa80 f   StdAfx.obj
 0001:00059b60       ?DoEvents@@YAXXZ           0045ab60 f   StdAfx.obj
 0001:00059c10       ?BrowseForFolder@@YA?AV?$CStringT@DV?$StrTraitMFC_DLL@DV?$ChTraitsCRT@D@ATL@@@@@ATL@@PAUHWND__@@PBDI@Z 0045ac10 f   StdAfx.obj
 0001:00059f70       ?MakeSureDirectoryPathExists@@YAHPBD@Z 0045af70 f   StdAfx.obj
 0001:0005a0e0       ?MakeSureFilePathExists@@YAHPBD@Z 0045b0e0 f   StdAfx.obj
 0001:0005a2b0       ?RemoveFilesInDirectory@@YAHPBD@Z 0045b2b0 f   StdAfx.obj
 0001:0005a560       ?FileExists@@YAHPBDH@Z     0045b560 f   StdAfx.obj
 0001:0005a5d0       ?IsSubDirectory@@YAHPBD0@Z 0045b5d0 f   StdAfx.obj
 0001:0005a790       ?GetFileDate@@YA?AV?$CStringT@DV?$StrTraitMFC_DLL@DV?$ChTraitsCRT@D@ATL@@@@@ATL@@AAVCFileFind@@@Z 0045b790 f   StdAfx.obj
 0001:0005a9a0       ?GetFileLen@@YA_NPBDPA_J@Z 0045b9a0 f   StdAfx.obj
 0001:0005aaf0       ?ToString@@YA?AV?$CStringT@DV?$StrTraitMFC_DLL@DV?$ChTraitsCRT@D@ATL@@@@@ATL@@H@Z 0045baf0 f   StdAfx.obj
 0001:0005abf0       ?GetItemIndexWithPoint@@YAHPAVCListCtrl@@VCPoint@@@Z 0045bbf0 f   StdAfx.obj
 0001:0005acd0       ?AutoSizeColumns@@YAXPAVCListCtrl@@@Z 0045bcd0 f   StdAfx.obj
 0001:0005adf0       ?CopyToCString@@YAXAAV?$CStringT@DV?$StrTraitMFC_DLL@DV?$ChTraitsCRT@D@ATL@@@@@ATL@@PBD1@Z 0045bdf0 f   StdAfx.obj
 0001:0005aeb0       ?AddTailBackslashToPath@@YA?AV?$CStringT@DV?$StrTraitMFC_DLL@DV?$ChTraitsCRT@D@ATL@@@@@ATL@@V12@@Z 0045beb0 f   StdAfx.obj
 0001:0005b010       ?WriteBufferToTextFile@@YAHPBD0H@Z 0045c010 f   StdAfx.obj
 0001:0005b260       ?SeperateTelNo@@YA?AV?$CStringT@DV?$StrTraitMFC_DLL@DV?$ChTraitsCRT@D@ATL@@@@@ATL@@PBD@Z 0045c260 f   StdAfx.obj
 0001:0005b380       ?ConvertStringToCTime@@YAHPBDAAVCTime@ATL@@@Z 0045c380 f   StdAfx.obj
 0001:0005b6f0       ?ConvertStringLongToCTime@@YAHPBDAAVCTime@ATL@@@Z 0045c6f0 f   StdAfx.obj
 0001:0005bd00       ?GetLastDayOfMonth@@YAHHH@Z 0045cd00 f   StdAfx.obj
 0001:0005be10       ?IsValidDate@@YAHHHH@Z     0045ce10 f   StdAfx.obj
 0001:0005be80       ?Split@@YAXPBD0PAVCStringArray@@@Z 0045ce80 f   StdAfx.obj
 0001:0005c110       ?TimeDurationFormat@@YA?AV?$CStringT@DV?$StrTraitMFC_DLL@DV?$ChTraitsCRT@D@ATL@@@@@ATL@@JPBD@Z 0045d110 f   StdAfx.obj
 0001:0005c320       ?_AtlGetConversionACP@ATL@@YGIXZ 0045d320 f i StdAfx.obj
 0001:0005c340       ?AtlThrow@ATL@@YGXJ@Z      0045d340 f i StdAfx.obj
 0001:0005c3b0       ??RCTraceFileAndLineInfo@ATL@@QBAXKIPBDZZ 0045d3b0 f i StdAfx.obj
 0001:0005c400       ?AtlA2WHelper@@YGPAGPAGPBDHI@Z 0045d400 f i StdAfx.obj
 0001:0005c500       ??0CThreadSysMain@@QAE@XZ  0045d500 f   ThreadSysMain.obj
 0001:0005c580       ??1CThreadSysMain@@UAE@XZ  0045d580 f   ThreadSysMain.obj
 0001:0005c5f0       ?WaitForStartupToComplete@CThreadSysMain@@QAEHXZ 0045d5f0 f   ThreadSysMain.obj
 0001:0005c640       ?WaitForShutdownToComplete@CThreadSysMain@@QAEXXZ 0045d640 f   ThreadSysMain.obj
 0001:0005c6a0       ?GetPendingTime@CThreadSysMain@@QAEKXZ 0045d6a0 f   ThreadSysMain.obj
 0001:0005c710       ?ResetPendingTime@CThreadSysMain@@QAEXXZ 0045d710 f   ThreadSysMain.obj
 0001:0005c750       ?Run@CThreadSysMain@@MAEHXZ 0045d750 f   ThreadSysMain.obj
 0001:0005cbc0       ??_ECThreadSysMain@@UAEPAXI@Z 0045dbc0 f i ThreadSysMain.obj
 0001:0005cbc0       ??_GCThreadSysMain@@UAEPAXI@Z 0045dbc0 f i ThreadSysMain.obj
 0001:0005cc00       ?SetOneBit@@YAXPAEE_N@Z    0045dc00 f   _CommonFunc.obj
 0001:0005cc60       ?GetOneBit@@YA_NEE@Z       0045dc60 f   _CommonFunc.obj
 0001:0005cc80       ?strRTrim@@YAPADPAD@Z      0045dc80 f   _CommonFunc.obj
 0001:0005cd00       ?strDos2C_Path@@YAPADPBDPAD@Z 0045dd00 f   _CommonFunc.obj
 0001:0005cde0       ?strC2Dos_Path@@YAPADPBDPAD@Z 0045dde0 f   _CommonFunc.obj
 0001:0005ce90       ?strBSTRCpy@@YAPADPADPAGH@Z 0045de90 f   _CommonFunc.obj
 0001:0005cf80       ?strIPCpy@@YAXQAEQBE@Z     0045df80 f   _CommonFunc.obj
 0001:0005d000       ?StringToSQL@@YAPADPBDPADH@Z 0045e000 f   _CommonFunc.obj
 0001:0005d0c0       ?GetDigitMask@@YAHD@Z      0045e0c0 f   _CommonFunc.obj
 0001:0005d280       ??0CDataStack@@QAE@XZ      0045e280 f   _DataQueue.obj
 0001:0005d2d0       ??1CDataStack@@QAE@XZ      0045e2d0 f   _DataQueue.obj
 0001:0005d330       ?Append@CDataStack@@QAEXPBDJ@Z 0045e330 f   _DataQueue.obj
 0001:0005d490       ?Remove@CDataStack@@QAEJPADJ@Z 0045e490 f   _DataQueue.obj
 0001:0005d600       ?Length@CDataStack@@QAEJXZ 0045e600 f   _DataQueue.obj
 0001:0005d650       ?ClearBuffer@CDataStack@@QAEXXZ 0045e650 f   _DataQueue.obj
 0001:0005d6c0       ?SetMark@CDataStack@@QAEXXZ 0045e6c0 f   _DataQueue.obj
 0001:0005d700       ?GetMark@CDataStack@@QAEJXZ 0045e700 f   _DataQueue.obj
 0001:0005d750       ??0CDataQueue@@QAE@J@Z     0045e750 f   _DataQueue.obj
 0001:0005d7e0       ??0CDataQueue@@QAE@XZ      0045e7e0 f   _DataQueue.obj
 0001:0005d830       ??1CDataQueue@@QAE@XZ      0045e830 f   _DataQueue.obj
 0001:0005d890       ?CreateDataBuffer@CDataQueue@@AAEXJ@Z 0045e890 f   _DataQueue.obj
 0001:0005d920       ?GetMaxLength@CDataQueue@@QAEJXZ 0045e920 f   _DataQueue.obj
 0001:0005d970       ?SetMaxLength@CDataQueue@@QAEXJ@Z 0045e970 f   _DataQueue.obj
 0001:0005d9a0       ?Append@CDataQueue@@QAEJPBEJ@Z 0045e9a0 f   _DataQueue.obj
 0001:0005da40       ?Remove@CDataQueue@@QAEJJPAE@Z 0045ea40 f   _DataQueue.obj
 0001:0005db60       ?Length@CDataQueue@@QAEJXZ 0045eb60 f   _DataQueue.obj
 0001:0005dbb0       ?ClearBuffer@CDataQueue@@QAEXXZ 0045ebb0 f   _DataQueue.obj
 0001:0005dc30       ?GetBuffer@CDataQueue@@QAEPAEXZ 0045ec30 f   _DataQueue.obj
 0001:0005dc50       ?LockBuffer@CDataQueue@@QAEXXZ 0045ec50 f   _DataQueue.obj
 0001:0005dc80       ?UnLockBuffer@CDataQueue@@QAEXXZ 0045ec80 f   _DataQueue.obj
 0001:0005dcb0       ??0CButtonST@@QAE@XZ       0045ecb0 f   BtnST.obj
 0001:0005de00       ??1CButtonST@@UAE@XZ       0045ee00 f   BtnST.obj
 0001:0005def0       ?GetThisMessageMap@CButtonST@@KGPBUAFX_MSGMAP@@XZ 0045eef0 f   BtnST.obj
 0001:0005df00       ?GetMessageMap@CButtonST@@MBEPBUAFX_MSGMAP@@XZ 0045ef00 f   BtnST.obj
 0001:0005df20       ?SetIcon@CButtonST@@QAEXHHEE@Z 0045ef20 f   BtnST.obj
 0001:0005e000       ?SetBtnCursor@CButtonST@@QAEHH@Z 0045f000 f   BtnST.obj
 0001:0005e0b0       ?SetFlat@CButtonST@@QAEXH@Z 0045f0b0 f   BtnST.obj
 0001:0005e0f0       ?GetFlat@CButtonST@@QAEHXZ 0045f0f0 f   BtnST.obj
 0001:0005e110       ?SetAlign@CButtonST@@QAEXH@Z 0045f110 f   BtnST.obj
 0001:0005e180       ?GetAlign@CButtonST@@QAEHXZ 0045f180 f   BtnST.obj
 0001:0005e1a0       ?DrawBorder@CButtonST@@QAEXH@Z 0045f1a0 f   BtnST.obj
 0001:0005e1c0       ?GetVersionC@CButtonST@@SAPBDXZ 0045f1c0 f   BtnST.obj
 0001:0005e1d0       ?GetVersionI@CButtonST@@SA?BFXZ 0045f1d0 f   BtnST.obj
 0001:0005e1e0       ?SetShowText@CButtonST@@QAEXH@Z 0045f1e0 f   BtnST.obj
 0001:0005e220       ?GetShowText@CButtonST@@QAEHXZ 0045f220 f   BtnST.obj
 0001:0005e240       ?OnMouseMove@CButtonST@@IAEXIVCPoint@@@Z 0045f240 f   BtnST.obj
 0001:0005e390       ?OnKillFocus@CButtonST@@IAEXPAVCWnd@@@Z 0045f390 f   BtnST.obj
 0001:0005e3f0       ?OnCaptureChanged@CButtonST@@IAEXPAVCWnd@@@Z 0045f3f0 f   BtnST.obj
 0001:0005e450       ?DrawItem@CButtonST@@UAEXPAUtagDRAWITEMSTRUCT@@@Z 0045f450 f   BtnST.obj
 0001:0005ef10       ?DrawTheIcon@CButtonST@@AAEXPAVCDC@@PAV?$CStringT@DV?$StrTraitMFC_DLL@DV?$ChTraitsCRT@D@ATL@@@@@ATL@@PAUtagRECT@@PAVCRect@@HH@Z 0045ff10 f   BtnST.obj
 0001:0005f100       ?PreSubclassWindow@CButtonST@@MAEXXZ 00460100 f   BtnST.obj
 0001:0005f1f0       ?SetDefaultInactiveBgColor@CButtonST@@QAEXH@Z 004601f0 f   BtnST.obj
 0001:0005f240       ?SetInactiveBgColor@CButtonST@@QAEXKH@Z 00460240 f   BtnST.obj
 0001:0005f280       ?GetInactiveBgColor@CButtonST@@QAE?BKXZ 00460280 f   BtnST.obj
 0001:0005f2a0       ?SetDefaultInactiveFgColor@CButtonST@@QAEXH@Z 004602a0 f   BtnST.obj
 0001:0005f2f0       ?SetInactiveFgColor@CButtonST@@QAEXKH@Z 004602f0 f   BtnST.obj
 0001:0005f330       ?GetInactiveFgColor@CButtonST@@QAE?BKXZ 00460330 f   BtnST.obj
 0001:0005f350       ?SetDefaultActiveBgColor@CButtonST@@QAEXH@Z 00460350 f   BtnST.obj
 0001:0005f3a0       ?SetActiveBgColor@CButtonST@@QAEXKH@Z 004603a0 f   BtnST.obj
 0001:0005f3e0       ?GetActiveBgColor@CButtonST@@QAE?BKXZ 004603e0 f   BtnST.obj
 0001:0005f400       ?SetDefaultActiveFgColor@CButtonST@@QAEXH@Z 00460400 f   BtnST.obj
 0001:0005f450       ?SetActiveFgColor@CButtonST@@QAEXKH@Z 00460450 f   BtnST.obj
 0001:0005f490       ?GetActiveFgColor@CButtonST@@QAE?BKXZ 00460490 f   BtnST.obj
 0001:0005f4b0       ?SetFlatFocus@CButtonST@@QAEXHH@Z 004604b0 f   BtnST.obj
 0001:0005f4f0       ?GetFlatFocus@CButtonST@@QAEHXZ 004604f0 f   BtnST.obj
 0001:0005f510       ?OnSetCursor@CButtonST@@IAEHPAVCWnd@@II@Z 00460510 f   BtnST.obj
 0001:0005f570       ?PreTranslateMessage@CButtonST@@UAEHPAUtagMSG@@@Z 00460570 f   BtnST.obj
 0001:0005f5b0       ?AddToolTip@CButtonST@@QAEXABV?$CStringT@DV?$StrTraitMFC_DLL@DV?$ChTraitsCRT@D@ATL@@@@@ATL@@@Z 004605b0 f   BtnST.obj
 0001:0005f600       ?AddToolTip@CButtonST@@QAEXI@Z 00460600 f   BtnST.obj
 0001:0005f6c0       ??_GCButtonST@@UAEPAXI@Z   004606c0 f i BtnST.obj
 0001:0005f6c0       ??_ECButtonST@@UAEPAXI@Z   004606c0 f i BtnST.obj
 0001:0005f700       ??0CMemDC@@QAE@PAVCDC@@@Z  00460700 f i BtnST.obj
 0001:0005f880       ??1CMemDC@@UAE@XZ          00460880 f i BtnST.obj
 0001:0005f960       ??_GCMemDC@@UAEPAXI@Z      00460960 f i BtnST.obj
 0001:0005f960       ??_ECMemDC@@UAEPAXI@Z      00460960 f i BtnST.obj
 0001:0005f9a0       ?_GetBaseClass@CCheckGroupBox@@KGPAUCRuntimeClass@@XZ 004609a0 f   CheckGroupBox.obj
 0001:0005f9c0       ?GetThisClass@CCheckGroupBox@@SGPAUCRuntimeClass@@XZ 004609c0 f   CheckGroupBox.obj
 0001:0005f9d0       ?GetRuntimeClass@CCheckGroupBox@@UBEPAUCRuntimeClass@@XZ 004609d0 f   CheckGroupBox.obj
 0001:0005f9f0       ??0CCheckGroupBox@@QAE@XZ  004609f0 f   CheckGroupBox.obj
 0001:0005fa60       ??1CCheckGroupBox@@UAE@XZ  00460a60 f   CheckGroupBox.obj
 0001:0005fad0       ?GetThisMessageMap@CCheckGroupBox@@KGPBUAFX_MSGMAP@@XZ 00460ad0 f   CheckGroupBox.obj
 0001:0005fae0       ?GetMessageMap@CCheckGroupBox@@MBEPBUAFX_MSGMAP@@XZ 00460ae0 f   CheckGroupBox.obj
 0001:0005fb00       ?InitCheckBox@CCheckGroupBox@@QAEHXZ 00460b00 f   CheckGroupBox.obj
 0001:0005fd00       ?CheckControls@CCheckGroupBox@@AAEXXZ 00460d00 f   CheckGroupBox.obj
 0001:0005ff80       ?SetCheck@CCheckGroupBox@@QAEXH@Z 00460f80 f   CheckGroupBox.obj
 0001:0005ffe0       ?GetCheck@CCheckGroupBox@@QAEHXZ 00460fe0 f   CheckGroupBox.obj
 0001:00060030       ?OnClicked@CCheckGroupBox@@IAEXXZ 00461030 f   CheckGroupBox.obj
 0001:000600c0       ?OnGetCheck@CCheckGroupBox@@IAEJIJ@Z 004610c0 f   CheckGroupBox.obj
 0001:000600f0       ?OnSetCheck@CCheckGroupBox@@IAEJIJ@Z 004610f0 f   CheckGroupBox.obj
 0001:00060120       ?OnEnable@CCheckGroupBox@@IAEXH@Z 00461120 f   CheckGroupBox.obj
 0001:00060170       ?OnSetFocus@CCheckGroupBox@@IAEXPAVCWnd@@@Z 00461170 f   CheckGroupBox.obj
 0001:000601b0       ??_GCCheckGroupBox@@UAEPAXI@Z 004611b0 f i CheckGroupBox.obj
 0001:000601b0       ??_ECCheckGroupBox@@UAEPAXI@Z 004611b0 f i CheckGroupBox.obj
 0001:000601f0       ??0?$list@PAVCCheckGroupBox@@V?$allocator@PAVCCheckGroupBox@@@std@@@std@@QAE@XZ 004611f0 f i CheckGroupBox.obj
 0001:00060240       ??1?$list@PAVCCheckGroupBox@@V?$allocator@PAVCCheckGroupBox@@@std@@@std@@QAE@XZ 00461240 f i CheckGroupBox.obj
 0001:00060270       ?begin@?$list@PAVCCheckGroupBox@@V?$allocator@PAVCCheckGroupBox@@@std@@@std@@QAE?AViterator@12@XZ 00461270 f i CheckGroupBox.obj
 0001:000602b0       ?end@?$list@PAVCCheckGroupBox@@V?$allocator@PAVCCheckGroupBox@@@std@@@std@@QAE?AViterator@12@XZ 004612b0 f i CheckGroupBox.obj
 0001:000602e0       ?push_back@?$list@PAVCCheckGroupBox@@V?$allocator@PAVCCheckGroupBox@@@std@@@std@@QAEXABQAVCCheckGroupBox@@@Z 004612e0 f i CheckGroupBox.obj
 0001:00060330       ??0iterator@?$list@PAVCCheckGroupBox@@V?$allocator@PAVCCheckGroupBox@@@std@@@std@@QAE@XZ 00461330 f i CheckGroupBox.obj
 0001:00060360       ??Diterator@?$list@PAVCCheckGroupBox@@V?$allocator@PAVCCheckGroupBox@@@std@@@std@@QBEAAPAVCCheckGroupBox@@XZ 00461360 f i CheckGroupBox.obj
 0001:00060390       ??Eiterator@?$list@PAVCCheckGroupBox@@V?$allocator@PAVCCheckGroupBox@@@std@@@std@@QAEAAV012@XZ 00461390 f i CheckGroupBox.obj
 0001:000603c0       ??9const_iterator@?$list@PAVCCheckGroupBox@@V?$allocator@PAVCCheckGroupBox@@@std@@@std@@QBE_NABV012@@Z 004613c0 f i CheckGroupBox.obj
 0001:00060400       ?_Nextnode@?$list@PAVCCheckGroupBox@@V?$allocator@PAVCCheckGroupBox@@@std@@@std@@KAAAPAU_Node@?$_List_nod@PAVCCheckGroupBox@@V?$allocator@PAVCCheckGroupBox@@@std@@@2@PAU342@@Z 00461400 f i CheckGroupBox.obj
 0001:00060410       ?_Insert@?$list@PAVCCheckGroupBox@@V?$allocator@PAVCCheckGroupBox@@@std@@@std@@QAEXViterator@12@ABQAVCCheckGroupBox@@@Z 00461410 f i CheckGroupBox.obj
 0001:000604b0       ?_Buynode@?$list@PAVCCheckGroupBox@@V?$allocator@PAVCCheckGroupBox@@@std@@@std@@IAEPAU_Node@?$_List_nod@PAVCCheckGroupBox@@V?$allocator@PAVCCheckGroupBox@@@std@@@2@XZ 004614b0 f i CheckGroupBox.obj
 0001:000605e0       ?_Tidy@?$list@PAVCCheckGroupBox@@V?$allocator@PAVCCheckGroupBox@@@std@@@std@@IAEXXZ 004615e0 f i CheckGroupBox.obj
 0001:00060660       ??0?$_List_val@PAVCCheckGroupBox@@V?$allocator@PAVCCheckGroupBox@@@std@@@std@@IAE@V?$allocator@PAVCCheckGroupBox@@@1@@Z 00461660 f i CheckGroupBox.obj
 0001:000606b0       ?GetWString@Data_t@_bstr_t@@QAEAAPAGXZ 004616b0 f i DlgAutoLoadCallFlow.obj
 0001:000606b0       ??0?$allocator@PAVCCheckGroupBox@@@std@@QAE@XZ 004616b0 f i CheckGroupBox.obj
 0001:000606d0       ??0CAssoc@?$CMap@KKPAVCIVRChannel@@PAV1@@@QAE@K@Z 004616d0 f i IVRChannel.obj
 0001:000606d0       ??0iterator@?$list@PAVCCheckGroupBox@@V?$allocator@PAVCCheckGroupBox@@@std@@@std@@QAE@PAU_Node@?$_List_nod@PAVCCheckGroupBox@@V?$allocator@PAVCCheckGroupBox@@@std@@@2@@Z 004616d0 f i CheckGroupBox.obj
 0001:000606d0       ??0CAssoc@?$CMap@JJPAVCFaxResource@@PAV1@@@QAE@J@Z 004616d0 f i FaxManager.obj
 0001:00060700       ??0const_iterator@?$list@PAVCCheckGroupBox@@V?$allocator@PAVCCheckGroupBox@@@std@@@std@@QAE@XZ 00461700 f i CheckGroupBox.obj
 0001:00060700       ??0_bstr_t@@QAE@XZ         00461700 f i _Global.obj
 0001:00060700       ??0?$_com_ptr_t@V?$_com_IIID@U_Recordset@@$1?_GUID_00000556_0000_0010_8000_00aa006d2ea4@@3U__s_GUID@@B@@@@QAE@XZ 00461700 f i DlgAutoLoadCallFlow.obj
 0001:00060720       ??Dconst_iterator@?$list@PAVCCheckGroupBox@@V?$allocator@PAVCCheckGroupBox@@@std@@@std@@QBEABQAVCCheckGroupBox@@XZ 00461720 f i CheckGroupBox.obj
 0001:00060750       ??Econst_iterator@?$list@PAVCCheckGroupBox@@V?$allocator@PAVCCheckGroupBox@@@std@@@std@@QAEAAV012@XZ 00461750 f i CheckGroupBox.obj
 0001:00060790       ??8const_iterator@?$list@PAVCCheckGroupBox@@V?$allocator@PAVCCheckGroupBox@@@std@@@std@@QBE_NABV012@@Z 00461790 f i CheckGroupBox.obj
 0001:000607c0       ?_Prevnode@?$list@PAVCCheckGroupBox@@V?$allocator@PAVCCheckGroupBox@@@std@@@std@@KAAAPAU_Node@?$_List_nod@PAVCCheckGroupBox@@V?$allocator@PAVCCheckGroupBox@@@std@@@2@PAU342@@Z 004617c0 f i CheckGroupBox.obj
 0001:000607d0       ?_Myval@?$list@PAVCCheckGroupBox@@V?$allocator@PAVCCheckGroupBox@@@std@@@std@@KAAAPAVCCheckGroupBox@@PAU_Node@?$_List_nod@PAVCCheckGroupBox@@V?$allocator@PAVCCheckGroupBox@@@std@@@2@@Z 004617d0 f i CheckGroupBox.obj
 0001:000607e0       ?clear@?$list@PAVCCheckGroupBox@@V?$allocator@PAVCCheckGroupBox@@@std@@@std@@QAEXXZ 004617e0 f i CheckGroupBox.obj
 0001:000608a0       ?_Buynode@?$list@PAVCCheckGroupBox@@V?$allocator@PAVCCheckGroupBox@@@std@@@std@@IAEPAU_Node@?$_List_nod@PAVCCheckGroupBox@@V?$allocator@PAVCCheckGroupBox@@@std@@@2@PAU342@0ABQAVCCheckGroupBox@@@Z 004618a0 f i CheckGroupBox.obj
 0001:00060990       ?_Incsize@?$list@PAVCCheckGroupBox@@V?$allocator@PAVCCheckGroupBox@@@std@@@std@@IAEXI@Z 00461990 f i CheckGroupBox.obj
 0001:00060a40       ??0?$_List_ptr@PAVCCheckGroupBox@@V?$allocator@PAVCCheckGroupBox@@@std@@@std@@IAE@V?$allocator@PAVCCheckGroupBox@@@1@@Z 00461a40 f i CheckGroupBox.obj
 0001:00060a90       ??$?0PAVCCheckGroupBox@@@?$allocator@U_Node@?$_List_nod@PAVCCheckGroupBox@@V?$allocator@PAVCCheckGroupBox@@@std@@@std@@@std@@QAE@ABV?$allocator@PAVCCheckGroupBox@@@1@@Z 00461a90 f i CheckGroupBox.obj
 0001:00060a90       ??0?$allocator@PAVCCheckGroupBox@@@std@@QAE@ABV01@@Z 00461a90 f i CheckGroupBox.obj
 0001:00060a90       ??$?0PAVCCheckGroupBox@@@?$allocator@PAU_Node@?$_List_nod@PAVCCheckGroupBox@@V?$allocator@PAVCCheckGroupBox@@@std@@@std@@@std@@QAE@ABV?$allocator@PAVCCheckGroupBox@@@1@@Z 00461a90 f i CheckGroupBox.obj
 0001:00060ab0       ?deallocate@?$allocator@U_Node@?$_List_nod@PAVCCheckGroupBox@@V?$allocator@PAVCCheckGroupBox@@@std@@@std@@@std@@QAEXPAU_Node@?$_List_nod@PAVCCheckGroupBox@@V?$allocator@PAVCCheckGroupBox@@@std@@@2@I@Z 00461ab0 f i CheckGroupBox.obj
 0001:00060ae0       ?allocate@?$allocator@U_Node@?$_List_nod@PAVCCheckGroupBox@@V?$allocator@PAVCCheckGroupBox@@@std@@@std@@@std@@QAEPAU_Node@?$_List_nod@PAVCCheckGroupBox@@V?$allocator@PAVCCheckGroupBox@@@std@@@2@I@Z 00461ae0 f i CheckGroupBox.obj
 0001:00060b10       ?construct@?$allocator@PAU_Node@?$_List_nod@PAVCCheckGroupBox@@V?$allocator@PAVCCheckGroupBox@@@std@@@std@@@std@@QAEXPAPAU_Node@?$_List_nod@PAVCCheckGroupBox@@V?$allocator@PAVCCheckGroupBox@@@std@@@2@ABQAU342@@Z 00461b10 f i CheckGroupBox.obj
 0001:00060b40       ??BCTraceCategory@ATL@@QBEKXZ 00461b40 f i channelcontrol.obj
 0001:00060b40       ?_Mynode@const_iterator@?$list@PAVCCheckGroupBox@@V?$allocator@PAVCCheckGroupBox@@@std@@@std@@QBEPAU_Node@?$_List_nod@PAVCCheckGroupBox@@V?$allocator@PAVCCheckGroupBox@@@std@@@3@XZ 00461b40 f i CheckGroupBox.obj
 0001:00060b60       ??0length_error@std@@QAE@ABV01@@Z 00461b60 f i CheckGroupBox.obj
 0001:00060ba0       ??0logic_error@std@@QAE@ABV01@@Z 00461ba0 f i CheckGroupBox.obj
 0001:00060c30       ?max_size@?$list@PAVCCheckGroupBox@@V?$allocator@PAVCCheckGroupBox@@@std@@@std@@QBEIXZ 00461c30 f i CheckGroupBox.obj
 0001:00060c60       ??0?$_List_nod@PAVCCheckGroupBox@@V?$allocator@PAVCCheckGroupBox@@@std@@@std@@IAE@V?$allocator@PAVCCheckGroupBox@@@1@@Z 00461c60 f i CheckGroupBox.obj
 0001:00060c90       ?destroy@?$allocator@U_Node@?$_List_nod@PAVCCheckGroupBox@@V?$allocator@PAVCCheckGroupBox@@@std@@@std@@@std@@QAEXPAU_Node@?$_List_nod@PAVCCheckGroupBox@@V?$allocator@PAVCCheckGroupBox@@@std@@@2@@Z 00461c90 f i CheckGroupBox.obj
 0001:00060c90       ?destroy@?$allocator@PAU_Node@?$_List_nod@PAVCCheckGroupBox@@V?$allocator@PAVCCheckGroupBox@@@std@@@std@@@std@@QAEXPAPAU_Node@?$_List_nod@PAVCCheckGroupBox@@V?$allocator@PAVCCheckGroupBox@@@std@@@2@@Z 00461c90 f i CheckGroupBox.obj
 0001:00060cc0       ??0_Node@?$_List_nod@PAVCCheckGroupBox@@V?$allocator@PAVCCheckGroupBox@@@std@@@std@@QAE@PAU012@0ABQAVCCheckGroupBox@@@Z 00461cc0 f i CheckGroupBox.obj
 0001:00060d00       ?max_size@?$allocator@PAVCCheckGroupBox@@@std@@QBEIXZ 00461d00 f i CheckGroupBox.obj
 0001:00060d50       ??$_Allocate@U_Node@?$_List_nod@PAVCCheckGroupBox@@V?$allocator@PAVCCheckGroupBox@@@std@@@std@@@std@@YAPAU_Node@?$_List_nod@PAVCCheckGroupBox@@V?$allocator@PAVCCheckGroupBox@@@std@@@0@IPAU120@@Z 00461d50 f i CheckGroupBox.obj
 0001:00060d70       ??$_Construct@PAU_Node@?$_List_nod@PAVCCheckGroupBox@@V?$allocator@PAVCCheckGroupBox@@@std@@@std@@PAU123@@std@@YAXPAPAU_Node@?$_List_nod@PAVCCheckGroupBox@@V?$allocator@PAVCCheckGroupBox@@@std@@@0@ABQAU120@@Z 00461d70 f i CheckGroupBox.obj
 0001:00060dd0       ??$_Destroy@PAU_Node@?$_List_nod@PAVCCheckGroupBox@@V?$allocator@PAVCCheckGroupBox@@@std@@@std@@@std@@YAXPAPAU_Node@?$_List_nod@PAVCCheckGroupBox@@V?$allocator@PAVCCheckGroupBox@@@std@@@0@@Z 00461dd0 f i CheckGroupBox.obj
 0001:00060dd0       ??$_Destroy@U_Node@?$_List_nod@PAVCCheckGroupBox@@V?$allocator@PAVCCheckGroupBox@@@std@@@std@@@std@@YAXPAU_Node@?$_List_nod@PAVCCheckGroupBox@@V?$allocator@PAVCCheckGroupBox@@@std@@@0@@Z 00461dd0 f i CheckGroupBox.obj
 0001:00060dd0       ??3@YAXPAX0@Z              00461dd0 f i FaxManager.obj
 0001:00060de0       ?what@logic_error@std@@UBEPBDXZ 00461de0 f i CheckGroupBox.obj
 0001:00060e20       ??_Elogic_error@std@@UAEPAXI@Z 00461e20 f i CheckGroupBox.obj
 0001:00060e20       ??_Glogic_error@std@@UAEPAXI@Z 00461e20 f i CheckGroupBox.obj
 0001:00060e60       ??1logic_error@std@@UAE@XZ 00461e60 f i CheckGroupBox.obj
 0001:00060ee0       ??0length_error@std@@QAE@ABV?$basic_string@DU?$char_traits@D@std@@V?$allocator@D@2@@1@@Z 00461ee0 f i CheckGroupBox.obj
 0001:00060f20       ??0logic_error@std@@QAE@ABV?$basic_string@DU?$char_traits@D@std@@V?$allocator@D@2@@1@@Z 00461f20 f i CheckGroupBox.obj
 0001:00060fb0       ??1length_error@std@@UAE@XZ 00461fb0 f i CheckGroupBox.obj
 0001:00060fe0       ??_Glength_error@std@@UAEPAXI@Z 00461fe0 f i CheckGroupBox.obj
 0001:00060fe0       ??_Elength_error@std@@UAEPAXI@Z 00461fe0 f i CheckGroupBox.obj
 0001:00061020       ??0CDataRecorderConnect@@QAE@XZ 00462020 f   DataRecorderConnect.obj
 0001:00061220       ??1CDataRecorderConnect@@UAE@XZ 00462220 f   DataRecorderConnect.obj
 0001:00061370       ?RemoveAllQueuedSQLStatements@CDataRecorderConnect@@IAEXXZ 00462370 f   DataRecorderConnect.obj
 0001:000614a0       ?SetSenderParty@CDataRecorderConnect@@QAEXE@Z 004624a0 f   DataRecorderConnect.obj
 0001:000614c0       ?ChangeQueueSize@CDataRecorderConnect@@QAEXH@Z 004624c0 f   DataRecorderConnect.obj
 0001:00061510       ?WaitForStartupToComplete@CDataRecorderConnect@@QAEHPBDIPAUHWND__@@@Z 00462510 f   DataRecorderConnect.obj
 0001:000615c0       ?WaitForShutdownToComplete@CDataRecorderConnect@@QAEXXZ 004625c0 f   DataRecorderConnect.obj
 0001:00061640       ?Run@CDataRecorderConnect@@MAEHXZ 00462640 f   DataRecorderConnect.obj
 0001:00061950       ?OnConnect@CDataRecorderConnect@@UAEXH@Z 00462950 f   DataRecorderConnect.obj
 0001:000619b0       ?OnClose@CDataRecorderConnect@@UAEXH@Z 004629b0 f   DataRecorderConnect.obj
 0001:000619f0       ?OnReceive@CDataRecorderConnect@@UAEXH@Z 004629f0 f   DataRecorderConnect.obj
 0001:00061ba0       ?InitSock@CDataRecorderConnect@@IAEHXZ 00462ba0 f   DataRecorderConnect.obj
 0001:00061cb0       ?CloseConnection@CDataRecorderConnect@@QAEXXZ 00462cb0 f   DataRecorderConnect.obj
 0001:00061d10       ?SendControlData@CDataRecorderConnect@@IAEHPBEI@Z 00462d10 f   DataRecorderConnect.obj
 0001:00061d60       ?GetConnected@CDataRecorderConnect@@QAEHXZ 00462d60 f   DataRecorderConnect.obj
 0001:00061d80       ?SetConnected@CDataRecorderConnect@@IAEXH@Z 00462d80 f   DataRecorderConnect.obj
 0001:00061eb0       ?IsSockTimeOut@CDataRecorderConnect@@QAEHXZ 00462eb0 f   DataRecorderConnect.obj
 0001:00061ff0       ?AddMessage@CDataRecorderConnect@@QAEHV?$CStringT@DV?$StrTraitMFC_DLL@DV?$ChTraitsCRT@D@ATL@@@@@ATL@@@Z 00462ff0 f   DataRecorderConnect.obj
 0001:000622a0       ?SendProtocolData@CDataRecorderConnect@@QAEHGGPAE@Z 004632a0 f   DataRecorderConnect.obj
 0001:00062430       ?GetMinimumMessageSize@CDataRecorderConnect@@QBEIXZ 00463430 f   DataRecorderConnect.obj
 0001:00062450       ?GetMessageSize@CDataRecorderConnect@@IAEIXZ 00463450 f   DataRecorderConnect.obj
 0001:000624f0       ?GetRequests@CDataRecorderConnect@@IAEXXZ 004634f0 f   DataRecorderConnect.obj
 0001:00062620       ?ProcessRequests@CDataRecorderConnect@@IAEHXZ 00463620 f   DataRecorderConnect.obj
 0001:00062710       ??_GCDataRecorderConnect@@UAEPAXI@Z 00463710 f i DataRecorderConnect.obj
 0001:00062710       ??_ECDataRecorderConnect@@UAEPAXI@Z 00463710 f i DataRecorderConnect.obj
 0001:00062750       ??_ECDataRecorderConnect@@W7AEPAXI@Z 00463750 f i DataRecorderConnect.obj
 0001:00062760       ??_ECDataRecorderConnect@@WDE@AEPAXI@Z 00463760 f i DataRecorderConnect.obj
 0001:00062770       ??_ECDataRecorderConnect@@WEI@AEPAXI@Z 00463770 f i DataRecorderConnect.obj
 0001:00062780       ??0CDirTreeControl@@QAE@XZ 00463780 f   DirTreeControl.obj
 0001:000628a0       ??1CDirTreeControl@@UAE@XZ 004638a0 f   DirTreeControl.obj
 0001:000629a0       ?_GetBaseClass@CDirTreeControl@@KGPAUCRuntimeClass@@XZ 004639a0 f   DirTreeControl.obj
 0001:000629c0       ?GetThisClass@CDirTreeControl@@SGPAUCRuntimeClass@@XZ 004639c0 f   DirTreeControl.obj
 0001:000629d0       ?GetRuntimeClass@CDirTreeControl@@UBEPAUCRuntimeClass@@XZ 004639d0 f   DirTreeControl.obj
 0001:000629f0       ?GetThisMessageMap@CDirTreeControl@@KGPBUAFX_MSGMAP@@XZ 004639f0 f   DirTreeControl.obj
 0001:00062a00       ?GetMessageMap@CDirTreeControl@@MBEPBUAFX_MSGMAP@@XZ 00463a00 f   DirTreeControl.obj
 0001:00062a20       ?PreCreateWindow@CDirTreeControl@@MAEHAAUtagCREATESTRUCTA@@@Z 00463a20 f   DirTreeControl.obj
 0001:00062a70       ?DisplayTree@CDirTreeControl@@QAEHPBDH@Z 00463a70 f   DirTreeControl.obj
 0001:00062bd0       ?GetSysImgList@CDirTreeControl@@QAEHXZ 00463bd0 f   DirTreeControl.obj
 0001:00062d20       ?DisplayDrives@CDirTreeControl@@QAEHXZ 00463d20 f   DirTreeControl.obj
 0001:00062e70       ?DisplayPath@CDirTreeControl@@QAEXPAU_TREEITEM@@PBD@Z 00463e70 f   DirTreeControl.obj
 0001:00063310       ?AddItem@CDirTreeControl@@QAEPAU_TREEITEM@@PAU2@PBD@Z 00464310 f   DirTreeControl.obj
 0001:000636e0       ?GetSubPath@CDirTreeControl@@QAEPBDPBD@Z 004646e0 f   DirTreeControl.obj
 0001:000638a0       ?FindSubDir@CDirTreeControl@@QAEHPBD@Z 004648a0 f   DirTreeControl.obj
 0001:00063ae0       ?GetFullPath@CDirTreeControl@@QAE?AV?$CStringT@DV?$StrTraitMFC_DLL@DV?$ChTraitsCRT@D@ATL@@@@@ATL@@PAU_TREEITEM@@@Z 00464ae0 f   DirTreeControl.obj
 0001:00063d40       ?ExpandTreeItem@CDirTreeControl@@QAEXPAU_TREEITEM@@I@Z 00464d40 f   DirTreeControl.obj
 0001:00063eb0       ?OnFolderSelchanged@CDirTreeControl@@QAEXPAUtagNMHDR@@PAJ@Z 00464eb0 f   DirTreeControl.obj
 0001:00063f10       ?FindItemWithFullName@CDirTreeControl@@QAEPAU_TREEITEM@@PBD@Z 00464f10 f   DirTreeControl.obj
 0001:000642f0       ?GetPointItem@CDirTreeControl@@QAEPAU_TREEITEM@@VCPoint@@@Z 004652f0 f   DirTreeControl.obj
 0001:000643a0       ??_GCDirTreeControl@@UAEPAXI@Z 004653a0 f i DirTreeControl.obj
 0001:000643a0       ??_ECDirTreeControl@@UAEPAXI@Z 004653a0 f i DirTreeControl.obj
 0001:000643e0       ??8ATL@@YA_NABV?$CStringT@DV?$StrTraitMFC_DLL@DV?$ChTraitsCRT@D@ATL@@@@@0@D@Z 004653e0 f i DirTreeControl.obj
 0001:00064450       ??9ATL@@YA_NABV?$CStringT@DV?$StrTraitMFC_DLL@DV?$ChTraitsCRT@D@ATL@@@@@0@D@Z 00465450 f i DirTreeControl.obj
 0001:000644c0       ??0?$CArray@VCTime@ATL@@AAV12@@@QAE@XZ 004654c0 f i DirTreeControl.obj
 0001:00064520       ?Add@?$CArray@VCTime@ATL@@AAV12@@@QAEHAAVCTime@ATL@@@Z 00465520 f i DirTreeControl.obj
 0001:00064570       ??1?$CArray@VCTime@ATL@@AAV12@@@UAE@XZ 00465570 f i DirTreeControl.obj
 0001:00064630       ?Serialize@?$CArray@VCTime@ATL@@AAV12@@@UAEXAAVCArchive@@@Z 00465630 f i DirTreeControl.obj
 0001:000646d0       ?Dump@?$CArray@VCTime@ATL@@AAV12@@@UBEXAAVCDumpContext@@@Z 004656d0 f i DirTreeControl.obj
 0001:00064760       ?AssertValid@?$CArray@VCTime@ATL@@AAV12@@@UBEXXZ 00465760 f i DirTreeControl.obj
 0001:00064860       ??_G?$CArray@VCTime@ATL@@AAV12@@@UAEPAXI@Z 00465860 f i DirTreeControl.obj
 0001:00064860       ??_E?$CArray@VCTime@ATL@@AAV12@@@UAEPAXI@Z 00465860 f i DirTreeControl.obj
 0001:000648a0       ?SetSize@?$CArray@VCTime@ATL@@AAV12@@@QAEXHH@Z 004658a0 f i DirTreeControl.obj
 0001:00064d10       ?SetAtGrow@?$CArray@VCTime@ATL@@AAV12@@@QAEXHAAVCTime@ATL@@@Z 00465d10 f i DirTreeControl.obj
 0001:00064da0       ??$SerializeElements@VCTime@ATL@@@@YGXAAVCArchive@@PAVCTime@ATL@@H@Z 00465da0 f i DirTreeControl.obj
 0001:00064ed0       ??$DumpElements@VCTime@ATL@@@@YGXAAVCDumpContext@@PBVCTime@ATL@@H@Z 00465ed0 f i DirTreeControl.obj
 0001:00064f10       ??0CHyperLink@@QAE@XZ      00465f10 f   HyperLink.obj
 0001:00065000       ??1CHyperLink@@UAE@XZ      00466000 f   HyperLink.obj
 0001:000650b0       ?GetThisMessageMap@CHyperLink@@KGPBUAFX_MSGMAP@@XZ 004660b0 f   HyperLink.obj
 0001:000650c0       ?GetMessageMap@CHyperLink@@MBEPBUAFX_MSGMAP@@XZ 004660c0 f   HyperLink.obj
 0001:000650e0       ?PreTranslateMessage@CHyperLink@@UAEHPAUtagMSG@@@Z 004660e0 f   HyperLink.obj
 0001:00065120       ?CtlColor@CHyperLink@@IAEPAUHBRUSH__@@PAVCDC@@I@Z 00466120 f   HyperLink.obj
 0001:00065270       ?OnSetCursor@CHyperLink@@IAEHPAVCWnd@@II@Z 00466270 f   HyperLink.obj
 0001:000652b0       ?PreSubclassWindow@CHyperLink@@MAEXXZ 004662b0 f   HyperLink.obj
 0001:000654d0       ?SetURL@CHyperLink@@QAEXABV?$CStringT@DV?$StrTraitMFC_DLL@DV?$ChTraitsCRT@D@ATL@@@@@ATL@@@Z 004664d0 f   HyperLink.obj
 0001:00065520       ?SetColours@CHyperLink@@QAEXKK@Z 00466520 f   HyperLink.obj
 0001:00065560       ?SetVisited@CHyperLink@@QAEXH@Z 00466560 f   HyperLink.obj
 0001:000655a0       ?SetUnderline@CHyperLink@@QAEXH@Z 004665a0 f   HyperLink.obj
 0001:000655e0       ?SetAutoSize@CHyperLink@@QAEXH@Z 004665e0 f   HyperLink.obj
 0001:00065610       ?PositionWindow@CHyperLink@@IAEXXZ 00466610 f   HyperLink.obj
 0001:00065810       ?OnClicked@CHyperLink@@IAEXXZ 00466810 f   HyperLink.obj
 0001:000658a0       ?GetRegKey@CHyperLink@@IAEJPAUHKEY__@@PBDPAD@Z 004668a0 f   HyperLink.obj
 0001:000659c0       ?ReportError@CHyperLink@@IAEXH@Z 004669c0 f   HyperLink.obj
 0001:00065ce0       ?GotoURL@CHyperLink@@IAEPAUHINSTANCE__@@PBDH@Z 00466ce0 f   HyperLink.obj
 0001:00065ed0       ?SetItalic@CHyperLink@@QAEXH@Z 00466ed0 f   HyperLink.obj
 0001:00065f10       ?SetToolTip@CHyperLink@@QAEXABV?$CStringT@DV?$StrTraitMFC_DLL@DV?$ChTraitsCRT@D@ATL@@@@@ATL@@@Z 00466f10 f   HyperLink.obj
 0001:00065f60       ??_GCHyperLink@@UAEPAXI@Z  00466f60 f i HyperLink.obj
 0001:00065f60       ??_ECHyperLink@@UAEPAXI@Z  00466f60 f i HyperLink.obj
 0001:00065fa0       __tcsstr                   00466fa0 f i HyperLink.obj
 0001:00065fd0       ??0CManulCallCom@@QAE@XZ   00466fd0 f   ManulCallCom.obj
 0001:00066010       ??1CManulCallCom@@UAE@XZ   00467010 f   ManulCallCom.obj
 0001:00066080       ?ClearDispatchObject@CManulCallCom@@QAEXXZ 00467080 f   ManulCallCom.obj
 0001:00066110       ?IsCreateObject@CManulCallCom@@QAEHXZ 00467110 f   ManulCallCom.obj
 0001:00066160       ?CreateObjectEx@CManulCallCom@@QAEJPAG@Z 00467160 f   ManulCallCom.obj
 0001:000662e0       ?Invoke@CManulCallCom@@QAAJGPAUtagVARIANT@@PAUtagEXCEPINFO@@PAIPAGPBDZZ 004672e0 f   ManulCallCom.obj
 0001:00066960       ?CountArgsInFormat@CManulCallCom@@AAEJPBDPAI@Z 00467960 f   ManulCallCom.obj
 0001:00066a40       ?GetNextVarType@CManulCallCom@@AAEPBDPBDPAG@Z 00467a40 f   ManulCallCom.obj
 0001:00066c70       ??_GCManulCallCom@@UAEPAXI@Z 00467c70 f i ManulCallCom.obj
 0001:00066c70       ??_ECManulCallCom@@UAEPAXI@Z 00467c70 f i ManulCallCom.obj
 0001:00066cb0       ??0CFastMessageQ@@QAE@HH@Z 00467cb0 f   MessageQ.obj
 0001:00066e80       ??1CFastMessageQ@@UAE@XZ   00467e80 f   MessageQ.obj
 0001:00066f70       ?SetMQName@CFastMessageQ@@QAEXPBD@Z 00467f70 f   MessageQ.obj
 0001:00066fd0       ?ReclaimQueueLength@CFastMessageQ@@QAEHHH@Z 00467fd0 f   MessageQ.obj
 0001:00067200       ??0CFastMessageNode@CFastMessageQ@@QAE@H@Z 00468200 f   MessageQ.obj
 0001:000672a0       ??1CFastMessageNode@CFastMessageQ@@QAE@XZ 004682a0 f   MessageQ.obj
 0001:000672f0       ?WriteMessage@CFastMessageNode@CFastMessageQ@@QAEXPBEIK@Z 004682f0 f   MessageQ.obj
 0001:000673d0       ?ReadMessage@CFastMessageNode@CFastMessageQ@@QAEIPAEPAK@Z 004683d0 f   MessageQ.obj
 0001:00067490       ?GetMQLength@CFastMessageQ@@QAEHXZ 00468490 f   MessageQ.obj
 0001:000674e0       ?GetRepeatTimes@CFastMessageQ@@QAEHXZ 004684e0 f   MessageQ.obj
 0001:00067530       ?SetRepeatTimes@CFastMessageQ@@QAEXH@Z 00468530 f   MessageQ.obj
 0001:00067570       ?GetMaxRepeatTimes@CFastMessageQ@@QAEHXZ 00468570 f   MessageQ.obj
 0001:000675c0       ?SetMaxRepeatTimes@CFastMessageQ@@QAEXH@Z 004685c0 f   MessageQ.obj
 0001:00067600       ?GetMQMaxLength@CFastMessageQ@@QAEHXZ 00468600 f   MessageQ.obj
 0001:00067650       ?AddMessage@CFastMessageQ@@QAEHPBEIK@Z 00468650 f   MessageQ.obj
 0001:00067700       ?GetMessageA@CFastMessageQ@@QAEHPAEPAIPAK@Z 00468700 f   MessageQ.obj
 0001:000677d0       ?RemoveMessage@CFastMessageQ@@QAEHXZ 004687d0 f   MessageQ.obj
 0001:00067890       ?RemoveAllMessage@CFastMessageQ@@QAEHXZ 00468890 f   MessageQ.obj
 0001:000678f0       ?LockQueue@CFastMessageQ@@QAEXXZ 004688f0 f   MessageQ.obj
 0001:00067920       ?UnlockQueue@CFastMessageQ@@QAEXXZ 00468920 f   MessageQ.obj
 0001:00067950       ??_GCFastMessageQ@@UAEPAXI@Z 00468950 f i MessageQ.obj
 0001:00067950       ??_ECFastMessageQ@@UAEPAXI@Z 00468950 f i MessageQ.obj
 0001:00067990       ??_GCFastMessageNode@CFastMessageQ@@QAEPAXI@Z 00468990 f i MessageQ.obj
 0001:000679d0       ??0CMySQLLog@@QAE@XZ       004689d0 f   MySQLLog.obj
 0001:00067ac0       ??1CMySQLLog@@UAE@XZ       00468ac0 f   MySQLLog.obj
 0001:00067b60       ?GetMaxFileRows@CMySQLLog@@QAEIXZ 00468b60 f   MySQLLog.obj
 0001:00067b80       ?SetMaxFileRows@CMySQLLog@@QAEXI@Z 00468b80 f   MySQLLog.obj
 0001:00067bb0       ?SetFilePrefix@CMySQLLog@@QAEXPBD@Z 00468bb0 f   MySQLLog.obj
 0001:00067c30       ?SetRemoFlag@CMySQLLog@@QAEXPBD@Z 00468c30 f   MySQLLog.obj
 0001:00067ca0       ?CloseSQLFile@CMySQLLog@@QAEXXZ 00468ca0 f   MySQLLog.obj
 0001:00067cf0       ?OpenSQLFile@CMySQLLog@@QAEPAXXZ 00468cf0 f   MySQLLog.obj
 0001:00067e70       ?WriteToFile@CMySQLLog@@QAEXPBDH@Z 00468e70 f   MySQLLog.obj
 0001:00068130       ??_ECMySQLLog@@UAEPAXI@Z   00469130 f i MySQLLog.obj
 0001:00068130       ??_GCMySQLLog@@UAEPAXI@Z   00469130 f i MySQLLog.obj
 0001:00068170       ??0CMySysInfo@@QAE@XZ      00469170 f   MySysInfo.obj
 0001:00068190       ??1CMySysInfo@@UAE@XZ      00469190 f   MySysInfo.obj
 0001:000681b0       ?GetLocalNumberOfInterfaces@CMySysInfo@@QAEIXZ 004691b0 f   MySysInfo.obj
 0001:00068280       ?GetLocalNICMAC@CMySysInfo@@QAE?AV?$CStringT@DV?$StrTraitMFC_DLL@DV?$ChTraitsCRT@D@ATL@@@@@ATL@@E@Z 00469280 f   MySysInfo.obj
 0001:000685a0       ?FindLocalNICMAC@CMySysInfo@@QAEEPBD@Z 004695a0 f   MySysInfo.obj
 0001:000688b0       ?GetHDVolumeInformation@CMySysInfo@@QAEIPBD@Z 004698b0 f   MySysInfo.obj
 0001:00068940       ?QueryDriveType@CMySysInfo@@QAEIV?$CStringT@DV?$StrTraitMFC_DLL@DV?$ChTraitsCRT@D@ATL@@@@@ATL@@@Z 00469940 f   MySysInfo.obj
 0001:00068a20       ?QueryDriveSpace@CMySysInfo@@QAEHV?$CStringT@DV?$StrTraitMFC_DLL@DV?$ChTraitsCRT@D@ATL@@@@@ATL@@PA_J11@Z 00469a20 f   MySysInfo.obj
 0001:00068bc0       ??_ECMySysInfo@@UAEPAXI@Z  00469bc0 f i MySysInfo.obj
 0001:00068bc0       ??_GCMySysInfo@@UAEPAXI@Z  00469bc0 f i MySysInfo.obj
 0001:00068c00       ??0CMyThread@@QAE@XZ       00469c00 f   MyThread.obj
 0001:00068c40       ??1CMyThread@@UAE@XZ       00469c40 f   MyThread.obj
 0001:00068c90       ?GetHandle@CMyThread@@QBEPAXXZ 00469c90 f   MyThread.obj
 0001:00068cb0       ?GetThreadID@CMyThread@@QBEKXZ 00469cb0 f   MyThread.obj
 0001:00068cd0       ?Start@CMyThread@@QAEXK_N@Z 00469cd0 f   MyThread.obj
 0001:00068d50       ?Wait@CMyThread@@QBEXXZ    00469d50 f   MyThread.obj
 0001:00068d90       ?Wait@CMyThread@@QBE_NK@Z  00469d90 f   MyThread.obj
 0001:00068e50       ?ToRunThread@CMyThread@@AAEHXZ 00469e50 f   MyThread.obj
 0001:00068ee0       ?ThreadFunction@CMyThread@@CGIPAX@Z 00469ee0 f   MyThread.obj
 0001:00068f80       ??_ECMyThread@@UAEPAXI@Z   00469f80 f i MyThread.obj
 0001:00068f80       ??_GCMyThread@@UAEPAXI@Z   00469f80 f i MyThread.obj
 0001:00068fc0       ??0CPCSCommunicationEvent@@QAE@XZ 00469fc0 f   PCSCommunicationEvent.obj
 0001:00069020       ??1CPCSCommunicationEvent@@UAE@XZ 0046a020 f   PCSCommunicationEvent.obj
 0001:00069070       ?Reset@CPCSCommunicationEvent@@QAE_NXZ 0046a070 f   PCSCommunicationEvent.obj
 0001:000690b0       ?Pulse@CPCSCommunicationEvent@@QAE_NXZ 0046a0b0 f   PCSCommunicationEvent.obj
 0001:000690f0       ??_ECPCSCommunicationEvent@@UAEPAXI@Z 0046a0f0 f i PCSCommunicationEvent.obj
 0001:000690f0       ??_GCPCSCommunicationEvent@@UAEPAXI@Z 0046a0f0 f i PCSCommunicationEvent.obj
 0001:00069130       ?_GetBaseClass@CSubclassWnd@@KGPAUCRuntimeClass@@XZ 0046a130 f   Subclass.obj
 0001:00069150       ?GetThisClass@CSubclassWnd@@SGPAUCRuntimeClass@@XZ 0046a150 f   Subclass.obj
 0001:00069160       ?GetRuntimeClass@CSubclassWnd@@UBEPAUCRuntimeClass@@XZ 0046a160 f   Subclass.obj
 0001:00069180       ??0CSubclassWnd@@QAE@XZ    0046a180 f   Subclass.obj
 0001:000691d0       ??1CSubclassWnd@@UAE@XZ    0046a1d0 f   Subclass.obj
 0001:00069240       ?HookWindow@CSubclassWnd@@QAEHPAUHWND__@@@Z 0046a240 f   Subclass.obj
 0001:00069300       ?WindowProc@CSubclassWnd@@MAEJIIJ@Z 0046a300 f   Subclass.obj
 0001:000693b0       ?Default@CSubclassWnd@@IAEJXZ 0046a3b0 f   Subclass.obj
 0001:00069400       ?AssertValid@CSubclassWnd@@UBEXXZ 0046a400 f   Subclass.obj
 0001:000694c0       ?Dump@CSubclassWnd@@UBEXAAVCDumpContext@@@Z 0046a4c0 f   Subclass.obj
 0001:000694f0       ?HookWndProc@@YGJPAUHWND__@@IIJ@Z 0046a4f0 f   Subclass.obj
 0001:00069630       ??0CSubclassWndMap@@QAE@XZ 0046a630 f   Subclass.obj
 0001:00069670       ??1CSubclassWndMap@@UAE@XZ 0046a670 f   Subclass.obj
 0001:000696a0       ?GetHookMap@CSubclassWndMap@@SAAAV1@XZ 0046a6a0 f   Subclass.obj
 0001:00069720       ?Add@CSubclassWndMap@@QAEXPAUHWND__@@PAVCSubclassWnd@@@Z 0046a720 f   Subclass.obj
 0001:000697f0       ?Remove@CSubclassWndMap@@QAEXPAVCSubclassWnd@@@Z 0046a7f0 f   Subclass.obj
 0001:00069920       ?RemoveAll@CSubclassWndMap@@QAEXPAUHWND__@@@Z 0046a920 f   Subclass.obj
 0001:00069970       ?Lookup@CSubclassWndMap@@QAEPAVCSubclassWnd@@PAUHWND__@@@Z 0046a970 f   Subclass.obj
 0001:00069a10       ??_GCSubclassWnd@@UAEPAXI@Z 0046aa10 f i Subclass.obj
 0001:00069a10       ??_ECSubclassWnd@@UAEPAXI@Z 0046aa10 f i Subclass.obj
 0001:00069a50       ??_ECSubclassWndMap@@UAEPAXI@Z 0046aa50 f i Subclass.obj
 0001:00069a50       ??_GCSubclassWndMap@@UAEPAXI@Z 0046aa50 f i Subclass.obj
 0001:00069a90       ?_GetBaseClass@CTrayIcon@@KGPAUCRuntimeClass@@XZ 0046aa90 f   TrayIcon.obj
 0001:00069ab0       ?GetThisClass@CTrayIcon@@SGPAUCRuntimeClass@@XZ 0046aab0 f   TrayIcon.obj
 0001:00069ac0       ?GetRuntimeClass@CTrayIcon@@UBEPAUCRuntimeClass@@XZ 0046aac0 f   TrayIcon.obj
 0001:00069ae0       ??0CTrayIcon@@QAE@IH@Z     0046aae0 f   TrayIcon.obj
 0001:00069bd0       ??1CTrayIcon@@UAE@XZ       0046abd0 f   TrayIcon.obj
 0001:00069c60       ?SetNotificationWnd@CTrayIcon@@QAEXPAVCWnd@@I@Z 0046ac60 f   TrayIcon.obj
 0001:00069d50       ?SetIcon@CTrayIcon@@QAEHI@Z 0046ad50 f   TrayIcon.obj
 0001:00069dc0       ?SetIcon@CTrayIcon@@QAEHPAUHICON__@@PBD@Z 0046adc0 f   TrayIcon.obj
 0001:00069ee0       ?WindowProc@CTrayHook@CTrayIcon@@EAEJIIJ@Z 0046aee0 f   TrayIcon.obj
 0001:00069f90       ?OnTrayNotify@CTrayIcon@@UAEJIJ@Z 0046af90 f   TrayIcon.obj
 0001:0006a180       ?OnTaskBarCreate@CTrayIcon@@UAEJIJ@Z 0046b180 f   TrayIcon.obj
 0001:0006a1d0       ??_ECTrayIcon@@UAEPAXI@Z   0046b1d0 f i TrayIcon.obj
 0001:0006a1d0       ??_GCTrayIcon@@UAEPAXI@Z   0046b1d0 f i TrayIcon.obj
 0001:0006a210       ??0CTrayHook@CTrayIcon@@QAE@XZ 0046b210 f i TrayIcon.obj
 0001:0006a240       ??1CTrayHook@CTrayIcon@@UAE@XZ 0046b240 f i TrayIcon.obj
 0001:0006a270       ??_ECTrayHook@CTrayIcon@@UAEPAXI@Z 0046b270 f i TrayIcon.obj
 0001:0006a270       ??_GCTrayHook@CTrayIcon@@UAEPAXI@Z 0046b270 f i TrayIcon.obj
 0001:0006a2b0       ?HookWindow@CSubclassWnd@@QAEHPAVCWnd@@@Z 0046b2b0 f i TrayIcon.obj
 0001:0006a2e0       __tcsncpy                  0046b2e0 f i TrayIcon.obj
 0001:0006a310       ?SetTraceFilePrefix@@YAXPBD@Z 0046b310 f   XYTrace.obj
 0001:0006a340       ?SetTraceLevel@@YAXH@Z     0046b340 f   XYTrace.obj
 0001:0006a370       ?WriteTrace@@YAXHPBDZZ     0046b370 f   XYTrace.obj
 0001:0006a610       ?Lock@XYTraceHelper@@AAEXXZ 0046b610 f i XYTrace.obj
 0001:0006a690       ?Unlock@XYTraceHelper@@AAEXXZ 0046b690 f i XYTrace.obj
 0001:0006a6e0       ?SetTraceFilePrefix@XYTraceHelper@@AAEXPBD@Z 0046b6e0 f i XYTrace.obj
 0001:0006a7a0       ?CloseTraceFile@XYTraceHelper@@AAEXXZ 0046b7a0 f i XYTrace.obj
 0001:0006a7f0       ?SetTraceLevel@XYTraceHelper@@AAEXH@Z 0046b7f0 f i XYTrace.obj
 0001:0006a820       ?OpenTraceFile@XYTraceHelper@@AAEPAXXZ 0046b820 f i XYTrace.obj
 0001:0006a9b0       ??0XYTraceHelper@@QAE@XZ   0046b9b0 f i XYTrace.obj
 0001:0006a9f0       ??1XYTraceHelper@@QAE@XZ   0046b9f0 f i XYTrace.obj
 0001:0006aa40       ?AsyncDataCallbackProc@@YGHKGJPAEKPAUINSERTINFO_T@@HK@Z 0046ba40 f   TTSInterface.obj
 0001:0006ac40       ??0CTTSServerInfo@@QAE@XZ  0046bc40 f   TTSInterface.obj
 0001:0006adb0       ??1CTTSServerInfo@@UAE@XZ  0046bdb0 f   TTSInterface.obj
 0001:0006ae40       ??4CTTSServerInfo@@QAEABV0@ABV0@@Z 0046be40 f   TTSInterface.obj
 0001:0006afa0       ??0CTTSBuffer@CTTSConnection@CTTSInterface@@QAE@HI@Z 0046bfa0 f   TTSInterface.obj
 0001:0006b050       ??1CTTSBuffer@CTTSConnection@CTTSInterface@@UAE@XZ 0046c050 f   TTSInterface.obj
 0001:0006b0c0       ?GetBufferIndex@CTTSBuffer@CTTSConnection@CTTSInterface@@QAEHXZ 0046c0c0 f   TTSInterface.obj
 0001:0006b0e0       ?CreateDataBuffer@CTTSBuffer@CTTSConnection@CTTSInterface@@IAEXJ@Z 0046c0e0 f   TTSInterface.obj
 0001:0006b180       ?ClearBuffer@CTTSBuffer@CTTSConnection@CTTSInterface@@QAEXXZ 0046c180 f   TTSInterface.obj
 0001:0006b200       ?GetTag@CTTSBuffer@CTTSConnection@CTTSInterface@@QAEHXZ 0046c200 f   TTSInterface.obj
 0001:0006b220       ?ResetTag@CTTSBuffer@CTTSConnection@CTTSInterface@@QAEXXZ 0046c220 f   TTSInterface.obj
 0001:0006b260       ?GetBufferData@CTTSBuffer@CTTSConnection@CTTSInterface@@QAEHPAE@Z 0046c260 f   TTSInterface.obj
 0001:0006b310       ?SetBufferData@CTTSBuffer@CTTSConnection@CTTSInterface@@QAEHPBEHH@Z 0046c310 f   TTSInterface.obj
 0001:0006b3c0       ?GetLockTick@CTTSBuffer@CTTSConnection@CTTSInterface@@QAEKXZ 0046c3c0 f   TTSInterface.obj
 0001:0006b3f0       ??0CTTSConnection@CTTSInterface@@QAE@III@Z 0046c3f0 f   TTSInterface.obj
 0001:0006b550       ??1CTTSConnection@CTTSInterface@@UAE@XZ 0046c550 f   TTSInterface.obj
 0001:0006b5e0       ?RemoveAllBuffers@CTTSConnection@CTTSInterface@@AAEXXZ 0046c5e0 f   TTSInterface.obj
 0001:0006b6e0       ?ReleaseLockedBuffers@CTTSConnection@CTTSInterface@@QAEXH@Z 0046c6e0 f   TTSInterface.obj
 0001:0006b7e0       ?GetIndex@CTTSConnection@CTTSInterface@@QAEIXZ 0046c7e0 f   TTSInterface.obj
 0001:0006b800       ?IsTaken@CTTSConnection@CTTSInterface@@QAEHXZ 0046c800 f   TTSInterface.obj
 0001:0006b860       ?SetUsed@CTTSConnection@CTTSInterface@@QAEXH@Z 0046c860 f   TTSInterface.obj
 0001:0006b900       ?GetCancelFlag@CTTSConnection@CTTSInterface@@QAEHXZ 0046c900 f   TTSInterface.obj
 0001:0006b920       ?SetCancelFlag@CTTSConnection@CTTSInterface@@QAEXH@Z 0046c920 f   TTSInterface.obj
 0001:0006b9f0       ?CheckDeadLock@CTTSConnection@CTTSInterface@@QAEHXZ 0046c9f0 f   TTSInterface.obj
 0001:0006bb20       ?CheckMaxIdleDuration@CTTSConnection@CTTSInterface@@QAEHXZ 0046cb20 f   TTSInterface.obj
 0001:0006bb40       ?ConnectServer@CTTSConnection@CTTSInterface@@QAEHVCTTSServerInfo@@@Z 0046cb40 f   TTSInterface.obj
 0001:0006bc30       ?OutputSetParamError@CTTSConnection@CTTSInterface@@AAEHPBDII@Z 0046cc30 f   TTSInterface.obj
 0001:0006be80       ?SetSynthParameters@CTTSConnection@CTTSInterface@@IAEHXZ 0046ce80 f   TTSInterface.obj
 0001:0006c1e0       ?DisconnectServer@CTTSConnection@CTTSInterface@@QAEHXZ 0046d1e0 f   TTSInterface.obj
 0001:0006c240       ?IsConnected@CTTSConnection@CTTSInterface@@QAEHXZ 0046d240 f   TTSInterface.obj
 0001:0006c270       ?ExecuteSynthesize@CTTSConnection@CTTSInterface@@QAEHPADH@Z 0046d270 f   TTSInterface.obj
 0001:0006c450       ?ReceiveTTSData@CTTSConnection@CTTSInterface@@QAEHPBEI@Z 0046d450 f   TTSInterface.obj
 0001:0006c5c0       ?FetchVoiceData@CTTSConnection@CTTSInterface@@QAEHHHPAEPAH@Z 0046d5c0 f   TTSInterface.obj
 0001:0006c6f0       ??0CTTSInterface@@QAE@XZ   0046d6f0 f   TTSInterface.obj
 0001:0006c7d0       ??1CTTSInterface@@UAE@XZ   0046d7d0 f   TTSInterface.obj
 0001:0006c850       ?InitializeTTS@CTTSInterface@@QAEHIII@Z 0046d850 f   TTSInterface.obj
 0001:0006ca90       ?UninitializeTTS@CTTSInterface@@QAEHXZ 0046da90 f   TTSInterface.obj
 0001:0006cb40       ?IsTTSEnabled@CTTSInterface@@QAEHXZ 0046db40 f   TTSInterface.obj
 0001:0006cb60       ?RemoveAllTTSConnections@CTTSInterface@@IAEXXZ 0046db60 f   TTSInterface.obj
 0001:0006cc80       ?FindTTSConnection@CTTSInterface@@IAEPAVCTTSConnection@1@I@Z 0046dc80 f   TTSInterface.obj
 0001:0006ccb0       ?GetAvailableTTSConnection@CTTSInterface@@IAEPAVCTTSConnection@1@H@Z 0046dcb0 f   TTSInterface.obj
 0001:0006cde0       ?CheckTTSConnections@CTTSInterface@@QAEXXZ 0046dde0 f   TTSInterface.obj
 0001:0006cec0       ?GetMaxTTSConnections@CTTSInterface@@QAEIXZ 0046dec0 f   TTSInterface.obj
 0001:0006cee0       ?GetMaxTTSBuffers@CTTSInterface@@QAEIXZ 0046dee0 f   TTSInterface.obj
 0001:0006cf00       ?GetTTSBufferSize@CTTSInterface@@QAEIXZ 0046df00 f   TTSInterface.obj
 0001:0006cf20       ?StartupTTS@CTTSInterface@@QAEHVCTTSServerInfo@@@Z 0046df20 f   TTSInterface.obj
 0001:0006d270       ?StopTTS@CTTSInterface@@QAEHXZ 0046e270 f   TTSInterface.obj
 0001:0006d370       ?IsTTSStarted@CTTSInterface@@QAEHXZ 0046e370 f   TTSInterface.obj
 0001:0006d390       ?TTSSynthesizeText@CTTSInterface@@QAEHPAHHPADHI@Z 0046e390 f   TTSInterface.obj
 0001:0006d4d0       ?TTSIsPlayBufferOK@CTTSInterface@@QAEHHHHPAEPAH@Z 0046e4d0 f   TTSInterface.obj
 0001:0006d550       ?TTSStopSynthesize@CTTSInterface@@QAEHHH@Z 0046e550 f   TTSInterface.obj
 0001:0006d630       ??_ECTTSBuffer@CTTSConnection@CTTSInterface@@UAEPAXI@Z 0046e630 f i TTSInterface.obj
 0001:0006d630       ??_GCTTSBuffer@CTTSConnection@CTTSInterface@@UAEPAXI@Z 0046e630 f i TTSInterface.obj
 0001:0006d670       ??_GCTTSConnection@CTTSInterface@@UAEPAXI@Z 0046e670 f i TTSInterface.obj
 0001:0006d670       ??_ECTTSConnection@CTTSInterface@@UAEPAXI@Z 0046e670 f i TTSInterface.obj
 0001:0006d6b0       ??_GCTTSInterface@@UAEPAXI@Z 0046e6b0 f i TTSInterface.obj
 0001:0006d6b0       ??_ECTTSInterface@@UAEPAXI@Z 0046e6b0 f i TTSInterface.obj
 0001:0006d6f0       ??0CASRInterface@@QAE@XZ   0046e6f0 f   ASRInterface.obj
 0001:0006d740       ?InitializeASR@CASRInterface@@QAEHPBDI@Z 0046e740 f   ASRInterface.obj
 0001:0006d7b0       ?CreateASRInstance@CASRInterface@@QAEHXZ 0046e7b0 f   ASRInterface.obj
 0001:0006d8a0       ?QuitASRInstance@CASRInterface@@QAEHXZ 0046e8a0 f   ASRInterface.obj
 0001:0006d8f0       ?IsASREnabled@CASRInterface@@QAEHXZ 0046e8f0 f   ASRInterface.obj
 0001:0006d910       ?SetASRParameters@CASRInterface@@QAEHPAF@Z 0046e910 f   ASRInterface.obj
 0001:0006d990       ?LoadGrammerFile@CASRInterface@@QAEHPBDH@Z 0046e990 f   ASRInterface.obj
 0001:0006da50       ?SetDeActiveGrammer@CASRInterface@@QAEHXZ 0046ea50 f   ASRInterface.obj
 0001:0006db30       ?UninitializeASR@CASRInterface@@QAEHXZ 0046eb30 f   ASRInterface.obj
 0001:0006db80       ?SetActiveGrammer@CASRInterface@@QAEHPBD@Z 0046eb80 f   ASRInterface.obj
 0001:0006dc30       ??1CASRInterface@@UAE@XZ   0046ec30 f   ASRInterface.obj
 0001:0006dcb0       ??_ECASRInterface@@UAEPAXI@Z 0046ecb0 f i ASRInterface.obj
 0001:0006dcb0       ??_GCASRInterface@@UAEPAXI@Z 0046ecb0 f i ASRInterface.obj
 0001:0006dcf0       ??0CCMEIVRServerInfo@@QAE@XZ 0046ecf0 f   CMEInterface.obj
 0001:0006dec0       ??1CCMEIVRServerInfo@@UAE@XZ 0046eec0 f   CMEInterface.obj
 0001:0006dfb0       ??4CCMEIVRServerInfo@@QAEABV0@ABV0@@Z 0046efb0 f   CMEInterface.obj
 0001:0006e0f0       ??0CCMEInterface@@QAE@XZ   0046f0f0 f   CMEInterface.obj
 0001:0006e130       ?StopCMEIVR@CCMEInterface@@QAEHXZ 0046f130 f   CMEInterface.obj
 0001:0006e270       ?OnCMEIVREvent@@YGIPAXPAUICMEIVRCommands@@PAUIPCSParam@@@Z 0046f270 f   CMEInterface.obj
 0001:0006fb60       ??1CCMEInterface@@UAE@XZ   00470b60 f   CMEInterface.obj
 0001:0006fbd0       ?StartupCMEIVR@CCMEInterface@@QAEHVCCMEIVRServerInfo@@@Z 00470bd0 f   CMEInterface.obj
 0001:00070000       ??_ECCMEInterface@@UAEPAXI@Z 00471000 f i CMEInterface.obj
 0001:00070000       ??_GCCMEInterface@@UAEPAXI@Z 00471000 f i CMEInterface.obj
 0001:00070040       ??1CPicaSoftContainerSingleLock@PicaSoft@@QAE@XZ 00471040 f i PCSParam.obj
 0001:000700a0       ?SetBOOL@CPCSParam@@UAGHPBDH@Z 004710a0 f   PCSParam.obj
 0001:00070180       ?GetBOOL@CPCSParam@@UAGHPBDH@Z 00471180 f   PCSParam.obj
 0001:00070350       ??1?$CPicaSoftIterator@V?$CPicaSoftMap@V?$CStringT@DV?$StrTraitMFC_DLL@DV?$ChTraitsCRT@D@ATL@@@@@ATL@@V12@@PicaSoft@@@PicaSoft@@UAE@XZ 00471350 f i PCSParam.obj
 0001:00070350       ??1CIterator@?$CPicaSoftMap@V?$CStringT@DV?$StrTraitMFC_DLL@DV?$ChTraitsCRT@D@ATL@@@@@ATL@@V12@@PicaSoft@@UAE@XZ 00471350 f i PCSParam.obj
 0001:000703c0       ??1CPicaSoftContainer@PicaSoft@@QAE@XZ 004713c0 f i PCSParam.obj
 0001:000703f0       ??1?$pair@$$CBV?$CStringT@DV?$StrTraitMFC_DLL@DV?$ChTraitsCRT@D@ATL@@@@@ATL@@V12@@std@@QAE@XZ 004713f0 f i PCSParam.obj
 0001:00070440       ??1_Node@?$_Tree_nod@V?$_Tmap_traits@V?$CStringT@DV?$StrTraitMFC_DLL@DV?$ChTraitsCRT@D@ATL@@@@@ATL@@V12@U?$less@V?$CStringT@DV?$StrTraitMFC_DLL@DV?$ChTraitsCRT@D@ATL@@@@@ATL@@@std@@V?$allocator@U?$pair@$$CBV?$CStringT@DV?$StrTraitMFC_DLL@DV?$ChTraitsCRT@D@ATL@@@@@ATL@@V12@@std@@@4@$0A@@std@@@std@@QAE@XZ 00471440 f i PCSParam.obj
 0001:00070470       ??_Eout_of_range@std@@UAEPAXI@Z 00471470 f i PCSParam.obj
 0001:00070470       ??_Gout_of_range@std@@UAEPAXI@Z 00471470 f i PCSParam.obj
 0001:000704b0       ??1out_of_range@std@@UAE@XZ 004714b0 f i PCSParam.obj
 0001:00070540       ??0CPicaSoftContainerSingleLock@PicaSoft@@QAE@PAVCPicaSoftContainer@1@H@Z 00471540 f i PCSParam.obj
 0001:000705e0       ?SetInt@CPCSParam@@UAGHPBDH@Z 004715e0 f   PCSParam.obj
 0001:00070750       ?GetInt@CPCSParam@@UAGHPBDH@Z 00471750 f   PCSParam.obj
 0001:00070920       ?_Lbound@?$_Tree@V?$_Tmap_traits@V?$CStringT@DV?$StrTraitMFC_DLL@DV?$ChTraitsCRT@D@ATL@@@@@ATL@@V12@U?$less@V?$CStringT@DV?$StrTraitMFC_DLL@DV?$ChTraitsCRT@D@ATL@@@@@ATL@@@std@@V?$allocator@U?$pair@$$CBV?$CStringT@DV?$StrTraitMFC_DLL@DV?$ChTraitsCRT@D@ATL@@@@@ATL@@V12@@std@@@4@$0A@@std@@@std@@IBEPAU_Node@?$_Tree_nod@V?$_Tmap_traits@V?$CStringT@DV?$StrTraitMFC_DLL@DV?$ChTraitsCRT@D@ATL@@@@@ATL@@V12@U?$less@V?$CStringT@DV?$StrTraitMFC_DLL@DV?$ChTraitsCRT@D@ATL@@@@@ATL@@@std@@V?$allocator@U?$pair@$$CBV?$CStringT@DV?$StrTraitMFC_DLL@DV?$ChTraitsCRT@D@ATL@@@@@ATL@@V12@@std@@@4@$0A@@std@@@2@ABV?$CStringT@DV?$StrTraitMFC_DLL@DV?$ChTraitsCRT@D@ATL@@@@@ATL@@@Z 00471920 f i PCSParam.obj
 0001:000709d0       ?_Inc@const_iterator@?$_Tree@V?$_Tmap_traits@V?$CStringT@DV?$StrTraitMFC_DLL@DV?$ChTraitsCRT@D@ATL@@@@@ATL@@V12@U?$less@V?$CStringT@DV?$StrTraitMFC_DLL@DV?$ChTraitsCRT@D@ATL@@@@@ATL@@@std@@V?$allocator@U?$pair@$$CBV?$CStringT@DV?$StrTraitMFC_DLL@DV?$ChTraitsCRT@D@ATL@@@@@ATL@@V12@@std@@@4@$0A@@std@@@std@@QAEXXZ 004719d0 f i PCSParam.obj
 0001:000709d0       ?_Inc@const_iterator@?$_Tree@V?$_Tmap_traits@KPAVCPicaSoftCallStackThread@PicaSoft@@U?$less@K@std@@V?$allocator@U?$pair@$$CBKPAVCPicaSoftCallStackThread@PicaSoft@@@std@@@4@$0A@@std@@@std@@QAEXXZ 004719d0 f i PicaSoftObject.obj
 0001:000709d0       ?_Inc@const_iterator@?$_Tree@V?$_Tmap_traits@KPAUSTimerTaskInfo@CPicaSoftThreadPool@PicaSoft@@U?$less@K@std@@V?$allocator@U?$pair@$$CBKPAUSTimerTaskInfo@CPicaSoftThreadPool@PicaSoft@@@std@@@5@$0A@@std@@@std@@QAEXXZ 004719d0 f i PicaSoftMultiThread.obj
 0001:000709d0       ?_Inc@const_iterator@?$_Tree@V?$_Tmap_traits@PAXPAVCSingleObject@CPicaSoftThreadPool@PicaSoft@@U?$less@PAX@std@@V?$allocator@U?$pair@QAXPAVCSingleObject@CPicaSoftThreadPool@PicaSoft@@@std@@@5@$0A@@std@@@std@@QAEXXZ 004719d0 f i PicaSoftMultiThread.obj
 0001:00070a90       ?_Buynode@?$_Tree@V?$_Tmap_traits@V?$CStringT@DV?$StrTraitMFC_DLL@DV?$ChTraitsCRT@D@ATL@@@@@ATL@@V12@U?$less@V?$CStringT@DV?$StrTraitMFC_DLL@DV?$ChTraitsCRT@D@ATL@@@@@ATL@@@std@@V?$allocator@U?$pair@$$CBV?$CStringT@DV?$StrTraitMFC_DLL@DV?$ChTraitsCRT@D@ATL@@@@@ATL@@V12@@std@@@4@$0A@@std@@@std@@IAEPAU_Node@?$_Tree_nod@V?$_Tmap_traits@V?$CStringT@DV?$StrTraitMFC_DLL@DV?$ChTraitsCRT@D@ATL@@@@@ATL@@V12@U?$less@V?$CStringT@DV?$StrTraitMFC_DLL@DV?$ChTraitsCRT@D@ATL@@@@@ATL@@@std@@V?$allocator@U?$pair@$$CBV?$CStringT@DV?$StrTraitMFC_DLL@DV?$ChTraitsCRT@D@ATL@@@@@ATL@@V12@@std@@@4@$0A@@std@@@2@XZ 00471a90 f i PCSParam.obj
 0001:00070bc0       ?_Buynode@?$_Tree@V?$_Tmap_traits@V?$CStringT@DV?$StrTraitMFC_DLL@DV?$ChTraitsCRT@D@ATL@@@@@ATL@@V12@U?$less@V?$CStringT@DV?$StrTraitMFC_DLL@DV?$ChTraitsCRT@D@ATL@@@@@ATL@@@std@@V?$allocator@U?$pair@$$CBV?$CStringT@DV?$StrTraitMFC_DLL@DV?$ChTraitsCRT@D@ATL@@@@@ATL@@V12@@std@@@4@$0A@@std@@@std@@IAEPAU_Node@?$_Tree_nod@V?$_Tmap_traits@V?$CStringT@DV?$StrTraitMFC_DLL@DV?$ChTraitsCRT@D@ATL@@@@@ATL@@V12@U?$less@V?$CStringT@DV?$StrTraitMFC_DLL@DV?$ChTraitsCRT@D@ATL@@@@@ATL@@@std@@V?$allocator@U?$pair@$$CBV?$CStringT@DV?$StrTraitMFC_DLL@DV?$ChTraitsCRT@D@ATL@@@@@ATL@@V12@@std@@@4@$0A@@std@@@2@PAU342@00ABU?$pair@$$CBV?$CStringT@DV?$StrTraitMFC_DLL@DV?$ChTraitsCRT@D@ATL@@@@@ATL@@V12@@2@D@Z 00471bc0 f i PCSParam.obj
 0001:00070d00       ??$_Destroy@U_Node@?$_Tree_nod@V?$_Tmap_traits@V?$CStringT@DV?$StrTraitMFC_DLL@DV?$ChTraitsCRT@D@ATL@@@@@ATL@@V12@U?$less@V?$CStringT@DV?$StrTraitMFC_DLL@DV?$ChTraitsCRT@D@ATL@@@@@ATL@@@std@@V?$allocator@U?$pair@$$CBV?$CStringT@DV?$StrTraitMFC_DLL@DV?$ChTraitsCRT@D@ATL@@@@@ATL@@V12@@std@@@4@$0A@@std@@@std@@@std@@YAXPAU_Node@?$_Tree_nod@V?$_Tmap_traits@V?$CStringT@DV?$StrTraitMFC_DLL@DV?$ChTraitsCRT@D@ATL@@@@@ATL@@V12@U?$less@V?$CStringT@DV?$StrTraitMFC_DLL@DV?$ChTraitsCRT@D@ATL@@@@@ATL@@@std@@V?$allocator@U?$pair@$$CBV?$CStringT@DV?$StrTraitMFC_DLL@DV?$ChTraitsCRT@D@ATL@@@@@ATL@@V12@@std@@@4@$0A@@std@@@0@@Z 00471d00 f i PCSParam.obj
 0001:00070d30       ?GetKey@CIterator@?$CPicaSoftMap@V?$CStringT@DV?$StrTraitMFC_DLL@DV?$ChTraitsCRT@D@ATL@@@@@ATL@@V12@@PicaSoft@@QAE?AV?$CStringT@DV?$StrTraitMFC_DLL@DV?$ChTraitsCRT@D@ATL@@@@@ATL@@XZ 00471d30 f i PCSParam.obj
 0001:00070e30       ?find@?$_Tree@V?$_Tmap_traits@V?$CStringT@DV?$StrTraitMFC_DLL@DV?$ChTraitsCRT@D@ATL@@@@@ATL@@V12@U?$less@V?$CStringT@DV?$StrTraitMFC_DLL@DV?$ChTraitsCRT@D@ATL@@@@@ATL@@@std@@V?$allocator@U?$pair@$$CBV?$CStringT@DV?$StrTraitMFC_DLL@DV?$ChTraitsCRT@D@ATL@@@@@ATL@@V12@@std@@@4@$0A@@std@@@std@@QAE?AViterator@12@ABV?$CStringT@DV?$StrTraitMFC_DLL@DV?$ChTraitsCRT@D@ATL@@@@@ATL@@@Z 00471e30 f i PCSParam.obj
 0001:00070f30       ??0CIterator@?$CPicaSoftMap@V?$CStringT@DV?$StrTraitMFC_DLL@DV?$ChTraitsCRT@D@ATL@@@@@ATL@@V12@@PicaSoft@@QAE@PAV12@@Z 00471f30 f i PCSParam.obj
 0001:00070fd0       ??_ECIterator@?$CPicaSoftMap@V?$CStringT@DV?$StrTraitMFC_DLL@DV?$ChTraitsCRT@D@ATL@@@@@ATL@@V12@@PicaSoft@@UAEPAXI@Z 00471fd0 f i PCSParam.obj
 0001:00070fd0       ??_G?$CPicaSoftIterator@V?$CPicaSoftMap@V?$CStringT@DV?$StrTraitMFC_DLL@DV?$ChTraitsCRT@D@ATL@@@@@ATL@@V12@@PicaSoft@@@PicaSoft@@UAEPAXI@Z 00471fd0 f i PCSParam.obj
 0001:00070fd0       ??_E?$CPicaSoftIterator@V?$CPicaSoftMap@V?$CStringT@DV?$StrTraitMFC_DLL@DV?$ChTraitsCRT@D@ATL@@@@@ATL@@V12@@PicaSoft@@@PicaSoft@@UAEPAXI@Z 00471fd0 f i PCSParam.obj
 0001:00070fd0       ??_GCIterator@?$CPicaSoftMap@V?$CStringT@DV?$StrTraitMFC_DLL@DV?$ChTraitsCRT@D@ATL@@@@@ATL@@V12@@PicaSoft@@UAEPAXI@Z 00471fd0 f i PCSParam.obj
 0001:00071010       ?_Init@?$_Tree@V?$_Tmap_traits@V?$CStringT@DV?$StrTraitMFC_DLL@DV?$ChTraitsCRT@D@ATL@@@@@ATL@@V12@U?$less@V?$CStringT@DV?$StrTraitMFC_DLL@DV?$ChTraitsCRT@D@ATL@@@@@ATL@@@std@@V?$allocator@U?$pair@$$CBV?$CStringT@DV?$StrTraitMFC_DLL@DV?$ChTraitsCRT@D@ATL@@@@@ATL@@V12@@std@@@4@$0A@@std@@@std@@IAEXXZ 00472010 f i PCSParam.obj
 0001:00071090       ?_Insert@?$_Tree@V?$_Tmap_traits@V?$CStringT@DV?$StrTraitMFC_DLL@DV?$ChTraitsCRT@D@ATL@@@@@ATL@@V12@U?$less@V?$CStringT@DV?$StrTraitMFC_DLL@DV?$ChTraitsCRT@D@ATL@@@@@ATL@@@std@@V?$allocator@U?$pair@$$CBV?$CStringT@DV?$StrTraitMFC_DLL@DV?$ChTraitsCRT@D@ATL@@@@@ATL@@V12@@std@@@4@$0A@@std@@@std@@IAE?AViterator@12@_NPAU_Node@?$_Tree_nod@V?$_Tmap_traits@V?$CStringT@DV?$StrTraitMFC_DLL@DV?$ChTraitsCRT@D@ATL@@@@@ATL@@V12@U?$less@V?$CStringT@DV?$StrTraitMFC_DLL@DV?$ChTraitsCRT@D@ATL@@@@@ATL@@@std@@V?$allocator@U?$pair@$$CBV?$CStringT@DV?$StrTraitMFC_DLL@DV?$ChTraitsCRT@D@ATL@@@@@ATL@@V12@@std@@@4@$0A@@std@@@2@ABU?$pair@$$CBV?$CStringT@DV?$StrTraitMFC_DLL@DV?$ChTraitsCRT@D@ATL@@@@@ATL@@V12@@2@@Z 00472090 f i PCSParam.obj
 0001:00071410       ?erase@?$_Tree@V?$_Tmap_traits@V?$CStringT@DV?$StrTraitMFC_DLL@DV?$ChTraitsCRT@D@ATL@@@@@ATL@@V12@U?$less@V?$CStringT@DV?$StrTraitMFC_DLL@DV?$ChTraitsCRT@D@ATL@@@@@ATL@@@std@@V?$allocator@U?$pair@$$CBV?$CStringT@DV?$StrTraitMFC_DLL@DV?$ChTraitsCRT@D@ATL@@@@@ATL@@V12@@std@@@4@$0A@@std@@@std@@QAE?AViterator@12@V312@@Z 00472410 f i PCSParam.obj
 0001:00071970       ??0out_of_range@std@@QAE@ABV01@@Z 00472970 f i PCSParam.obj
 0001:00071a10       ?Lookup@?$CPicaSoftMap@V?$CStringT@DV?$StrTraitMFC_DLL@DV?$ChTraitsCRT@D@ATL@@@@@ATL@@V12@@PicaSoft@@QAEHV?$CStringT@DV?$StrTraitMFC_DLL@DV?$ChTraitsCRT@D@ATL@@@@@ATL@@AAV34@@Z 00472a10 f i PCSParam.obj
 0001:00071b30       ?GetIterator@?$CPicaSoftMap@V?$CStringT@DV?$StrTraitMFC_DLL@DV?$ChTraitsCRT@D@ATL@@@@@ATL@@V12@@PicaSoft@@QAE?AVCIterator@12@XZ 00472b30 f i PCSParam.obj
 0001:00071b80       ?_Erase@?$_Tree@V?$_Tmap_traits@V?$CStringT@DV?$StrTraitMFC_DLL@DV?$ChTraitsCRT@D@ATL@@@@@ATL@@V12@U?$less@V?$CStringT@DV?$StrTraitMFC_DLL@DV?$ChTraitsCRT@D@ATL@@@@@ATL@@@std@@V?$allocator@U?$pair@$$CBV?$CStringT@DV?$StrTraitMFC_DLL@DV?$ChTraitsCRT@D@ATL@@@@@ATL@@V12@@std@@@4@$0A@@std@@@std@@IAEXPAU_Node@?$_Tree_nod@V?$_Tmap_traits@V?$CStringT@DV?$StrTraitMFC_DLL@DV?$ChTraitsCRT@D@ATL@@@@@ATL@@V12@U?$less@V?$CStringT@DV?$StrTraitMFC_DLL@DV?$ChTraitsCRT@D@ATL@@@@@ATL@@@std@@V?$allocator@U?$pair@$$CBV?$CStringT@DV?$StrTraitMFC_DLL@DV?$ChTraitsCRT@D@ATL@@@@@ATL@@V12@@std@@@4@$0A@@std@@@2@@Z 00472b80 f i PCSParam.obj
 0001:00071c00       ?insert@?$_Tree@V?$_Tmap_traits@V?$CStringT@DV?$StrTraitMFC_DLL@DV?$ChTraitsCRT@D@ATL@@@@@ATL@@V12@U?$less@V?$CStringT@DV?$StrTraitMFC_DLL@DV?$ChTraitsCRT@D@ATL@@@@@ATL@@@std@@V?$allocator@U?$pair@$$CBV?$CStringT@DV?$StrTraitMFC_DLL@DV?$ChTraitsCRT@D@ATL@@@@@ATL@@V12@@std@@@4@$0A@@std@@@std@@QAE?AU?$pair@Viterator@?$_Tree@V?$_Tmap_traits@V?$CStringT@DV?$StrTraitMFC_DLL@DV?$ChTraitsCRT@D@ATL@@@@@ATL@@V12@U?$less@V?$CStringT@DV?$StrTraitMFC_DLL@DV?$ChTraitsCRT@D@ATL@@@@@ATL@@@std@@V?$allocator@U?$pair@$$CBV?$CStringT@DV?$StrTraitMFC_DLL@DV?$ChTraitsCRT@D@ATL@@@@@ATL@@V12@@std@@@4@$0A@@std@@@std@@_N@2@ABU?$pair@$$CBV?$CStringT@DV?$StrTraitMFC_DLL@DV?$ChTraitsCRT@D@ATL@@@@@ATL@@V12@@2@@Z 00472c00 f i PCSParam.obj
 0001:00071e20       ?GetString@CPCSParam@@UAG?AV?$CStringT@DV?$StrTraitMFC_DLL@DV?$ChTraitsCRT@D@ATL@@@@@ATL@@PBD0@Z 00472e20 f   PCSParam.obj
 0001:00071fb0       ?MoveNext@CIterator@?$CPicaSoftMap@V?$CStringT@DV?$StrTraitMFC_DLL@DV?$ChTraitsCRT@D@ATL@@@@@ATL@@V12@@PicaSoft@@QAEXXZ 00472fb0 f i PCSParam.obj
 0001:00072060       ?clear@?$_Tree@V?$_Tmap_traits@V?$CStringT@DV?$StrTraitMFC_DLL@DV?$ChTraitsCRT@D@ATL@@@@@ATL@@V12@U?$less@V?$CStringT@DV?$StrTraitMFC_DLL@DV?$ChTraitsCRT@D@ATL@@@@@ATL@@@std@@V?$allocator@U?$pair@$$CBV?$CStringT@DV?$StrTraitMFC_DLL@DV?$ChTraitsCRT@D@ATL@@@@@ATL@@V12@@std@@@4@$0A@@std@@@std@@QAEXXZ 00473060 f i PCSParam.obj
 0001:000720e0       ?insert@?$_Tree@V?$_Tmap_traits@V?$CStringT@DV?$StrTraitMFC_DLL@DV?$ChTraitsCRT@D@ATL@@@@@ATL@@V12@U?$less@V?$CStringT@DV?$StrTraitMFC_DLL@DV?$ChTraitsCRT@D@ATL@@@@@ATL@@@std@@V?$allocator@U?$pair@$$CBV?$CStringT@DV?$StrTraitMFC_DLL@DV?$ChTraitsCRT@D@ATL@@@@@ATL@@V12@@std@@@4@$0A@@std@@@std@@QAE?AViterator@12@V312@ABU?$pair@$$CBV?$CStringT@DV?$StrTraitMFC_DLL@DV?$ChTraitsCRT@D@ATL@@@@@ATL@@V12@@2@@Z 004730e0 f i PCSParam.obj
 0001:000727b0       ?erase@?$_Tree@V?$_Tmap_traits@V?$CStringT@DV?$StrTraitMFC_DLL@DV?$ChTraitsCRT@D@ATL@@@@@ATL@@V12@U?$less@V?$CStringT@DV?$StrTraitMFC_DLL@DV?$ChTraitsCRT@D@ATL@@@@@ATL@@@std@@V?$allocator@U?$pair@$$CBV?$CStringT@DV?$StrTraitMFC_DLL@DV?$ChTraitsCRT@D@ATL@@@@@ATL@@V12@@std@@@4@$0A@@std@@@std@@QAE?AViterator@12@V312@0@Z 004737b0 f i PCSParam.obj
 0001:000728d0       ?GetNamelist@CPCSParam@@UAGHAAVCStringArray@@@Z 004738d0 f   PCSParam.obj
 0001:000729f0       ??A?$map@V?$CStringT@DV?$StrTraitMFC_DLL@DV?$ChTraitsCRT@D@ATL@@@@@ATL@@V12@U?$less@V?$CStringT@DV?$StrTraitMFC_DLL@DV?$ChTraitsCRT@D@ATL@@@@@ATL@@@std@@V?$allocator@U?$pair@$$CBV?$CStringT@DV?$StrTraitMFC_DLL@DV?$ChTraitsCRT@D@ATL@@@@@ATL@@V12@@std@@@4@@std@@QAEAAV?$CStringT@DV?$StrTraitMFC_DLL@DV?$ChTraitsCRT@D@ATL@@@@@ATL@@ABV23@@Z 004739f0 f i PCSParam.obj
 0001:00072ba0       ?_Tidy@?$_Tree@V?$_Tmap_traits@V?$CStringT@DV?$StrTraitMFC_DLL@DV?$ChTraitsCRT@D@ATL@@@@@ATL@@V12@U?$less@V?$CStringT@DV?$StrTraitMFC_DLL@DV?$ChTraitsCRT@D@ATL@@@@@ATL@@@std@@V?$allocator@U?$pair@$$CBV?$CStringT@DV?$StrTraitMFC_DLL@DV?$ChTraitsCRT@D@ATL@@@@@ATL@@V12@@std@@@4@$0A@@std@@@std@@IAEXXZ 00473ba0 f i PCSParam.obj
 0001:00072c40       ?SetString@CPCSParam@@UAGHPBD0@Z 00473c40 f   PCSParam.obj
 0001:00072ec0       ??0?$CPicaSoftMap@V?$CStringT@DV?$StrTraitMFC_DLL@DV?$ChTraitsCRT@D@ATL@@@@@ATL@@V12@@PicaSoft@@QAE@XZ 00473ec0 f i PCSParam.obj
 0001:00072f50       ??1?$CPicaSoftMap@V?$CStringT@DV?$StrTraitMFC_DLL@DV?$ChTraitsCRT@D@ATL@@@@@ATL@@V12@@PicaSoft@@QAE@XZ 00473f50 f i PCSParam.obj
 0001:00072fc0       ??0CPCSParam@@QAE@XZ       00473fc0 f   PCSParam.obj
 0001:00073060       ??1CPCSParam@@UAE@XZ       00474060 f   PCSParam.obj
 0001:00073110       ??_GCPCSParam@@UAEPAXI@Z   00474110 f i PCSParam.obj
 0001:00073110       ??_ECPCSParam@@UAEPAXI@Z   00474110 f i PCSParam.obj
 0001:00073150       ?GetRuntimeClass@CPicaSoftSyncObject@PicaSoft@@UBEPAUCPicaSoftRuntimeClass@2@XZ 00474150 f   PicaSoftMultiThread.obj
 0001:00073170       ?Lock@CPicaSoftSyncObject@PicaSoft@@UAEHK@Z 00474170 f   PicaSoftMultiThread.obj
 0001:00073280       ?DoEvents@PicaSoft@@YAXXZ  00474280 f   PicaSoftMultiThread.obj
 0001:00073360       ?WaitWithMessageLoop@PicaSoft@@YAKKPBQAXK@Z 00474360 f   PicaSoftMultiThread.obj
 0001:000734e0       ?GetRuntimeClass@CPicaSoftEvent@PicaSoft@@UBEPAUCPicaSoftRuntimeClass@2@XZ 004744e0 f   PicaSoftMultiThread.obj
 0001:00073500       ?SetEvent@CPicaSoftEvent@PicaSoft@@QAEHXZ 00474500 f   PicaSoftMultiThread.obj
 0001:000735d0       ?Unlock@CPicaSoftEvent@PicaSoft@@UAEHXZ 004745d0 f   PicaSoftMultiThread.obj
 0001:00073670       ?IsSignal@CPicaSoftEvent@PicaSoft@@QAEHXZ 00474670 f   PicaSoftMultiThread.obj
 0001:00073750       ?GetRuntimeClass@CPicaSoftCriticalSection@PicaSoft@@UBEPAUCPicaSoftRuntimeClass@2@XZ 00474750 f   PicaSoftMultiThread.obj
 0001:00073770       ?Init@CPicaSoftCriticalSection@PicaSoft@@AAEHXZ 00474770 f   PicaSoftMultiThread.obj
 0001:00073860       ?Lock@CPicaSoftCriticalSection@PicaSoft@@QAEHXZ 00474860 f   PicaSoftMultiThread.obj
 0001:00073950       ?Lock@CPicaSoftCriticalSection@PicaSoft@@UAEHK@Z 00474950 f   PicaSoftMultiThread.obj
 0001:00073a50       ?Unlock@CPicaSoftCriticalSection@PicaSoft@@UAEHXZ 00474a50 f   PicaSoftMultiThread.obj
 0001:00073b00       ?GetRuntimeClass@CPicaSoftSingleLock@PicaSoft@@UBEPAUCPicaSoftRuntimeClass@2@XZ 00474b00 f   PicaSoftMultiThread.obj
 0001:00073b20       ?Lock@CPicaSoftSingleLock@PicaSoft@@QAEHK@Z 00474b20 f   PicaSoftMultiThread.obj
 0001:00073c80       ?GetRuntimeClass@CPicaSoftMultiLock@PicaSoft@@UBEPAUCPicaSoftRuntimeClass@2@XZ 00474c80 f   PicaSoftMultiThread.obj
 0001:00073ca0       ?Lock@CPicaSoftMultiLock@PicaSoft@@QAEKKH@Z 00474ca0 f   PicaSoftMultiThread.obj
 0001:00073e00       ?Unlock@CPicaSoftMultiLock@PicaSoft@@QAEHXZ 00474e00 f   PicaSoftMultiThread.obj
 0001:00073f30       ?Add@CPicaSoftMultiLock@PicaSoft@@QAEKPAVCPicaSoftSyncObject@2@@Z 00474f30 f   PicaSoftMultiThread.obj
 0001:000741c0       ?GetItem@CPicaSoftMultiLock@PicaSoft@@QAEPAVCPicaSoftSyncObject@2@K@Z 004751c0 f   PicaSoftMultiThread.obj
 0001:000742c0       ?GetRuntimeClass@CPicaSoftWorkThread@PicaSoft@@UBEPAUCPicaSoftRuntimeClass@2@XZ 004752c0 f   PicaSoftMultiThread.obj
 0001:000742e0       ?WaitThreadStop@CPicaSoftWorkThread@PicaSoft@@QAEHK@Z 004752e0 f   PicaSoftMultiThread.obj
 0001:000744a0       ?IsRuning@CPicaSoftWorkThread@PicaSoft@@QAEHXZ 004754a0 f   PicaSoftMultiThread.obj
 0001:00074570       ?Detach@CPicaSoftWorkThread@PicaSoft@@QAEPAXXZ 00475570 f   PicaSoftMultiThread.obj
 0001:00074620       ?IsCurrentThread@CPicaSoftWorkThread@PicaSoft@@QAEHXZ 00475620 f   PicaSoftMultiThread.obj
 0001:000746d0       ?SetThreadPriority@CPicaSoftWorkThread@PicaSoft@@QAEHH@Z 004756d0 f   PicaSoftMultiThread.obj
 0001:000747e0       ?Unlock@CPicaSoftWorkThread@PicaSoft@@UAEHXZ 004757e0 f   PicaSoftMultiThread.obj
 0001:00074880       ??0CPicaSoftTattyAutoPtr@PicaSoft@@QAE@XZ 00475880 f   PicaSoftMultiThread.obj
 0001:000748b0       ??1CPicaSoftTattyAutoPtr@PicaSoft@@UAE@XZ 004758b0 f   PicaSoftMultiThread.obj
 0001:000748d0       ?Release@CPicaSoftTattyAutoPtr@PicaSoft@@QAEXXZ 004758d0 f i PicaSoftMultiThread.obj
 0001:00074950       ?Abort@CSingleObject@CPicaSoftThreadPool@PicaSoft@@QAEXXZ 00475950 f   PicaSoftMultiThread.obj
 0001:000749c0       ?IsKindOf@CPicaSoftObject@PicaSoft@@UAEHPBUCPicaSoftRuntimeClass@2@@Z 004759c0 f i PicaSoftMultiThread.obj
 0001:00074a00       ?IsKindOf@CPicaSoftObject@PicaSoft@@UAEHPBD@Z 00475a00 f i PicaSoftMultiThread.obj
 0001:00074a50       ??1CPicaSoftObject@PicaSoft@@UAE@XZ 00475a50 f i PicaSoftMultiThread.obj
 0001:00074a70       ?GetRuntimeClass@CPicaSoftObject@PicaSoft@@UBEPAUCPicaSoftRuntimeClass@2@XZ 00475a70 f i PicaSoftMultiThread.obj
 0001:00074a90       ??_GCPicaSoftObject@PicaSoft@@UAEPAXI@Z 00475a90 f i PicaSoftMultiThread.obj
 0001:00074a90       ??_ECPicaSoftObject@PicaSoft@@UAEPAXI@Z 00475a90 f i PicaSoftMultiThread.obj
 0001:00074ad0       ?IsKindOf@CPicaSoftSyncObject@PicaSoft@@UAEHPBUCPicaSoftRuntimeClass@2@@Z 00475ad0 f   PicaSoftMultiThread.obj
 0001:00074b40       ?IsKindOf@CPicaSoftSyncObject@PicaSoft@@UAEHPBD@Z 00475b40 f   PicaSoftMultiThread.obj
 0001:00074bc0       ??0CPicaSoftSyncObject@PicaSoft@@QAE@XZ 00475bc0 f   PicaSoftMultiThread.obj
 0001:00074c90       ?Unlock@CPicaSoftSyncObject@PicaSoft@@UAEHJPAJ@Z 00475c90 f i PicaSoftMultiThread.obj
 0001:00074d20       ??1CPicaSoftSyncObject@PicaSoft@@UAE@XZ 00475d20 f   PicaSoftMultiThread.obj
 0001:00074e10       ?MsgLock@CPicaSoftSyncObject@PicaSoft@@UAEHK@Z 00475e10 f   PicaSoftMultiThread.obj
 0001:00074f20       ?IsKindOf@CPicaSoftEvent@PicaSoft@@UAEHPBUCPicaSoftRuntimeClass@2@@Z 00475f20 f   PicaSoftMultiThread.obj
 0001:00074f80       ?IsKindOf@CPicaSoftEvent@PicaSoft@@UAEHPBD@Z 00475f80 f   PicaSoftMultiThread.obj
 0001:00074ff0       ??0CPicaSoftEvent@PicaSoft@@QAE@HHPBDPAU_SECURITY_ATTRIBUTES@@@Z 00475ff0 f   PicaSoftMultiThread.obj
 0001:00075110       ??1CPicaSoftEvent@PicaSoft@@UAE@XZ 00476110 f   PicaSoftMultiThread.obj
 0001:000751d0       ?IsKindOf@CPicaSoftCriticalSection@PicaSoft@@UAEHPBUCPicaSoftRuntimeClass@2@@Z 004761d0 f   PicaSoftMultiThread.obj
 0001:00075230       ?IsKindOf@CPicaSoftCriticalSection@PicaSoft@@UAEHPBD@Z 00476230 f   PicaSoftMultiThread.obj
 0001:000752a0       ??0CPicaSoftCriticalSection@PicaSoft@@QAE@XZ 004762a0 f   PicaSoftMultiThread.obj
 0001:000753a0       ??1CPicaSoftCriticalSection@PicaSoft@@UAE@XZ 004763a0 f   PicaSoftMultiThread.obj
 0001:00075480       ?IsKindOf@CPicaSoftSingleLock@PicaSoft@@UAEHPBUCPicaSoftRuntimeClass@2@@Z 00476480 f   PicaSoftMultiThread.obj
 0001:000754f0       ?IsKindOf@CPicaSoftSingleLock@PicaSoft@@UAEHPBD@Z 004764f0 f   PicaSoftMultiThread.obj
 0001:00075570       ??0CPicaSoftSingleLock@PicaSoft@@QAE@PAVCPicaSoftSyncObject@1@H@Z 00476570 f   PicaSoftMultiThread.obj
 0001:00075710       ??1CPicaSoftSingleLock@PicaSoft@@UAE@XZ 00476710 f   PicaSoftMultiThread.obj
 0001:00075800       ?IsKindOf@CPicaSoftMultiLock@PicaSoft@@UAEHPBUCPicaSoftRuntimeClass@2@@Z 00476800 f   PicaSoftMultiThread.obj
 0001:00075870       ?IsKindOf@CPicaSoftMultiLock@PicaSoft@@UAEHPBD@Z 00476870 f   PicaSoftMultiThread.obj
 0001:000758f0       ??0CPicaSoftMultiLock@PicaSoft@@QAE@QAPAVCPicaSoftSyncObject@1@KH@Z 004768f0 f   PicaSoftMultiThread.obj
 0001:00075b60       ??1CPicaSoftMultiLock@PicaSoft@@UAE@XZ 00476b60 f   PicaSoftMultiThread.obj
 0001:00075c50       ?IsKindOf@CPicaSoftWorkThread@PicaSoft@@UAEHPBUCPicaSoftRuntimeClass@2@@Z 00476c50 f   PicaSoftMultiThread.obj
 0001:00075cb0       ?IsKindOf@CPicaSoftWorkThread@PicaSoft@@UAEHPBD@Z 00476cb0 f   PicaSoftMultiThread.obj
 0001:00075d20       ??0CPicaSoftWorkThread@PicaSoft@@QAE@XZ 00476d20 f   PicaSoftMultiThread.obj
 0001:00075e40       ?SetThreadProc@CPicaSoftWorkThread@PicaSoft@@QAEHP6GIPAX@Z0PBDHPAU_SECURITY_ATTRIBUTES@@@Z 00476e40 f   PicaSoftMultiThread.obj
 0001:00075fa0       ?WorkProc@CPicaSoftWorkThread@PicaSoft@@KGKPAV12@@Z 00476fa0 f   PicaSoftMultiThread.obj
 0001:000763b0       ?Run@CPicaSoftWorkThread@PicaSoft@@UAEIXZ 004773b0 f   PicaSoftMultiThread.obj
 0001:00076540       ?TerminateThread@CPicaSoftWorkThread@PicaSoft@@QAEHK@Z 00477540 f   PicaSoftMultiThread.obj
 0001:000766e0       ??_ECPicaSoftTattyAutoPtr@PicaSoft@@UAEPAXI@Z 004776e0 f i PicaSoftMultiThread.obj
 0001:000766e0       ??_GCPicaSoftTattyAutoPtr@PicaSoft@@UAEPAXI@Z 004776e0 f i PicaSoftMultiThread.obj
 0001:00076720       ?GetTaskCount@CPicaSoftThreadPool@PicaSoft@@QAEKXZ 00477720 f   PicaSoftMultiThread.obj
 0001:000767d0       ?AdjustThread@CPicaSoftThreadPool@PicaSoft@@AAEXXZ 004777d0 f   PicaSoftMultiThread.obj
 0001:00076890       ?_Lrotate@?$_Tree@V?$_Tmap_traits@PAXPAVCSingleObject@CPicaSoftThreadPool@PicaSoft@@U?$less@PAX@std@@V?$allocator@U?$pair@QAXPAVCSingleObject@CPicaSoftThreadPool@PicaSoft@@@std@@@5@$0A@@std@@@std@@IAEXPAU_Node@?$_Tree_nod@V?$_Tmap_traits@PAXPAVCSingleObject@CPicaSoftThreadPool@PicaSoft@@U?$less@PAX@std@@V?$allocator@U?$pair@QAXPAVCSingleObject@CPicaSoftThreadPool@PicaSoft@@@std@@@5@$0A@@std@@@2@@Z 00477890 f i PicaSoftMultiThread.obj
 0001:00076890       ?_Lrotate@?$_Tree@V?$_Tmap_traits@KPAUSTimerTaskInfo@CPicaSoftThreadPool@PicaSoft@@U?$less@K@std@@V?$allocator@U?$pair@$$CBKPAUSTimerTaskInfo@CPicaSoftThreadPool@PicaSoft@@@std@@@5@$0A@@std@@@std@@IAEXPAU_Node@?$_Tree_nod@V?$_Tmap_traits@KPAUSTimerTaskInfo@CPicaSoftThreadPool@PicaSoft@@U?$less@K@std@@V?$allocator@U?$pair@$$CBKPAUSTimerTaskInfo@CPicaSoftThreadPool@PicaSoft@@@std@@@5@$0A@@std@@@2@@Z 00477890 f i PicaSoftMultiThread.obj
 0001:00076890       ?_Lrotate@?$_Tree@V?$_Tmap_traits@V?$CStringT@DV?$StrTraitMFC_DLL@DV?$ChTraitsCRT@D@ATL@@@@@ATL@@V12@U?$less@V?$CStringT@DV?$StrTraitMFC_DLL@DV?$ChTraitsCRT@D@ATL@@@@@ATL@@@std@@V?$allocator@U?$pair@$$CBV?$CStringT@DV?$StrTraitMFC_DLL@DV?$ChTraitsCRT@D@ATL@@@@@ATL@@V12@@std@@@4@$0A@@std@@@std@@IAEXPAU_Node@?$_Tree_nod@V?$_Tmap_traits@V?$CStringT@DV?$StrTraitMFC_DLL@DV?$ChTraitsCRT@D@ATL@@@@@ATL@@V12@U?$less@V?$CStringT@DV?$StrTraitMFC_DLL@DV?$ChTraitsCRT@D@ATL@@@@@ATL@@@std@@V?$allocator@U?$pair@$$CBV?$CStringT@DV?$StrTraitMFC_DLL@DV?$ChTraitsCRT@D@ATL@@@@@ATL@@V12@@std@@@4@$0A@@std@@@2@@Z 00477890 f i PCSParam.obj
 0001:00076890       ?_Lrotate@?$_Tree@V?$_Tmap_traits@KPAVCPicaSoftCallStackThread@PicaSoft@@U?$less@K@std@@V?$allocator@U?$pair@$$CBKPAVCPicaSoftCallStackThread@PicaSoft@@@std@@@4@$0A@@std@@@std@@IAEXPAU_Node@?$_Tree_nod@V?$_Tmap_traits@KPAVCPicaSoftCallStackThread@PicaSoft@@U?$less@K@std@@V?$allocator@U?$pair@$$CBKPAVCPicaSoftCallStackThread@PicaSoft@@@std@@@4@$0A@@std@@@2@@Z 00477890 f i PicaSoftObject.obj
 0001:00076950       ?_Xlen@?$vector@PAUSThreadInfo@CPicaSoftThreadPool@PicaSoft@@V?$allocator@PAUSThreadInfo@CPicaSoftThreadPool@PicaSoft@@@std@@@std@@IBEXXZ 00477950 f i PicaSoftMultiThread.obj
 0001:00076a10       ?clear@?$list@PAUSTaskInfo@CPicaSoftThreadPool@PicaSoft@@V?$allocator@PAUSTaskInfo@CPicaSoftThreadPool@PicaSoft@@@std@@@std@@QAEXXZ 00477a10 f i PicaSoftMultiThread.obj
 0001:00076ab0       ?_Lrotate@?$_Tree@V?$_Tset_traits@PAVCSingleObject@CPicaSoftThreadPool@PicaSoft@@U?$less@PAVCSingleObject@CPicaSoftThreadPool@PicaSoft@@@std@@V?$allocator@PAVCSingleObject@CPicaSoftThreadPool@PicaSoft@@@5@$0A@@std@@@std@@IAEXPAU_Node@?$_Tree_nod@V?$_Tset_traits@PAVCSingleObject@CPicaSoftThreadPool@PicaSoft@@U?$less@PAVCSingleObject@CPicaSoftThreadPool@PicaSoft@@@std@@V?$allocator@PAVCSingleObject@CPicaSoftThreadPool@PicaSoft@@@5@$0A@@std@@@2@@Z 00477ab0 f i PicaSoftMultiThread.obj
 0001:00076b70       ?_Rrotate@?$_Tree@V?$_Tset_traits@PAVCSingleObject@CPicaSoftThreadPool@PicaSoft@@U?$less@PAVCSingleObject@CPicaSoftThreadPool@PicaSoft@@@std@@V?$allocator@PAVCSingleObject@CPicaSoftThreadPool@PicaSoft@@@5@$0A@@std@@@std@@IAEXPAU_Node@?$_Tree_nod@V?$_Tset_traits@PAVCSingleObject@CPicaSoftThreadPool@PicaSoft@@U?$less@PAVCSingleObject@CPicaSoftThreadPool@PicaSoft@@@std@@V?$allocator@PAVCSingleObject@CPicaSoftThreadPool@PicaSoft@@@5@$0A@@std@@@2@@Z 00477b70 f i PicaSoftMultiThread.obj
 0001:00076c30       ?_Inc@const_iterator@?$_Tree@V?$_Tset_traits@PAVCSingleObject@CPicaSoftThreadPool@PicaSoft@@U?$less@PAVCSingleObject@CPicaSoftThreadPool@PicaSoft@@@std@@V?$allocator@PAVCSingleObject@CPicaSoftThreadPool@PicaSoft@@@5@$0A@@std@@@std@@QAEXXZ 00477c30 f i PicaSoftMultiThread.obj
 0001:00076cf0       ?_Erase@?$_Tree@V?$_Tmap_traits@PAXPAVCSingleObject@CPicaSoftThreadPool@PicaSoft@@U?$less@PAX@std@@V?$allocator@U?$pair@QAXPAVCSingleObject@CPicaSoftThreadPool@PicaSoft@@@std@@@5@$0A@@std@@@std@@IAEXPAU_Node@?$_Tree_nod@V?$_Tmap_traits@PAXPAVCSingleObject@CPicaSoftThreadPool@PicaSoft@@U?$less@PAX@std@@V?$allocator@U?$pair@QAXPAVCSingleObject@CPicaSoftThreadPool@PicaSoft@@@std@@@5@$0A@@std@@@2@@Z 00477cf0 f i PicaSoftMultiThread.obj
 0001:00076d60       ?_Erase@?$_Tree@V?$_Tmap_traits@KPAUSTimerTaskInfo@CPicaSoftThreadPool@PicaSoft@@U?$less@K@std@@V?$allocator@U?$pair@$$CBKPAUSTimerTaskInfo@CPicaSoftThreadPool@PicaSoft@@@std@@@5@$0A@@std@@@std@@IAEXPAU_Node@?$_Tree_nod@V?$_Tmap_traits@KPAUSTimerTaskInfo@CPicaSoftThreadPool@PicaSoft@@U?$less@K@std@@V?$allocator@U?$pair@$$CBKPAUSTimerTaskInfo@CPicaSoftThreadPool@PicaSoft@@@std@@@5@$0A@@std@@@2@@Z 00477d60 f i PicaSoftMultiThread.obj
 0001:00076dd0       ??_GCPicaSoftSyncObject@PicaSoft@@UAEPAXI@Z 00477dd0 f i PicaSoftMultiThread.obj
 0001:00076dd0       ??_ECPicaSoftSyncObject@PicaSoft@@UAEPAXI@Z 00477dd0 f i PicaSoftMultiThread.obj
 0001:00076e10       ??_GCPicaSoftEvent@PicaSoft@@UAEPAXI@Z 00477e10 f i PicaSoftMultiThread.obj
 0001:00076e10       ??_ECPicaSoftEvent@PicaSoft@@UAEPAXI@Z 00477e10 f i PicaSoftMultiThread.obj
 0001:00076e50       ??_GCPicaSoftCriticalSection@PicaSoft@@UAEPAXI@Z 00477e50 f i PicaSoftMultiThread.obj
 0001:00076e50       ??_ECPicaSoftCriticalSection@PicaSoft@@UAEPAXI@Z 00477e50 f i PicaSoftMultiThread.obj
 0001:00076e90       ??_GCPicaSoftSingleLock@PicaSoft@@UAEPAXI@Z 00477e90 f i PicaSoftMultiThread.obj
 0001:00076e90       ??_ECPicaSoftSingleLock@PicaSoft@@UAEPAXI@Z 00477e90 f i PicaSoftMultiThread.obj
 0001:00076ed0       ??_GCPicaSoftMultiLock@PicaSoft@@UAEPAXI@Z 00477ed0 f i PicaSoftMultiThread.obj
 0001:00076ed0       ??_ECPicaSoftMultiLock@PicaSoft@@UAEPAXI@Z 00477ed0 f i PicaSoftMultiThread.obj
 0001:00076f10       ??1CPicaSoftWorkThread@PicaSoft@@UAE@XZ 00477f10 f   PicaSoftMultiThread.obj
 0001:00077030       ?StartThread@CPicaSoftWorkThread@PicaSoft@@UAEHXZ 00478030 f   PicaSoftMultiThread.obj
 0001:00077270       ?Run@?$CPicaSoftMemfunWorkThread@VCPicaSoftThreadPool@PicaSoft@@@PicaSoft@@EAEIXZ 00478270 f i PicaSoftMultiThread.obj
 0001:000773f0       ??1?$CPicaSoftMemfunWorkThread@VCPicaSoftThreadPool@PicaSoft@@@PicaSoft@@UAE@XZ 004783f0 f i PicaSoftMultiThread.obj
 0001:00077440       ??_G?$CPicaSoftMemfunWorkThread@VCPicaSoftThreadPool@PicaSoft@@@PicaSoft@@UAEPAXI@Z 00478440 f i PicaSoftMultiThread.obj
 0001:00077440       ??_E?$CPicaSoftMemfunWorkThread@VCPicaSoftThreadPool@PicaSoft@@@PicaSoft@@UAEPAXI@Z 00478440 f i PicaSoftMultiThread.obj
 0001:00077480       ?_Buy@?$vector@PAUSThreadInfo@CPicaSoftThreadPool@PicaSoft@@V?$allocator@PAUSThreadInfo@CPicaSoftThreadPool@PicaSoft@@@std@@@std@@IAE_NI@Z 00478480 f i PicaSoftMultiThread.obj
 0001:00077540       ?_Buynode@?$list@PAUSTaskInfo@CPicaSoftThreadPool@PicaSoft@@V?$allocator@PAUSTaskInfo@CPicaSoftThreadPool@PicaSoft@@@std@@@std@@IAEPAU_Node@?$_List_nod@PAUSTaskInfo@CPicaSoftThreadPool@PicaSoft@@V?$allocator@PAUSTaskInfo@CPicaSoftThreadPool@PicaSoft@@@std@@@2@XZ 00478540 f i PicaSoftMultiThread.obj
 0001:00077640       ?_Buynode@?$list@PAUSTaskInfo@CPicaSoftThreadPool@PicaSoft@@V?$allocator@PAUSTaskInfo@CPicaSoftThreadPool@PicaSoft@@@std@@@std@@IAEPAU_Node@?$_List_nod@PAUSTaskInfo@CPicaSoftThreadPool@PicaSoft@@V?$allocator@PAUSTaskInfo@CPicaSoftThreadPool@PicaSoft@@@std@@@2@PAU342@0ABQAUSTaskInfo@CPicaSoftThreadPool@PicaSoft@@@Z 00478640 f i PicaSoftMultiThread.obj
 0001:00077710       ?_Incsize@?$list@PAUSTaskInfo@CPicaSoftThreadPool@PicaSoft@@V?$allocator@PAUSTaskInfo@CPicaSoftThreadPool@PicaSoft@@@std@@@std@@IAEXI@Z 00478710 f i PicaSoftMultiThread.obj
 0001:00077800       ?clear@?$_Tree@V?$_Tmap_traits@PAXPAVCSingleObject@CPicaSoftThreadPool@PicaSoft@@U?$less@PAX@std@@V?$allocator@U?$pair@QAXPAVCSingleObject@CPicaSoftThreadPool@PicaSoft@@@std@@@5@$0A@@std@@@std@@QAEXXZ 00478800 f i PicaSoftMultiThread.obj
 0001:00077880       ?clear@?$_Tree@V?$_Tmap_traits@KPAUSTimerTaskInfo@CPicaSoftThreadPool@PicaSoft@@U?$less@K@std@@V?$allocator@U?$pair@$$CBKPAUSTimerTaskInfo@CPicaSoftThreadPool@PicaSoft@@@std@@@5@$0A@@std@@@std@@QAEXXZ 00478880 f i PicaSoftMultiThread.obj
 0001:00077900       ?_Erase@?$_Tree@V?$_Tset_traits@PAVCSingleObject@CPicaSoftThreadPool@PicaSoft@@U?$less@PAVCSingleObject@CPicaSoftThreadPool@PicaSoft@@@std@@V?$allocator@PAVCSingleObject@CPicaSoftThreadPool@PicaSoft@@@5@$0A@@std@@@std@@IAEXPAU_Node@?$_Tree_nod@V?$_Tset_traits@PAVCSingleObject@CPicaSoftThreadPool@PicaSoft@@U?$less@PAVCSingleObject@CPicaSoftThreadPool@PicaSoft@@@std@@V?$allocator@PAVCSingleObject@CPicaSoftThreadPool@PicaSoft@@@5@$0A@@std@@@2@@Z 00478900 f i PicaSoftMultiThread.obj
 0001:00077970       ?_Buynode@?$_Tree@V?$_Tset_traits@PAVCSingleObject@CPicaSoftThreadPool@PicaSoft@@U?$less@PAVCSingleObject@CPicaSoftThreadPool@PicaSoft@@@std@@V?$allocator@PAVCSingleObject@CPicaSoftThreadPool@PicaSoft@@@5@$0A@@std@@@std@@IAEPAU_Node@?$_Tree_nod@V?$_Tset_traits@PAVCSingleObject@CPicaSoftThreadPool@PicaSoft@@U?$less@PAVCSingleObject@CPicaSoftThreadPool@PicaSoft@@@std@@V?$allocator@PAVCSingleObject@CPicaSoftThreadPool@PicaSoft@@@5@$0A@@std@@@2@XZ 00478970 f i PicaSoftMultiThread.obj
 0001:00077aa0       ?_Buynode@?$_Tree@V?$_Tmap_traits@KPAUSTimerTaskInfo@CPicaSoftThreadPool@PicaSoft@@U?$less@K@std@@V?$allocator@U?$pair@$$CBKPAUSTimerTaskInfo@CPicaSoftThreadPool@PicaSoft@@@std@@@5@$0A@@std@@@std@@IAEPAU_Node@?$_Tree_nod@V?$_Tmap_traits@KPAUSTimerTaskInfo@CPicaSoftThreadPool@PicaSoft@@U?$less@K@std@@V?$allocator@U?$pair@$$CBKPAUSTimerTaskInfo@CPicaSoftThreadPool@PicaSoft@@@std@@@5@$0A@@std@@@2@XZ 00478aa0 f i PicaSoftMultiThread.obj
 0001:00077aa0       ?_Buynode@?$_Tree@V?$_Tmap_traits@PAXPAVCSingleObject@CPicaSoftThreadPool@PicaSoft@@U?$less@PAX@std@@V?$allocator@U?$pair@QAXPAVCSingleObject@CPicaSoftThreadPool@PicaSoft@@@std@@@5@$0A@@std@@@std@@IAEPAU_Node@?$_Tree_nod@V?$_Tmap_traits@PAXPAVCSingleObject@CPicaSoftThreadPool@PicaSoft@@U?$less@PAX@std@@V?$allocator@U?$pair@QAXPAVCSingleObject@CPicaSoftThreadPool@PicaSoft@@@std@@@5@$0A@@std@@@2@XZ 00478aa0 f i PicaSoftMultiThread.obj
 0001:00077bd0       ??0SThreadInfo@CPicaSoftThreadPool@PicaSoft@@QAE@XZ 00478bd0 f i PicaSoftMultiThread.obj
 0001:00077ca0       ??_GCPicaSoftWorkThread@PicaSoft@@UAEPAXI@Z 00478ca0 f i PicaSoftMultiThread.obj
 0001:00077ca0       ??_ECPicaSoftWorkThread@PicaSoft@@UAEPAXI@Z 00478ca0 f i PicaSoftMultiThread.obj
 0001:00077ce0       ?GetIdleThreadCount@CPicaSoftThreadPool@PicaSoft@@AAEHXZ 00478ce0 f   PicaSoftMultiThread.obj
 0001:00077df0       ??1?$vector@PAVCPicaSoftApplication@PicaSoft@@V?$allocator@PAVCPicaSoftApplication@PicaSoft@@@std@@@std@@QAE@XZ 00478df0 f i PicaSoftObject.obj
 0001:00077df0       ??1?$vector@PAUSThreadInfo@CPicaSoftThreadPool@PicaSoft@@V?$allocator@PAUSThreadInfo@CPicaSoftThreadPool@PicaSoft@@@std@@@std@@QAE@XZ 00478df0 f i PicaSoftMultiThread.obj
 0001:00077e30       ?pop_back@?$vector@PAUSThreadInfo@CPicaSoftThreadPool@PicaSoft@@V?$allocator@PAUSThreadInfo@CPicaSoftThreadPool@PicaSoft@@@std@@@std@@QAEXXZ 00478e30 f i PicaSoftMultiThread.obj
 0001:00077e30       ?pop_back@?$vector@PAU_tagCallStackInfo@PicaSoft@@V?$allocator@PAU_tagCallStackInfo@PicaSoft@@@std@@@std@@QAEXXZ 00478e30 f i PicaSoftObject.obj
 0001:00077ed0       ??1?$list@PAUSTaskInfo@CPicaSoftThreadPool@PicaSoft@@V?$allocator@PAUSTaskInfo@CPicaSoftThreadPool@PicaSoft@@@std@@@std@@QAE@XZ 00478ed0 f i PicaSoftMultiThread.obj
 0001:00077f30       ?erase@?$list@PAUSTaskInfo@CPicaSoftThreadPool@PicaSoft@@V?$allocator@PAUSTaskInfo@CPicaSoftThreadPool@PicaSoft@@@std@@@std@@QAE?AViterator@12@V312@@Z 00478f30 f i PicaSoftMultiThread.obj
 0001:00078000       ?erase@?$_Tree@V?$_Tmap_traits@PAXPAVCSingleObject@CPicaSoftThreadPool@PicaSoft@@U?$less@PAX@std@@V?$allocator@U?$pair@QAXPAVCSingleObject@CPicaSoftThreadPool@PicaSoft@@@std@@@5@$0A@@std@@@std@@QAE?AViterator@12@V312@@Z 00479000 f i PicaSoftMultiThread.obj
 0001:00078000       ?erase@?$_Tree@V?$_Tmap_traits@KPAUSTimerTaskInfo@CPicaSoftThreadPool@PicaSoft@@U?$less@K@std@@V?$allocator@U?$pair@$$CBKPAUSTimerTaskInfo@CPicaSoftThreadPool@PicaSoft@@@std@@@5@$0A@@std@@@std@@QAE?AViterator@12@V312@@Z 00479000 f i PicaSoftMultiThread.obj
 0001:00078550       ?_Insert@?$list@PAUSTaskInfo@CPicaSoftThreadPool@PicaSoft@@V?$allocator@PAUSTaskInfo@CPicaSoftThreadPool@PicaSoft@@@std@@@std@@QAEXViterator@12@ABQAUSTaskInfo@CPicaSoftThreadPool@PicaSoft@@@Z 00479550 f i PicaSoftMultiThread.obj
 0001:000785c0       ?erase@?$_Tree@V?$_Tmap_traits@PAXPAVCSingleObject@CPicaSoftThreadPool@PicaSoft@@U?$less@PAX@std@@V?$allocator@U?$pair@QAXPAVCSingleObject@CPicaSoftThreadPool@PicaSoft@@@std@@@5@$0A@@std@@@std@@QAE?AViterator@12@V312@0@Z 004795c0 f i PicaSoftMultiThread.obj
 0001:000786e0       ?_Tidy@?$_Tree@V?$_Tmap_traits@PAXPAVCSingleObject@CPicaSoftThreadPool@PicaSoft@@U?$less@PAX@std@@V?$allocator@U?$pair@QAXPAVCSingleObject@CPicaSoftThreadPool@PicaSoft@@@std@@@5@$0A@@std@@@std@@IAEXXZ 004796e0 f i PicaSoftMultiThread.obj
 0001:00078780       ?_Insert_n@?$vector@PAUSThreadInfo@CPicaSoftThreadPool@PicaSoft@@V?$allocator@PAUSThreadInfo@CPicaSoftThreadPool@PicaSoft@@@std@@@std@@IAEXViterator@12@IABQAUSThreadInfo@CPicaSoftThreadPool@PicaSoft@@@Z 00479780 f i PicaSoftMultiThread.obj
 0001:00078e60       ?erase@?$_Tree@V?$_Tmap_traits@KPAUSTimerTaskInfo@CPicaSoftThreadPool@PicaSoft@@U?$less@K@std@@V?$allocator@U?$pair@$$CBKPAUSTimerTaskInfo@CPicaSoftThreadPool@PicaSoft@@@std@@@5@$0A@@std@@@std@@QAE?AViterator@12@V312@0@Z 00479e60 f i PicaSoftMultiThread.obj
 0001:00078f80       ?_Init@?$_Tree@V?$_Tmap_traits@KPAUSTimerTaskInfo@CPicaSoftThreadPool@PicaSoft@@U?$less@K@std@@V?$allocator@U?$pair@$$CBKPAUSTimerTaskInfo@CPicaSoftThreadPool@PicaSoft@@@std@@@5@$0A@@std@@@std@@IAEXXZ 00479f80 f i PicaSoftMultiThread.obj
 0001:00078f80       ?_Init@?$_Tree@V?$_Tmap_traits@PAXPAVCSingleObject@CPicaSoftThreadPool@PicaSoft@@U?$less@PAX@std@@V?$allocator@U?$pair@QAXPAVCSingleObject@CPicaSoftThreadPool@PicaSoft@@@std@@@5@$0A@@std@@@std@@IAEXXZ 00479f80 f i PicaSoftMultiThread.obj
 0001:00079000       ?erase@?$_Tree@V?$_Tset_traits@PAVCSingleObject@CPicaSoftThreadPool@PicaSoft@@U?$less@PAVCSingleObject@CPicaSoftThreadPool@PicaSoft@@@std@@V?$allocator@PAVCSingleObject@CPicaSoftThreadPool@PicaSoft@@@5@$0A@@std@@@std@@QAE?AViterator@12@V312@@Z 0047a000 f i PicaSoftMultiThread.obj
 0001:00079550       ?clear@?$_Tree@V?$_Tset_traits@PAVCSingleObject@CPicaSoftThreadPool@PicaSoft@@U?$less@PAVCSingleObject@CPicaSoftThreadPool@PicaSoft@@@std@@V?$allocator@PAVCSingleObject@CPicaSoftThreadPool@PicaSoft@@@5@$0A@@std@@@std@@QAEXXZ 0047a550 f i PicaSoftMultiThread.obj
 0001:000795d0       ?_Init@?$_Tree@V?$_Tset_traits@PAVCSingleObject@CPicaSoftThreadPool@PicaSoft@@U?$less@PAVCSingleObject@CPicaSoftThreadPool@PicaSoft@@@std@@V?$allocator@PAVCSingleObject@CPicaSoftThreadPool@PicaSoft@@@5@$0A@@std@@@std@@IAEXXZ 0047a5d0 f i PicaSoftMultiThread.obj
 0001:00079650       ??_ESThreadInfo@CPicaSoftThreadPool@PicaSoft@@UAEPAXI@Z 0047a650 f i PicaSoftMultiThread.obj
 0001:00079650       ??_GSThreadInfo@CPicaSoftThreadPool@PicaSoft@@UAEPAXI@Z 0047a650 f i PicaSoftMultiThread.obj
 0001:00079690       ??1SThreadInfo@CPicaSoftThreadPool@PicaSoft@@UAE@XZ 0047a690 f i PicaSoftMultiThread.obj
 0001:00079720       ??0?$list@PAUSTaskInfo@CPicaSoftThreadPool@PicaSoft@@V?$allocator@PAUSTaskInfo@CPicaSoftThreadPool@PicaSoft@@@std@@@std@@QAE@XZ 0047a720 f i PicaSoftMultiThread.obj
 0001:00079790       ?insert@?$vector@PAUSThreadInfo@CPicaSoftThreadPool@PicaSoft@@V?$allocator@PAUSThreadInfo@CPicaSoftThreadPool@PicaSoft@@@std@@@std@@QAE?AViterator@12@V312@ABQAUSThreadInfo@CPicaSoftThreadPool@PicaSoft@@@Z 0047a790 f i PicaSoftMultiThread.obj
 0001:00079890       ?_Tidy@?$_Tree@V?$_Tmap_traits@KPAUSTimerTaskInfo@CPicaSoftThreadPool@PicaSoft@@U?$less@K@std@@V?$allocator@U?$pair@$$CBKPAUSTimerTaskInfo@CPicaSoftThreadPool@PicaSoft@@@std@@@5@$0A@@std@@@std@@IAEXXZ 0047a890 f i PicaSoftMultiThread.obj
 0001:00079930       ?erase@?$_Tree@V?$_Tset_traits@PAVCSingleObject@CPicaSoftThreadPool@PicaSoft@@U?$less@PAVCSingleObject@CPicaSoftThreadPool@PicaSoft@@@std@@V?$allocator@PAVCSingleObject@CPicaSoftThreadPool@PicaSoft@@@5@$0A@@std@@@std@@QAE?AViterator@12@V312@0@Z 0047a930 f i PicaSoftMultiThread.obj
 0001:00079a50       ?_Tidy@?$_Tree@V?$_Tset_traits@PAVCSingleObject@CPicaSoftThreadPool@PicaSoft@@U?$less@PAVCSingleObject@CPicaSoftThreadPool@PicaSoft@@@std@@V?$allocator@PAVCSingleObject@CPicaSoftThreadPool@PicaSoft@@@5@$0A@@std@@@std@@IAEXXZ 0047aa50 f i PicaSoftMultiThread.obj
 0001:00079af0       ??1?$map@PAXPAVCSingleObject@CPicaSoftThreadPool@PicaSoft@@U?$less@PAX@std@@V?$allocator@U?$pair@QAXPAVCSingleObject@CPicaSoftThreadPool@PicaSoft@@@std@@@5@@std@@QAE@XZ 0047aaf0 f i PicaSoftMultiThread.obj
 0001:00079b30       ?Stop@CPicaSoftThreadPool@PicaSoft@@QAEHK@Z 0047ab30 f   PicaSoftMultiThread.obj
 0001:0007a300       ?NextTask@CPicaSoftThreadPool@PicaSoft@@AAEHAAP6GIPAX@ZAAPAX@Z 0047b300 f   PicaSoftMultiThread.obj
 0001:0007a610       ?TaskThreadProc@CPicaSoftThreadPool@PicaSoft@@AAEIPAX@Z 0047b610 f   PicaSoftMultiThread.obj
 0001:0007a840       ?push_back@?$vector@PAUSThreadInfo@CPicaSoftThreadPool@PicaSoft@@V?$allocator@PAUSThreadInfo@CPicaSoftThreadPool@PicaSoft@@@std@@@std@@QAEXABQAUSThreadInfo@CPicaSoftThreadPool@PicaSoft@@@Z 0047b840 f i PicaSoftMultiThread.obj
 0001:0007a970       ??0?$map@KPAUSTimerTaskInfo@CPicaSoftThreadPool@PicaSoft@@U?$less@K@std@@V?$allocator@U?$pair@$$CBKPAUSTimerTaskInfo@CPicaSoftThreadPool@PicaSoft@@@std@@@5@@std@@QAE@XZ 0047b970 f i PicaSoftMultiThread.obj
 0001:0007a970       ??0?$map@PAXPAVCSingleObject@CPicaSoftThreadPool@PicaSoft@@U?$less@PAX@std@@V?$allocator@U?$pair@QAXPAVCSingleObject@CPicaSoftThreadPool@PicaSoft@@@std@@@5@@std@@QAE@XZ 0047b970 f i PicaSoftMultiThread.obj
 0001:0007a9c0       ??1?$map@KPAUSTimerTaskInfo@CPicaSoftThreadPool@PicaSoft@@U?$less@K@std@@V?$allocator@U?$pair@$$CBKPAUSTimerTaskInfo@CPicaSoftThreadPool@PicaSoft@@@std@@@5@@std@@QAE@XZ 0047b9c0 f i PicaSoftMultiThread.obj
 0001:0007aa00       ??1?$set@PAVCSingleObject@CPicaSoftThreadPool@PicaSoft@@U?$less@PAVCSingleObject@CPicaSoftThreadPool@PicaSoft@@@std@@V?$allocator@PAVCSingleObject@CPicaSoftThreadPool@PicaSoft@@@5@@std@@QAE@XZ 0047ba00 f i PicaSoftMultiThread.obj
 0001:0007aa40       ??1CPicaSoftThreadPool@PicaSoft@@QAE@XZ 0047ba40 f   PicaSoftMultiThread.obj
 0001:0007ac00       ?IncreaseThread@CPicaSoftThreadPool@PicaSoft@@AAEXXZ 0047bc00 f   PicaSoftMultiThread.obj
 0001:0007aff0       ??0?$set@PAVCSingleObject@CPicaSoftThreadPool@PicaSoft@@U?$less@PAVCSingleObject@CPicaSoftThreadPool@PicaSoft@@@std@@V?$allocator@PAVCSingleObject@CPicaSoftThreadPool@PicaSoft@@@5@@std@@QAE@XZ 0047bff0 f i PicaSoftMultiThread.obj
 0001:0007b040       ?AddTask@CPicaSoftThreadPool@PicaSoft@@QAEHP6GIPAX@Z0W4EPRI@12@H@Z 0047c040 f   PicaSoftMultiThread.obj
 0001:0007b1e0       ?TimerTaskThreadProc@CPicaSoftThreadPool@PicaSoft@@AAEIPAX@Z 0047c1e0 f   PicaSoftMultiThread.obj
 0001:0007b510       ??0CPicaSoftThreadPool@PicaSoft@@QAE@XZ 0047c510 f   PicaSoftMultiThread.obj
 0001:0007b7d0       ?GetCallStackInfoString@CPicaSoftCallStackThread@PicaSoft@@AAE?AV?$basic_string@DU?$char_traits@D@std@@V?$allocator@D@2@@std@@PAU_tagCallStackInfo@2@@Z 0047c7d0 f   PicaSoftObject.obj
 0001:0007b8f0       ?GetTickCount64@PicaSoft@@YA_KXZ 0047c8f0 f   PicaSoftObject.obj
 0001:0007b990       ?_Rrotate@?$_Tree@V?$_Tmap_traits@KPAUSTimerTaskInfo@CPicaSoftThreadPool@PicaSoft@@U?$less@K@std@@V?$allocator@U?$pair@$$CBKPAUSTimerTaskInfo@CPicaSoftThreadPool@PicaSoft@@@std@@@5@$0A@@std@@@std@@IAEXPAU_Node@?$_Tree_nod@V?$_Tmap_traits@KPAUSTimerTaskInfo@CPicaSoftThreadPool@PicaSoft@@U?$less@K@std@@V?$allocator@U?$pair@$$CBKPAUSTimerTaskInfo@CPicaSoftThreadPool@PicaSoft@@@std@@@5@$0A@@std@@@2@@Z 0047c990 f i PicaSoftMultiThread.obj
 0001:0007b990       ?_Rrotate@?$_Tree@V?$_Tmap_traits@KPAVCPicaSoftCallStackThread@PicaSoft@@U?$less@K@std@@V?$allocator@U?$pair@$$CBKPAVCPicaSoftCallStackThread@PicaSoft@@@std@@@4@$0A@@std@@@std@@IAEXPAU_Node@?$_Tree_nod@V?$_Tmap_traits@KPAVCPicaSoftCallStackThread@PicaSoft@@U?$less@K@std@@V?$allocator@U?$pair@$$CBKPAVCPicaSoftCallStackThread@PicaSoft@@@std@@@4@$0A@@std@@@2@@Z 0047c990 f i PicaSoftObject.obj
 0001:0007b990       ?_Rrotate@?$_Tree@V?$_Tmap_traits@PAXPAVCSingleObject@CPicaSoftThreadPool@PicaSoft@@U?$less@PAX@std@@V?$allocator@U?$pair@QAXPAVCSingleObject@CPicaSoftThreadPool@PicaSoft@@@std@@@5@$0A@@std@@@std@@IAEXPAU_Node@?$_Tree_nod@V?$_Tmap_traits@PAXPAVCSingleObject@CPicaSoftThreadPool@PicaSoft@@U?$less@PAX@std@@V?$allocator@U?$pair@QAXPAVCSingleObject@CPicaSoftThreadPool@PicaSoft@@@std@@@5@$0A@@std@@@2@@Z 0047c990 f i PicaSoftMultiThread.obj
 0001:0007b990       ?_Rrotate@?$_Tree@V?$_Tmap_traits@V?$CStringT@DV?$StrTraitMFC_DLL@DV?$ChTraitsCRT@D@ATL@@@@@ATL@@V12@U?$less@V?$CStringT@DV?$StrTraitMFC_DLL@DV?$ChTraitsCRT@D@ATL@@@@@ATL@@@std@@V?$allocator@U?$pair@$$CBV?$CStringT@DV?$StrTraitMFC_DLL@DV?$ChTraitsCRT@D@ATL@@@@@ATL@@V12@@std@@@4@$0A@@std@@@std@@IAEXPAU_Node@?$_Tree_nod@V?$_Tmap_traits@V?$CStringT@DV?$StrTraitMFC_DLL@DV?$ChTraitsCRT@D@ATL@@@@@ATL@@V12@U?$less@V?$CStringT@DV?$StrTraitMFC_DLL@DV?$ChTraitsCRT@D@ATL@@@@@ATL@@@std@@V?$allocator@U?$pair@$$CBV?$CStringT@DV?$StrTraitMFC_DLL@DV?$ChTraitsCRT@D@ATL@@@@@ATL@@V12@@std@@@4@$0A@@std@@@2@@Z 0047c990 f i PCSParam.obj
 0001:0007ba50       ?_Dec@const_iterator@?$_Tree@V?$_Tmap_traits@V?$CStringT@DV?$StrTraitMFC_DLL@DV?$ChTraitsCRT@D@ATL@@@@@ATL@@V12@U?$less@V?$CStringT@DV?$StrTraitMFC_DLL@DV?$ChTraitsCRT@D@ATL@@@@@ATL@@@std@@V?$allocator@U?$pair@$$CBV?$CStringT@DV?$StrTraitMFC_DLL@DV?$ChTraitsCRT@D@ATL@@@@@ATL@@V12@@std@@@4@$0A@@std@@@std@@QAEXXZ 0047ca50 f i PCSParam.obj
 0001:0007ba50       ?_Dec@const_iterator@?$_Tree@V?$_Tmap_traits@KPAVCPicaSoftCallStackThread@PicaSoft@@U?$less@K@std@@V?$allocator@U?$pair@$$CBKPAVCPicaSoftCallStackThread@PicaSoft@@@std@@@4@$0A@@std@@@std@@QAEXXZ 0047ca50 f i PicaSoftObject.obj
 0001:0007bb20       ??$_Uninit_copy@PAUSThreadInfo@CPicaSoftThreadPool@PicaSoft@@PAU123@@std@@YAPAPAUSThreadInfo@CPicaSoftThreadPool@PicaSoft@@PAPAU123@00AAV?$allocator@PAUSThreadInfo@CPicaSoftThreadPool@PicaSoft@@@0@U_Scalar_ptr_iterator_tag@0@@Z 0047cb20 f i PicaSoftMultiThread.obj
 0001:0007bb20       ??$_Uninit_copy@PAU_tagCallStackInfo@PicaSoft@@PAU12@@std@@YAPAPAU_tagCallStackInfo@PicaSoft@@PAPAU12@00AAV?$allocator@PAU_tagCallStackInfo@PicaSoft@@@0@U_Scalar_ptr_iterator_tag@0@@Z 0047cb20 f i PicaSoftObject.obj
 0001:0007bb20       ??$_Uninit_copy@PAVCPicaSoftApplication@PicaSoft@@PAV12@@std@@YAPAPAVCPicaSoftApplication@PicaSoft@@PAPAV12@00AAV?$allocator@PAVCPicaSoftApplication@PicaSoft@@@0@U_Scalar_ptr_iterator_tag@0@@Z 0047cb20 f i PicaSoftObject.obj
 0001:0007bb70       ?_Xlen@?$vector@PAVCPicaSoftApplication@PicaSoft@@V?$allocator@PAVCPicaSoftApplication@PicaSoft@@@std@@@std@@IBEXXZ 0047cb70 f i PicaSoftObject.obj
 0001:0007bb70       ?_Xlen@?$vector@PAU_tagCallStackInfo@PicaSoft@@V?$allocator@PAU_tagCallStackInfo@PicaSoft@@@std@@@std@@IBEXXZ 0047cb70 f i PicaSoftObject.obj
 0001:0007bc30       ?_Lbound@?$_Tree@V?$_Tmap_traits@KPAVCPicaSoftCallStackThread@PicaSoft@@U?$less@K@std@@V?$allocator@U?$pair@$$CBKPAVCPicaSoftCallStackThread@PicaSoft@@@std@@@4@$0A@@std@@@std@@IBEPAU_Node@?$_Tree_nod@V?$_Tmap_traits@KPAVCPicaSoftCallStackThread@PicaSoft@@U?$less@K@std@@V?$allocator@U?$pair@$$CBKPAVCPicaSoftCallStackThread@PicaSoft@@@std@@@4@$0A@@std@@@2@ABK@Z 0047cc30 f i PicaSoftObject.obj
 0001:0007bcb0       ?_Erase@?$_Tree@V?$_Tmap_traits@KPAVCPicaSoftCallStackThread@PicaSoft@@U?$less@K@std@@V?$allocator@U?$pair@$$CBKPAVCPicaSoftCallStackThread@PicaSoft@@@std@@@4@$0A@@std@@@std@@IAEXPAU_Node@?$_Tree_nod@V?$_Tmap_traits@KPAVCPicaSoftCallStackThread@PicaSoft@@U?$less@K@std@@V?$allocator@U?$pair@$$CBKPAVCPicaSoftCallStackThread@PicaSoft@@@std@@@4@$0A@@std@@@2@@Z 0047ccb0 f i PicaSoftObject.obj
 0001:0007bd20       ?_Ubound@?$_Tree@V?$_Tmap_traits@KPAVCPicaSoftCallStackThread@PicaSoft@@U?$less@K@std@@V?$allocator@U?$pair@$$CBKPAVCPicaSoftCallStackThread@PicaSoft@@@std@@@4@$0A@@std@@@std@@IBEPAU_Node@?$_Tree_nod@V?$_Tmap_traits@KPAVCPicaSoftCallStackThread@PicaSoft@@U?$less@K@std@@V?$allocator@U?$pair@$$CBKPAVCPicaSoftCallStackThread@PicaSoft@@@std@@@4@$0A@@std@@@2@ABK@Z 0047cd20 f i PicaSoftObject.obj
 0001:0007bda0       ?_Buy@?$vector@PAVCPicaSoftApplication@PicaSoft@@V?$allocator@PAVCPicaSoftApplication@PicaSoft@@@std@@@std@@IAE_NI@Z 0047cda0 f i PicaSoftObject.obj
 0001:0007bda0       ?_Buy@?$vector@PAU_tagCallStackInfo@PicaSoft@@V?$allocator@PAU_tagCallStackInfo@PicaSoft@@@std@@@std@@IAE_NI@Z 0047cda0 f i PicaSoftObject.obj
 0001:0007be60       ?_Tidy@?$vector@PAU_tagCallStackInfo@PicaSoft@@V?$allocator@PAU_tagCallStackInfo@PicaSoft@@@std@@@std@@IAEXXZ 0047ce60 f i PicaSoftObject.obj
 0001:0007be60       ?_Tidy@?$vector@PAUSThreadInfo@CPicaSoftThreadPool@PicaSoft@@V?$allocator@PAUSThreadInfo@CPicaSoftThreadPool@PicaSoft@@@std@@@std@@IAEXXZ 0047ce60 f i PicaSoftMultiThread.obj
 0001:0007be60       ?_Tidy@?$vector@PAVCPicaSoftApplication@PicaSoft@@V?$allocator@PAVCPicaSoftApplication@PicaSoft@@@std@@@std@@IAEXXZ 0047ce60 f i PicaSoftObject.obj
 0001:0007bf20       ?clear@?$_Tree@V?$_Tmap_traits@KPAVCPicaSoftCallStackThread@PicaSoft@@U?$less@K@std@@V?$allocator@U?$pair@$$CBKPAVCPicaSoftCallStackThread@PicaSoft@@@std@@@4@$0A@@std@@@std@@QAEXXZ 0047cf20 f i PicaSoftObject.obj
 0001:0007bfa0       ?_Buynode@?$_Tree@V?$_Tmap_traits@KPAVCPicaSoftCallStackThread@PicaSoft@@U?$less@K@std@@V?$allocator@U?$pair@$$CBKPAVCPicaSoftCallStackThread@PicaSoft@@@std@@@4@$0A@@std@@@std@@IAEPAU_Node@?$_Tree_nod@V?$_Tmap_traits@KPAVCPicaSoftCallStackThread@PicaSoft@@U?$less@K@std@@V?$allocator@U?$pair@$$CBKPAVCPicaSoftCallStackThread@PicaSoft@@@std@@@4@$0A@@std@@@2@XZ 0047cfa0 f i PicaSoftObject.obj
 0001:0007c0d0       ?_Buynode@?$_Tree@V?$_Tmap_traits@KPAVCPicaSoftCallStackThread@PicaSoft@@U?$less@K@std@@V?$allocator@U?$pair@$$CBKPAVCPicaSoftCallStackThread@PicaSoft@@@std@@@4@$0A@@std@@@std@@IAEPAU_Node@?$_Tree_nod@V?$_Tmap_traits@KPAVCPicaSoftCallStackThread@PicaSoft@@U?$less@K@std@@V?$allocator@U?$pair@$$CBKPAVCPicaSoftCallStackThread@PicaSoft@@@std@@@4@$0A@@std@@@2@PAU342@00ABU?$pair@$$CBKPAVCPicaSoftCallStackThread@PicaSoft@@@2@D@Z 0047d0d0 f i PicaSoftObject.obj
 0001:0007c1c0       ?GetThreadStackString@CPicaSoftCallStackThread@PicaSoft@@QAE?AV?$basic_string@DU?$char_traits@D@std@@V?$allocator@D@2@@std@@XZ 0047d1c0 f   PicaSoftObject.obj
 0001:0007c4a0       ?erase@?$_Tree@V?$_Tmap_traits@KPAVCPicaSoftCallStackThread@PicaSoft@@U?$less@K@std@@V?$allocator@U?$pair@$$CBKPAVCPicaSoftCallStackThread@PicaSoft@@@std@@@4@$0A@@std@@@std@@QAE?AViterator@12@V312@@Z 0047d4a0 f i PicaSoftObject.obj
 0001:0007c9f0       ?erase@?$_Tree@V?$_Tmap_traits@KPAVCPicaSoftCallStackThread@PicaSoft@@U?$less@K@std@@V?$allocator@U?$pair@$$CBKPAVCPicaSoftCallStackThread@PicaSoft@@@std@@@4@$0A@@std@@@std@@QAE?AViterator@12@V312@0@Z 0047d9f0 f i PicaSoftObject.obj
 0001:0007cb10       ?_Tidy@?$_Tree@V?$_Tmap_traits@KPAVCPicaSoftCallStackThread@PicaSoft@@U?$less@K@std@@V?$allocator@U?$pair@$$CBKPAVCPicaSoftCallStackThread@PicaSoft@@@std@@@4@$0A@@std@@@std@@IAEXXZ 0047db10 f i PicaSoftObject.obj
 0001:0007cbb0       ?_Insert_n@?$vector@PAVCPicaSoftApplication@PicaSoft@@V?$allocator@PAVCPicaSoftApplication@PicaSoft@@@std@@@std@@IAEXViterator@12@IABQAVCPicaSoftApplication@PicaSoft@@@Z 0047dbb0 f i PicaSoftObject.obj
 0001:0007cbb0       ?_Insert_n@?$vector@PAU_tagCallStackInfo@PicaSoft@@V?$allocator@PAU_tagCallStackInfo@PicaSoft@@@std@@@std@@IAEXViterator@12@IABQAU_tagCallStackInfo@PicaSoft@@@Z 0047dbb0 f i PicaSoftObject.obj
 0001:0007d290       ?_Init@?$_Tree@V?$_Tmap_traits@KPAVCPicaSoftCallStackThread@PicaSoft@@U?$less@K@std@@V?$allocator@U?$pair@$$CBKPAVCPicaSoftCallStackThread@PicaSoft@@@std@@@4@$0A@@std@@@std@@IAEXXZ 0047e290 f i PicaSoftObject.obj
 0001:0007d310       ?_Insert@?$_Tree@V?$_Tmap_traits@KPAVCPicaSoftCallStackThread@PicaSoft@@U?$less@K@std@@V?$allocator@U?$pair@$$CBKPAVCPicaSoftCallStackThread@PicaSoft@@@std@@@4@$0A@@std@@@std@@IAE?AViterator@12@_NPAU_Node@?$_Tree_nod@V?$_Tmap_traits@KPAVCPicaSoftCallStackThread@PicaSoft@@U?$less@K@std@@V?$allocator@U?$pair@$$CBKPAVCPicaSoftCallStackThread@PicaSoft@@@std@@@4@$0A@@std@@@2@ABU?$pair@$$CBKPAVCPicaSoftCallStackThread@PicaSoft@@@2@@Z 0047e310 f i PicaSoftObject.obj
 0001:0007d690       ??0CPicaSoftCallStackThread@PicaSoft@@AAE@K@Z 0047e690 f   PicaSoftObject.obj
 0001:0007d6f0       ??1CPicaSoftCallStackThread@PicaSoft@@AAE@XZ 0047e6f0 f   PicaSoftObject.obj
 0001:0007d850       ?Pack@CPicaSoftCallStackThread@PicaSoft@@AAEXXZ 0047e850 f   PicaSoftObject.obj
 0001:0007d940       ?RemoveApplication@CPicaSoftApplication@PicaSoft@@AAEXPAV12@@Z 0047e940 f   PicaSoftObject.obj
 0001:0007dac0       ?erase@?$_Tree@V?$_Tmap_traits@KPAVCPicaSoftCallStackThread@PicaSoft@@U?$less@K@std@@V?$allocator@U?$pair@$$CBKPAVCPicaSoftCallStackThread@PicaSoft@@@std@@@4@$0A@@std@@@std@@QAEIABK@Z 0047eac0 f i PicaSoftObject.obj
 0001:0007dbd0       ?insert@?$vector@PAU_tagCallStackInfo@PicaSoft@@V?$allocator@PAU_tagCallStackInfo@PicaSoft@@@std@@@std@@QAE?AViterator@12@V312@ABQAU_tagCallStackInfo@PicaSoft@@@Z 0047ebd0 f i PicaSoftObject.obj
 0001:0007dbd0       ?insert@?$vector@PAVCPicaSoftApplication@PicaSoft@@V?$allocator@PAVCPicaSoftApplication@PicaSoft@@@std@@@std@@QAE?AViterator@12@V312@ABQAVCPicaSoftApplication@PicaSoft@@@Z 0047ebd0 f i PicaSoftObject.obj
 0001:0007dcd0       ?insert@?$_Tree@V?$_Tmap_traits@KPAVCPicaSoftCallStackThread@PicaSoft@@U?$less@K@std@@V?$allocator@U?$pair@$$CBKPAVCPicaSoftCallStackThread@PicaSoft@@@std@@@4@$0A@@std@@@std@@QAE?AU?$pair@Viterator@?$_Tree@V?$_Tmap_traits@KPAVCPicaSoftCallStackThread@PicaSoft@@U?$less@K@std@@V?$allocator@U?$pair@$$CBKPAVCPicaSoftCallStackThread@PicaSoft@@@std@@@4@$0A@@std@@@std@@_N@2@ABU?$pair@$$CBKPAVCPicaSoftCallStackThread@PicaSoft@@@2@@Z 0047ecd0 f i PicaSoftObject.obj
 0001:0007deb0       ??1?$map@KPAVCPicaSoftCallStackThread@PicaSoft@@U?$less@K@std@@V?$allocator@U?$pair@$$CBKPAVCPicaSoftCallStackThread@PicaSoft@@@std@@@4@@std@@QAE@XZ 0047eeb0 f i PicaSoftObject.obj
 0001:0007def0       ?Leave@CPicaSoftCallStackThread@PicaSoft@@AAEXXZ 0047eef0 f   PicaSoftObject.obj
 0001:0007e020       ?push_back@?$vector@PAVCPicaSoftApplication@PicaSoft@@V?$allocator@PAVCPicaSoftApplication@PicaSoft@@@std@@@std@@QAEXABQAVCPicaSoftApplication@PicaSoft@@@Z 0047f020 f i PicaSoftObject.obj
 0001:0007e020       ?push_back@?$vector@PAU_tagCallStackInfo@PicaSoft@@V?$allocator@PAU_tagCallStackInfo@PicaSoft@@@std@@@std@@QAEXABQAU_tagCallStackInfo@PicaSoft@@@Z 0047f020 f i PicaSoftObject.obj
 0001:0007e150       ?insert@?$_Tree@V?$_Tmap_traits@KPAVCPicaSoftCallStackThread@PicaSoft@@U?$less@K@std@@V?$allocator@U?$pair@$$CBKPAVCPicaSoftCallStackThread@PicaSoft@@@std@@@4@$0A@@std@@@std@@QAE?AViterator@12@V312@ABU?$pair@$$CBKPAVCPicaSoftCallStackThread@PicaSoft@@@2@@Z 0047f150 f i PicaSoftObject.obj
 0001:0007e6c0       ??0CPicaSoftCallStack@PicaSoft@@QAE@XZ 0047f6c0 f   PicaSoftObject.obj
 0001:0007e730       ?Enter@CPicaSoftCallStackThread@PicaSoft@@AAEXPBDH0K@Z 0047f730 f   PicaSoftObject.obj
 0001:0007e840       ?AppendApplication@CPicaSoftApplication@PicaSoft@@AAEXPAV12@@Z 0047f840 f   PicaSoftObject.obj
 0001:0007e8b0       ?Attach@CPicaSoftApplication@PicaSoft@@AAEXXZ 0047f8b0 f   PicaSoftObject.obj
 0001:0007e9a0       ??A?$map@KPAVCPicaSoftCallStackThread@PicaSoft@@U?$less@K@std@@V?$allocator@U?$pair@$$CBKPAVCPicaSoftCallStackThread@PicaSoft@@@std@@@4@@std@@QAEAAPAVCPicaSoftCallStackThread@PicaSoft@@ABK@Z 0047f9a0 f i PicaSoftObject.obj
 0001:0007ea90       ?Enter@CPicaSoftCallStack@PicaSoft@@QAEXPBDH0@Z 0047fa90 f   PicaSoftObject.obj
 0001:0007ec30       ?Leave@CPicaSoftCallStack@PicaSoft@@QAEXXZ 0047fc30 f   PicaSoftObject.obj
 0001:0007ed70       ?GetCurrentStackString@CPicaSoftCallStack@PicaSoft@@QAE?AV?$basic_string@DU?$char_traits@D@std@@V?$allocator@D@2@@std@@XZ 0047fd70 f   PicaSoftObject.obj
 0001:0007eee0       ?GetAllStackString@CPicaSoftCallStack@PicaSoft@@QAE?AV?$basic_string@DU?$char_traits@D@std@@V?$allocator@D@2@@std@@XZ 0047fee0 f   PicaSoftObject.obj
 0001:0007f1a0       ??0CPicaSoftCallStackHelp@PicaSoft@@QAE@PBDH0@Z 004801a0 f   PicaSoftObject.obj
 0001:0007f1f0       ??1CPicaSoftCallStackHelp@PicaSoft@@QAE@XZ 004801f0 f   PicaSoftObject.obj
 0001:0007f230       ??0CPicaSoftApplication@PicaSoft@@QAE@XZ 00480230 f   PicaSoftObject.obj
 0001:0007f630       ??1CPicaSoftCallStack@PicaSoft@@QAE@XZ 00480630 f   PicaSoftObject.obj
 0001:0007f7e0       ?Detach@CPicaSoftApplication@PicaSoft@@AAEXXZ 004807e0 f   PicaSoftObject.obj
 0001:0007f890       ??1CPicaSoftApplication@PicaSoft@@QAE@XZ 00480890 f   PicaSoftObject.obj
 0001:0007f9c0       _VerQueryValueA@16         004809c0 f   version:VERSION.dll
 0001:0007f9c6       _GetFileVersionInfoA@16    004809c6 f   version:VERSION.dll
 0001:0007f9cc       _GetFileVersionInfoSizeA@8 004809cc f   version:VERSION.dll
 0001:0007f9d2       _jTTS_SessionStop@4        004809d2 f   jTTS_ML:jTTS_ML.dll
 0001:0007f9d8       _jTTS_SetParam@8           004809d8 f   jTTS_ML:jTTS_ML.dll
 0001:0007f9de       _jTTS_GetVoiceAttribute@8  004809de f   jTTS_ML:jTTS_ML.dll
 0001:0007f9e4       _jTTS_SessionExec@12       004809e4 f   jTTS_ML:jTTS_ML.dll
 0001:0007f9ea       _jTTS_SessionStart@28      004809ea f   jTTS_ML:jTTS_ML.dll
 0001:0007f9f0       _jTTS_End@0                004809f0 f   jTTS_ML:jTTS_ML.dll
 0001:0007f9f6       _jTTS_Init@8               004809f6 f   jTTS_ML:jTTS_ML.dll
 0001:0007f9fc       ??3@YAXPAX@Z               004809fc f   mfc71d:MFC71D.DLL
 0001:0007fa02       ??_V@YAXPAX@Z              00480a02 f   mfc71d:MFC71D.DLL
 0001:0007fa08       ?GetThisMessageMap@CDialog@@KGPBUAFX_MSGMAP@@XZ 00480a08 f   mfc71d:MFC71D.DLL
 0001:0007fa0e       ?PreInitDialog@CDialog@@MAEXXZ 00480a0e f   mfc71d:MFC71D.DLL
 0001:0007fa14       ?OnCancel@CDialog@@MAEXXZ  00480a14 f   mfc71d:MFC71D.DLL
 0001:0007fa1a       ?OnSetFont@CDialog@@UAEXPAVCFont@@@Z 00480a1a f   mfc71d:MFC71D.DLL
 0001:0007fa20       ?DoModal@CDialog@@UAEHXZ   00480a20 f   mfc71d:MFC71D.DLL
 0001:0007fa26       ?CreateIndirect@CDialog@@UAEHPBUDLGTEMPLATE@@PAVCWnd@@PAX@Z 00480a26 f   mfc71d:MFC71D.DLL
 0001:0007fa2c       ?CreateIndirect@CDialog@@UAEHPAXPAVCWnd@@@Z 00480a2c f   mfc71d:MFC71D.DLL
 0001:0007fa32       ?Create@CDialog@@UAEHPBDPAVCWnd@@@Z 00480a32 f   mfc71d:MFC71D.DLL
 0001:0007fa38       ?Create@CDialog@@UAEHIPAVCWnd@@@Z 00480a38 f   mfc71d:MFC71D.DLL
 0001:0007fa3e       ?SetOccDialogInfo@CDialog@@MAEHPAU_AFX_OCC_DIALOG_INFO@@@Z 00480a3e f   mfc71d:MFC71D.DLL
 0001:0007fa44       ?CreateControlSite@CWnd@@MAEHPAVCOleControlContainer@@PAPAVCOleControlSite@@IABU_GUID@@@Z 00480a44 f   mfc71d:MFC71D.DLL
 0001:0007fa4a       ?CreateControlContainer@CWnd@@MAEHPAPAVCOleControlContainer@@@Z 00480a4a f   mfc71d:MFC71D.DLL
 0001:0007fa50       ?IsFrameWnd@CWnd@@UBEHXZ   00480a50 f   mfc71d:MFC71D.DLL
 0001:0007fa56       ?CheckAutoCenter@CDialog@@UAEHXZ 00480a56 f   mfc71d:MFC71D.DLL
 0001:0007fa5c       ?OnChildNotify@CWnd@@MAEHIIJPAJ@Z 00480a5c f   mfc71d:MFC71D.DLL
 0001:0007fa62       ?PostNcDestroy@CWnd@@MAEXXZ 00480a62 f   mfc71d:MFC71D.DLL
 0001:0007fa68       ?DefWindowProcA@CWnd@@MAEJIIJ@Z 00480a68 f   mfc71d:MFC71D.DLL
 0001:0007fa6e       ?OnWndMsg@CWnd@@MAEHIIJPAJ@Z 00480a6e f   mfc71d:MFC71D.DLL
 0001:0007fa74       ?WindowProc@CWnd@@MAEJIIJ@Z 00480a74 f   mfc71d:MFC71D.DLL
 0001:0007fa7a       ?OnAmbientProperty@CWnd@@UAEHPAVCOleControlSite@@JPAUtagVARIANT@@@Z 00480a7a f   mfc71d:MFC71D.DLL
 0001:0007fa80       ?PreTranslateMessage@CDialog@@UAEHPAUtagMSG@@@Z 00480a80 f   mfc71d:MFC71D.DLL
 0001:0007fa86       ?EndModalState@CWnd@@UAEXXZ 00480a86 f   mfc71d:MFC71D.DLL
 0001:0007fa8c       ?BeginModalState@CWnd@@UAEXXZ 00480a8c f   mfc71d:MFC71D.DLL
 0001:0007fa92       ?GetSuperWndProcAddr@CWnd@@MAEPAP6GJPAUHWND__@@IIJ@ZXZ 00480a92 f   mfc71d:MFC71D.DLL
 0001:0007fa98       ?OnNotify@CWnd@@MAEHIJPAJ@Z 00480a98 f   mfc71d:MFC71D.DLL
 0001:0007fa9e       ?OnCommand@CWnd@@MAEHIJ@Z  00480a9e f   mfc71d:MFC71D.DLL
 0001:0007faa4       ?CreateAccessibleProxy@CWnd@@UAEJIJPAJ@Z 00480aa4 f   mfc71d:MFC71D.DLL
 0001:0007faaa       ?SetProxy@CWnd@@UAEJPAUIAccessibleProxy@@@Z 00480aaa f   mfc71d:MFC71D.DLL
 0001:0007fab0       ?accDoDefaultAction@CWnd@@UAEJUtagVARIANT@@@Z 00480ab0 f   mfc71d:MFC71D.DLL
 0001:0007fab6       ?accHitTest@CWnd@@UAEJJJPAUtagVARIANT@@@Z 00480ab6 f   mfc71d:MFC71D.DLL
 0001:0007fabc       ?accNavigate@CWnd@@UAEJJUtagVARIANT@@PAU2@@Z 00480abc f   mfc71d:MFC71D.DLL
 0001:0007fac2       ?accLocation@CWnd@@UAEJPAJ000UtagVARIANT@@@Z 00480ac2 f   mfc71d:MFC71D.DLL
 0001:0007fac8       ?accSelect@CWnd@@UAEJJUtagVARIANT@@@Z 00480ac8 f   mfc71d:MFC71D.DLL
 0001:0007fad0       ?get_accSelection@CWnd@@UAEJPAUtagVARIANT@@@Z 00480ad0 f   mfc71d:MFC71D.DLL
 0001:0007fad6       ?get_accFocus@CWnd@@UAEJPAUtagVARIANT@@@Z 00480ad6 f   mfc71d:MFC71D.DLL
 0001:0007fae0       ?get_accState@CWnd@@UAEJUtagVARIANT@@PAU2@@Z 00480ae0 f   mfc71d:MFC71D.DLL
 0001:0007fae6       ?get_accRole@CWnd@@UAEJUtagVARIANT@@PAU2@@Z 00480ae6 f   mfc71d:MFC71D.DLL
 0001:0007faf0       ?get_accChild@CWnd@@UAEJUtagVARIANT@@PAPAUIDispatch@@@Z 00480af0 f   mfc71d:MFC71D.DLL
 0001:0007faf6       ?get_accChildCount@CWnd@@UAEJPAJ@Z 00480af6 f   mfc71d:MFC71D.DLL
 0001:0007fafc       ?get_accParent@CWnd@@UAEJPAPAUIDispatch@@@Z 00480afc f   mfc71d:MFC71D.DLL
 0001:0007fb02       ?EnsureStdObj@CWnd@@UAEJXZ 00480b02 f   mfc71d:MFC71D.DLL
 0001:0007fb08       ?EndModalLoop@CWnd@@UAEXH@Z 00480b08 f   mfc71d:MFC71D.DLL
 0001:0007fb0e       ?ContinueModal@CWnd@@UAEHXZ 00480b0e f   mfc71d:MFC71D.DLL
 0001:0007fb14       ?WinHelpInternal@CWnd@@UAEXKI@Z 00480b14 f   mfc71d:MFC71D.DLL
 0001:0007fb1a       ?HtmlHelpA@CWnd@@UAEXKI@Z  00480b1a f   mfc71d:MFC71D.DLL
 0001:0007fb20       ?WinHelpA@CWnd@@UAEXKI@Z   00480b20 f   mfc71d:MFC71D.DLL
 0001:0007fb26       ?GetScrollBarCtrl@CWnd@@UBEPAVCScrollBar@@H@Z 00480b26 f   mfc71d:MFC71D.DLL
 0001:0007fb2c       ?OnToolHitTest@CWnd@@UBEHVCPoint@@PAUtagTOOLINFOA@@@Z 00480b2c f   mfc71d:MFC71D.DLL
 0001:0007fb32       ?CalcWindowRect@CWnd@@UAEXPAUtagRECT@@I@Z 00480b32 f   mfc71d:MFC71D.DLL
 0001:0007fb38       ?PreCreateWindow@CWnd@@UAEHAAUtagCREATESTRUCTA@@@Z 00480b38 f   mfc71d:MFC71D.DLL
 0001:0007fb3e       ?DestroyWindow@CWnd@@UAEHXZ 00480b3e f   mfc71d:MFC71D.DLL
 0001:0007fb44       ?CreateEx@CWnd@@UAEHKPBD0KHHHHPAUHWND__@@PAUHMENU__@@PAX@Z 00480b44 f   mfc71d:MFC71D.DLL
 0001:0007fb4a       ?CreateEx@CWnd@@UAEHKPBD0KABUtagRECT@@PAV1@IPAX@Z 00480b4a f   mfc71d:MFC71D.DLL
 0001:0007fb50       ?Create@CWnd@@UAEHPBD0KABUtagRECT@@PAV1@IPAUCCreateContext@@@Z 00480b50 f   mfc71d:MFC71D.DLL
 0001:0007fb56       ?PreSubclassWindow@CWnd@@UAEXXZ 00480b56 f   mfc71d:MFC71D.DLL
 0001:0007fb5c       ?GetConnectionHook@CCmdTarget@@MAEPAUIConnectionPoint@@ABU_GUID@@@Z 00480b5c f   mfc71d:MFC71D.DLL
 0001:0007fb62       ?GetExtraConnectionPoints@CCmdTarget@@MAEHPAVCPtrArray@@@Z 00480b62 f   mfc71d:MFC71D.DLL
 0001:0007fb68       ?GetInterfaceHook@CCmdTarget@@UAEPAUIUnknown@@PBX@Z 00480b68 f   mfc71d:MFC71D.DLL
 0001:0007fb6e       ?OnCreateAggregates@CCmdTarget@@UAEHXZ 00480b6e f   mfc71d:MFC71D.DLL
 0001:0007fb74       ?GetEventSinkMap@CCmdTarget@@MBEPBUAFX_EVENTSINKMAP@@XZ 00480b74 f   mfc71d:MFC71D.DLL
 0001:0007fb7a       ?GetInterfaceMap@CWnd@@MBEPBUAFX_INTERFACEMAP@@XZ 00480b7a f   mfc71d:MFC71D.DLL
 0001:0007fb80       ?GetConnectionMap@CCmdTarget@@MBEPBUAFX_CONNECTIONMAP@@XZ 00480b80 f   mfc71d:MFC71D.DLL
 0001:0007fb86       ?GetDispatchMap@CCmdTarget@@MBEPBUAFX_DISPMAP@@XZ 00480b86 f   mfc71d:MFC71D.DLL
 0001:0007fb8c       ?GetCommandMap@CCmdTarget@@MBEPBUAFX_OLECMDMAP@@XZ 00480b8c f   mfc71d:MFC71D.DLL
 0001:0007fb92       ?GetTypeLib@CCmdTarget@@UAEJKPAPAUITypeLib@@@Z 00480b92 f   mfc71d:MFC71D.DLL
 0001:0007fb98       ?GetTypeLibCache@CCmdTarget@@UAEPAVCTypeLibCache@@XZ 00480b98 f   mfc71d:MFC71D.DLL
 0001:0007fb9e       ?GetTypeInfoCount@CCmdTarget@@UAEIXZ 00480b9e f   mfc71d:MFC71D.DLL
 0001:0007fba4       ?GetDispatchIID@CCmdTarget@@UAEHPAU_GUID@@@Z 00480ba4 f   mfc71d:MFC71D.DLL
 0001:0007fbaa       ?IsInvokeAllowed@CCmdTarget@@UAEHJ@Z 00480baa f   mfc71d:MFC71D.DLL
 0001:0007fbb0       ?OnFinalRelease@CWnd@@UAEXXZ 00480bb0 f   mfc71d:MFC71D.DLL
 0001:0007fbb6       ?OnCmdMsg@CDialog@@UAEHIHPAXPAUAFX_CMDHANDLERINFO@@@Z 00480bb6 f   mfc71d:MFC71D.DLL
 0001:0007fbbc       ?Dump@CDialog@@UBEXAAVCDumpContext@@@Z 00480bbc f   mfc71d:MFC71D.DLL
 0001:0007fbc2       ?AssertValid@CDialog@@UBEXXZ 00480bc2 f   mfc71d:MFC71D.DLL
 0001:0007fbc8       ?Serialize@CObject@@UAEXAAVCArchive@@@Z 00480bc8 f   mfc71d:MFC71D.DLL
 0001:0007fbce       ?GetRuntimeClass@CDialog@@UBEPAUCRuntimeClass@@XZ 00480bce f   mfc71d:MFC71D.DLL
 0001:0007fbd4       ??1CComboBox@@UAE@XZ       00480bd4 f   mfc71d:MFC71D.DLL
 0001:0007fbda       ??1CListCtrl@@UAE@XZ       00480bda f   mfc71d:MFC71D.DLL
 0001:0007fbe0       ??1CDialog@@UAE@XZ         00480be0 f   mfc71d:MFC71D.DLL
 0001:0007fbe6       ??0CComboBox@@QAE@XZ       00480be6 f   mfc71d:MFC71D.DLL
 0001:0007fbec       ??0CListCtrl@@QAE@XZ       00480bec f   mfc71d:MFC71D.DLL
 0001:0007fbf2       ??0CDialog@@QAE@IPAVCWnd@@@Z 00480bf2 f   mfc71d:MFC71D.DLL
 0001:0007fbf8       ??3CObject@@SGXPAX@Z       00480bf8 f   mfc71d:MFC71D.DLL
 0001:0007fbfe       ?DDX_Control@@YGXPAVCDataExchange@@HAAVCWnd@@@Z 00480bfe f   mfc71d:MFC71D.DLL
 0001:0007fc04       ?DoDataExchange@CWnd@@MAEXPAVCDataExchange@@@Z 00480c04 f   mfc71d:MFC71D.DLL
 0001:0007fc0a       ?OnOK@CDialog@@MAEXXZ      00480c0a f   mfc71d:MFC71D.DLL
 0001:0007fc10       ?GetItemText@CListCtrl@@QBE?AV?$CStringT@DV?$StrTraitMFC_DLL@DV?$ChTraitsCRT@D@ATL@@@@@ATL@@HH@Z 00480c10 f   mfc71d:MFC71D.DLL
 0001:0007fc16       ?GetNextSelectedItem@CListCtrl@@QBEHAAPAU__POSITION@@@Z 00480c16 f   mfc71d:MFC71D.DLL
 0001:0007fc1c       ?GetFirstSelectedItemPosition@CListCtrl@@QBEPAU__POSITION@@XZ 00480c1c f   mfc71d:MFC71D.DLL
 0001:0007fc22       ?GetSelectedItem@CTreeCtrl@@QBEPAU_TREEITEM@@XZ 00480c22 f   mfc71d:MFC71D.DLL
 0001:0007fc28       ?UpdateData@CWnd@@QAEHH@Z  00480c28 f   mfc71d:MFC71D.DLL
 0001:0007fc2e       ?SetItemState@CListCtrl@@QAEHHII@Z 00480c2e f   mfc71d:MFC71D.DLL
 0001:0007fc34       ?SetHotItem@CListCtrl@@QAEHH@Z 00480c34 f   mfc71d:MFC71D.DLL
 0001:0007fc3a       ?SelectItem@CTreeCtrl@@QAEHPAU_TREEITEM@@@Z 00480c3a f   mfc71d:MFC71D.DLL
 0001:0007fc40       ?GetRootItem@CTreeCtrl@@QBEPAU_TREEITEM@@XZ 00480c40 f   mfc71d:MFC71D.DLL
 0001:0007fc46       ?SelectString@CComboBox@@QAEHHPBD@Z 00480c46 f   mfc71d:MFC71D.DLL
 0001:0007fc4c       ?InsertColumn@CListCtrl@@QAEHHPBDHHH@Z 00480c4c f   mfc71d:MFC71D.DLL
 0001:0007fc52       ?SetExtendedStyle@CListCtrl@@QAEKK@Z 00480c52 f   mfc71d:MFC71D.DLL
 0001:0007fc58       ?OnInitDialog@CDialog@@UAEHXZ 00480c58 f   mfc71d:MFC71D.DLL
 0001:0007fc5e       ?AddString@CComboBox@@QAEHPBD@Z 00480c5e f   mfc71d:MFC71D.DLL
 0001:0007fc64       ?ResetContent@CComboBox@@QAEXXZ 00480c64 f   mfc71d:MFC71D.DLL
 0001:0007fc6a       ?Invalidate@CWnd@@QAEXH@Z  00480c6a f   mfc71d:MFC71D.DLL
 0001:0007fc70       ?GetLBText@CComboBox@@QBEXHAAV?$CStringT@DV?$StrTraitMFC_DLL@DV?$ChTraitsCRT@D@ATL@@@@@ATL@@@Z 00480c70 f   mfc71d:MFC71D.DLL
 0001:0007fc76       ?SetRedraw@CWnd@@QAEXH@Z   00480c76 f   mfc71d:MFC71D.DLL
 0001:0007fc7c       ?GetCurSel@CComboBox@@QBEHXZ 00480c7c f   mfc71d:MFC71D.DLL
 0001:0007fc82       ?DeleteAllItems@CListCtrl@@QAEHXZ 00480c82 f   mfc71d:MFC71D.DLL
 0001:0007fc88       ?EnsureVisible@CListCtrl@@QAEHHH@Z 00480c88 f   mfc71d:MFC71D.DLL
 0001:0007fc8e       ?SetItemText@CListCtrl@@QAEHHHPBD@Z 00480c8e f   mfc71d:MFC71D.DLL
 0001:0007fc94       ?InsertItem@CListCtrl@@QAEHHPBD@Z 00480c94 f   mfc71d:MFC71D.DLL
 0001:0007fc9a       ?Update@CListCtrl@@QAEHH@Z 00480c9a f   mfc71d:MFC71D.DLL
 0001:0007fca0       ??ACDWordArray@@QAEAAKH@Z  00480ca0 f   mfc71d:MFC71D.DLL
 0001:0007fca6       ??ACStringArray@@QAEAAV?$CStringT@DV?$StrTraitMFC_DLL@DV?$ChTraitsCRT@D@ATL@@@@@ATL@@H@Z 00480ca6 f   mfc71d:MFC71D.DLL
 0001:0007fcac       ?GetSize@CStringArray@@QBEHXZ 00480cac f   mfc71d:MFC71D.DLL
 0001:0007fcb2       ?GetItemCount@CListCtrl@@QBEHXZ 00480cb2 f   mfc71d:MFC71D.DLL
 0001:0007fcb8       ?AfxThrowInvalidArgException@@YGXXZ 00480cb8 f   mfc71d:MFC71D.DLL
 0001:0007fcbe       ?AfxAssertFailedLine@@YGHPBDH@Z 00480cbe f   mfc71d:MFC71D.DLL
 0001:0007fcc4       ??1CStringArray@@UAE@XZ    00480cc4 f   mfc71d:MFC71D.DLL
 0001:0007fcca       ?GetCount@CStringArray@@QBEHXZ 00480cca f   mfc71d:MFC71D.DLL
 0001:0007fcd0       ??0CStringArray@@QAE@XZ    00480cd0 f   mfc71d:MFC71D.DLL
 0001:0007fcd6       ?PumpMessages@CSocket@@MAEHI@Z 00480cd6 f   mfc71d:MFC71D.DLL
 0001:0007fcdc       ?OnMessagePending@CSocket@@MAEHXZ 00480cdc f   mfc71d:MFC71D.DLL
 0001:0007fce2       ?SendToHelper@CSocket@@MAEHPBXHPBUsockaddr@@HH@Z 00480ce2 f   mfc71d:MFC71D.DLL
 0001:0007fce8       ?ReceiveFromHelper@CSocket@@MAEHPAXHPAUsockaddr@@PAHH@Z 00480ce8 f   mfc71d:MFC71D.DLL
 0001:0007fcee       ?ConnectHelper@CSocket@@MAEHPBUsockaddr@@H@Z 00480cee f   mfc71d:MFC71D.DLL
 0001:0007fcf4       ?OnConnect@CAsyncSocket@@MAEXH@Z 00480cf4 f   mfc71d:MFC71D.DLL
 0001:0007fcfa       ?OnAccept@CAsyncSocket@@MAEXH@Z 00480cfa f   mfc71d:MFC71D.DLL
 0001:0007fd00       ?OnOutOfBandData@CAsyncSocket@@MAEXH@Z 00480d00 f   mfc71d:MFC71D.DLL
 0001:0007fd06       ?OnSend@CAsyncSocket@@MAEXH@Z 00480d06 f   mfc71d:MFC71D.DLL
 0001:0007fd0c       ?Send@CSocket@@UAEHPBXHH@Z 00480d0c f   mfc71d:MFC71D.DLL
 0001:0007fd12       ?Receive@CSocket@@UAEHPAXHH@Z 00480d12 f   mfc71d:MFC71D.DLL
 0001:0007fd18       ?Close@CSocket@@UAEXXZ     00480d18 f   mfc71d:MFC71D.DLL
 0001:0007fd1e       ?Accept@CSocket@@UAEHAAVCAsyncSocket@@PAUsockaddr@@PAH@Z 00480d1e f   mfc71d:MFC71D.DLL
 0001:0007fd24       ?Dump@CSocket@@MBEXAAVCDumpContext@@@Z 00480d24 f   mfc71d:MFC71D.DLL
 0001:0007fd2a       ?AssertValid@CSocket@@MBEXXZ 00480d2a f   mfc71d:MFC71D.DLL
 0001:0007fd30       ?GetRuntimeClass@CSocket@@UBEPAUCRuntimeClass@@XZ 00480d30 f   mfc71d:MFC71D.DLL
 0001:0007fd36       ??1CSocket@@UAE@XZ         00480d36 f   mfc71d:MFC71D.DLL
 0001:0007fd3c       ??0CSocket@@QAE@XZ         00480d3c f   mfc71d:MFC71D.DLL
 0001:0007fd42       ?OnClose@CAsyncSocket@@MAEXH@Z 00480d42 f   mfc71d:MFC71D.DLL
 0001:0007fd48       ?PostThreadMessageA@CWinThread@@QAEHIIJ@Z 00480d48 f   mfc71d:MFC71D.DLL
 0001:0007fd4e       ?OnReceive@CAsyncSocket@@MAEXH@Z 00480d4e f   mfc71d:MFC71D.DLL
 0001:0007fd54       ?GetLastError@CAsyncSocket@@SGHXZ 00480d54 f   mfc71d:MFC71D.DLL
 0001:0007fd5a       ??1CSocketFile@@UAE@XZ     00480d5a f   mfc71d:MFC71D.DLL
 0001:0007fd60       ?Flush@CSocketFile@@UAEXXZ 00480d60 f   mfc71d:MFC71D.DLL
 0001:0007fd66       ?Write@CSocketFile@@UAEXPBXI@Z 00480d66 f   mfc71d:MFC71D.DLL
 0001:0007fd6c       ??0CSocketFile@@QAE@PAVCSocket@@H@Z 00480d6c f   mfc71d:MFC71D.DLL
 0001:0007fd72       ?GetSockOpt@CAsyncSocket@@QAEHHPAXPAHH@Z 00480d72 f   mfc71d:MFC71D.DLL
 0001:0007fd78       ?GetThisMessageMap@CCmdTarget@@KGPBUAFX_MSGMAP@@XZ 00480d78 f   mfc71d:MFC71D.DLL
 0001:0007fd7e       ??3CObject@@SGXPAXPBDH@Z   00480d7e f   mfc71d:MFC71D.DLL
 0001:0007fd84       ??2CObject@@SGPAXIPBDH@Z   00480d84 f   mfc71d:MFC71D.DLL
 0001:0007fd8a       ?GetThisClass@CWinThread@@SGPAUCRuntimeClass@@XZ 00480d8a f   mfc71d:MFC71D.DLL
 0001:0007fd90       ?Delete@CWinThread@@UAEXXZ 00480d90 f   mfc71d:MFC71D.DLL
 0001:0007fd96       ?GetMainWnd@CWinThread@@UAEPAVCWnd@@XZ 00480d96 f   mfc71d:MFC71D.DLL
 0001:0007fd9c       ?ProcessMessageFilter@CWinThread@@UAEHHPAUtagMSG@@@Z 00480d9c f   mfc71d:MFC71D.DLL
 0001:0007fda2       ?ProcessWndProcException@CWinThread@@UAEJPAVCException@@PBUtagMSG@@@Z 00480da2 f   mfc71d:MFC71D.DLL
 0001:0007fda8       ?IsIdleMessage@CWinThread@@UAEHPAUtagMSG@@@Z 00480da8 f   mfc71d:MFC71D.DLL
 0001:0007fdae       ?PumpMessage@CWinThread@@UAEHXZ 00480dae f   mfc71d:MFC71D.DLL
 0001:0007fdb4       ?PreTranslateMessage@CWinThread@@UAEHPAUtagMSG@@@Z 00480db4 f   mfc71d:MFC71D.DLL
 0001:0007fdba       ?Run@CWinThread@@UAEHXZ    00480dba f   mfc71d:MFC71D.DLL
 0001:0007fdc0       ?GetInterfaceMap@CCmdTarget@@MBEPBUAFX_INTERFACEMAP@@XZ 00480dc0 f   mfc71d:MFC71D.DLL
 0001:0007fdc6       ?OnFinalRelease@CCmdTarget@@UAEXXZ 00480dc6 f   mfc71d:MFC71D.DLL
 0001:0007fdcc       ?OnCmdMsg@CCmdTarget@@UAEHIHPAXPAUAFX_CMDHANDLERINFO@@@Z 00480dcc f   mfc71d:MFC71D.DLL
 0001:0007fdd2       ?Dump@CWinThread@@UBEXAAVCDumpContext@@@Z 00480dd2 f   mfc71d:MFC71D.DLL
 0001:0007fdd8       ?AssertValid@CWinThread@@UBEXXZ 00480dd8 f   mfc71d:MFC71D.DLL
 0001:0007fdde       ??1CWinThread@@UAE@XZ      00480dde f   mfc71d:MFC71D.DLL
 0001:0007fde4       ??0CWinThread@@QAE@XZ      00480de4 f   mfc71d:MFC71D.DLL
 0001:0007fdea       ?GetPeerName@CAsyncSocket@@QAEHAAV?$CStringT@DV?$StrTraitMFC_DLL@DV?$ChTraitsCRT@D@ATL@@@@@ATL@@AAI@Z 00480dea f   mfc71d:MFC71D.DLL
 0001:0007fdf0       ?AsyncSelect@CAsyncSocket@@QAEHJ@Z 00480df0 f   mfc71d:MFC71D.DLL
 0001:0007fdf6       ?Attach@CSocket@@QAEHI@Z   00480df6 f   mfc71d:MFC71D.DLL
 0001:0007fdfc       ?ExitInstance@CWinThread@@UAEHXZ 00480dfc f   mfc71d:MFC71D.DLL
 0001:0007fe02       ??2@YAPAXIPBDH@Z           00480e02 f   mfc71d:MFC71D.DLL
 0001:0007fe08       ?OnIdle@CWinThread@@UAEHJ@Z 00480e08 f   mfc71d:MFC71D.DLL
 0001:0007fe0e       ??1CTreeCtrl@@UAE@XZ       00480e0e f   mfc71d:MFC71D.DLL
 0001:0007fe14       ??0CTreeCtrl@@QAE@XZ       00480e14 f   mfc71d:MFC71D.DLL
 0001:0007fe1a       ?SetFocus@CWnd@@QAEPAV1@XZ 00480e1a f   mfc71d:MFC71D.DLL
 0001:0007fe20       ?SetWindowPos@CWnd@@QAEHPBV1@HHHHI@Z 00480e20 f   mfc71d:MFC71D.DLL
 0001:0007fe26       ?ScreenToClient@CWnd@@QBEXPAUtagRECT@@@Z 00480e26 f   mfc71d:MFC71D.DLL
 0001:0007fe2c       ?GetWindowRect@CWnd@@QBEXPAUtagRECT@@@Z 00480e2c f   mfc71d:MFC71D.DLL
 0001:0007fe32       ?GetDlgItem@CWnd@@QBEPAV1@H@Z 00480e32 f   mfc71d:MFC71D.DLL
 0001:0007fe38       ?SetItemData@CTreeCtrl@@QAEHPAU_TREEITEM@@K@Z 00480e38 f   mfc71d:MFC71D.DLL
 0001:0007fe3e       ?InsertItem@CTreeCtrl@@QAEPAU_TREEITEM@@PBDHHPAU2@1@Z 00480e3e f   mfc71d:MFC71D.DLL
 0001:0007fe44       ?SetImageList@CTreeCtrl@@QAEPAVCImageList@@PAV2@H@Z 00480e44 f   mfc71d:MFC71D.DLL
 0001:0007fe4a       ?DeleteAllItems@CTreeCtrl@@QAEHXZ 00480e4a f   mfc71d:MFC71D.DLL
 0001:0007fe50       ?Add@CImageList@@QAEHPAUHICON__@@@Z 00480e50 f   mfc71d:MFC71D.DLL
 0001:0007fe56       ?LoadIconA@CWinApp@@QBEPAUHICON__@@I@Z 00480e56 f   mfc71d:MFC71D.DLL
 0001:0007fe5c       ?Create@CImageList@@QAEHHHIHH@Z 00480e5c f   mfc71d:MFC71D.DLL
 0001:0007fe62       ??0CImageList@@QAE@XZ      00480e62 f   mfc71d:MFC71D.DLL
 0001:0007fe68       ?ShowWindow@CWnd@@QAEHH@Z  00480e68 f   mfc71d:MFC71D.DLL
 0001:0007fe6e       ?AfxMessageBox@@YGHPBDII@Z 00480e6e f   mfc71d:MFC71D.DLL
 0001:0007fe74       ?EnableWindow@CWnd@@QAEHH@Z 00480e74 f   mfc71d:MFC71D.DLL
 0001:0007fe7a       ?GetItemData@CTreeCtrl@@QBEKPAU_TREEITEM@@@Z 00480e7a f   mfc71d:MFC71D.DLL
 0001:0007fe80       ?GetThisMessageMap@CPropertySheet@@KGPBUAFX_MSGMAP@@XZ 00480e80 f   mfc71d:MFC71D.DLL
 0001:0007fe86       ?GetThisClass@CPropertySheet@@SGPAUCRuntimeClass@@XZ 00480e86 f   mfc71d:MFC71D.DLL
 0001:0007fe8c       ?BuildPropPageArray@CPropertySheet@@UAEXXZ 00480e8c f   mfc71d:MFC71D.DLL
 0001:0007fe92       ?OnInitDialog@CPropertySheet@@UAEHXZ 00480e92 f   mfc71d:MFC71D.DLL
 0001:0007fe98       ?DoModal@CPropertySheet@@UAEHXZ 00480e98 f   mfc71d:MFC71D.DLL
 0001:0007fe9e       ?Create@CPropertySheet@@UAEHPAVCWnd@@KK@Z 00480e9e f   mfc71d:MFC71D.DLL
 0001:0007fea4       ?SetOccDialogInfo@CWnd@@MAEHPAU_AFX_OCC_DIALOG_INFO@@@Z 00480ea4 f   mfc71d:MFC71D.DLL
 0001:0007feaa       ?CheckAutoCenter@CWnd@@UAEHXZ 00480eaa f   mfc71d:MFC71D.DLL
 0001:0007feb0       ?OnCommand@CPropertySheet@@UAEHIJ@Z 00480eb0 f   mfc71d:MFC71D.DLL
 0001:0007feb6       ?ContinueModal@CPropertySheet@@UAEHXZ 00480eb6 f   mfc71d:MFC71D.DLL
 0001:0007febc       ?OnCmdMsg@CPropertySheet@@UAEHIHPAXPAUAFX_CMDHANDLERINFO@@@Z 00480ebc f   mfc71d:MFC71D.DLL
 0001:0007fec2       ?Dump@CPropertySheet@@UBEXAAVCDumpContext@@@Z 00480ec2 f   mfc71d:MFC71D.DLL
 0001:0007fec8       ?AssertValid@CPropertySheet@@UBEXXZ 00480ec8 f   mfc71d:MFC71D.DLL
 0001:0007fece       ??0CPropertySheet@@QAE@XZ  00480ece f   mfc71d:MFC71D.DLL
 0001:0007fed4       ??1CPropertySheet@@UAE@XZ  00480ed4 f   mfc71d:MFC71D.DLL
 0001:0007feda       ?SetActivePage@CPropertySheet@@QAEHH@Z 00480eda f   mfc71d:MFC71D.DLL
 0001:0007fee0       ?GetItem@CTabCtrl@@QBEHHPAUtagTCITEMA@@@Z 00480ee0 f   mfc71d:MFC71D.DLL
 0001:0007fee6       ?GetItemCount@CTabCtrl@@QBEHXZ 00480ee6 f   mfc71d:MFC71D.DLL
 0001:0007feec       ?GetTabControl@CPropertySheet@@QBEPAVCTabCtrl@@XZ 00480eec f   mfc71d:MFC71D.DLL
 0001:0007fef2       ?PreTranslateMessage@CPropertySheet@@UAEHPAUtagMSG@@@Z 00480ef2 f   mfc71d:MFC71D.DLL
 0001:0007fef8       ?GetParent@CWnd@@QBEPAV1@XZ 00480ef8 f   mfc71d:MFC71D.DLL
 0001:0007fefe       ?RemoveAll@CStringArray@@QAEXXZ 00480efe f   mfc71d:MFC71D.DLL
 0001:0007ff04       ?DDX_Radio@@YGXPAVCDataExchange@@HAAH@Z 00480f04 f   mfc71d:MFC71D.DLL
 0001:0007ff0a       ?DDX_Text@@YGXPAVCDataExchange@@HAAV?$CStringT@DV?$StrTraitMFC_DLL@DV?$ChTraitsCRT@D@ATL@@@@@ATL@@@Z 00480f0a f   mfc71d:MFC71D.DLL
 0001:0007ff10       ?DDX_DateTimeCtrl@@YGXPAVCDataExchange@@HAAVCTime@ATL@@@Z 00480f10 f   mfc71d:MFC71D.DLL
 0001:0007ff16       ?GetItemData@CComboBox@@QBEKH@Z 00480f16 f   mfc71d:MFC71D.DLL
 0001:0007ff1c       ?AfxMessageBox@@YGHIII@Z   00480f1c f   mfc71d:MFC71D.DLL
 0001:0007ff22       ?SetCurSel@CComboBox@@QAEHH@Z 00480f22 f   mfc71d:MFC71D.DLL
 0001:0007ff28       ?GetCount@CComboBox@@QBEHXZ 00480f28 f   mfc71d:MFC71D.DLL
 0001:0007ff2e       ?Add@CStringArray@@QAEHABV?$CStringT@DV?$StrTraitMFC_DLL@DV?$ChTraitsCRT@D@ATL@@@@@ATL@@@Z 00480f2e f   mfc71d:MFC71D.DLL
 0001:0007ff34       ?SetItemData@CComboBox@@QAEHHK@Z 00480f34 f   mfc71d:MFC71D.DLL
 0001:0007ff3a       ?InsertString@CComboBox@@QAEHHPBD@Z 00480f3a f   mfc71d:MFC71D.DLL
 0001:0007ff40       ?OnDestroy@CWnd@@IAEXXZ    00480f40 f   mfc71d:MFC71D.DLL
 0001:0007ff46       ??1CFileDialog@@UAE@XZ     00480f46 f   mfc71d:MFC71D.DLL
 0001:0007ff4c       ?GetPathName@CFileDialog@@QBE?AV?$CStringT@DV?$StrTraitMFC_DLL@DV?$ChTraitsCRT@D@ATL@@@@@ATL@@XZ 00480f4c f   mfc71d:MFC71D.DLL
 0001:0007ff52       ?DoModal@CFileDialog@@UAEHXZ 00480f52 f   mfc71d:MFC71D.DLL
 0001:0007ff58       ??0CFileDialog@@QAE@HPBD0K0PAVCWnd@@K@Z 00480f58 f   mfc71d:MFC71D.DLL
 0001:0007ff5e       ??2@YAPAXI@Z               00480f5e f   mfc71d:MFC71D.DLL
 0001:0007ff64       ?DDV_MaxChars@@YGXPAVCDataExchange@@ABV?$CStringT@DV?$StrTraitMFC_DLL@DV?$ChTraitsCRT@D@ATL@@@@@ATL@@H@Z 00480f64 f   mfc71d:MFC71D.DLL
 0001:0007ff6a       ?GetProfileStringA@CWinApp@@QAE?AV?$CStringT@DV?$StrTraitMFC_DLL@DV?$ChTraitsCRT@D@ATL@@@@@ATL@@PBD00@Z 00480f6a f   mfc71d:MFC71D.DLL
 0001:0007ff70       ?GetRuntimeClass@CObject@@UBEPAUCRuntimeClass@@XZ 00480f70 f   mfc71d:MFC71D.DLL
 0001:0007ff76       ??3@YAXPAXPBDH@Z           00480f76 f   mfc71d:MFC71D.DLL
 0001:0007ff7c       ??1CObject@@UAE@XZ         00480f7c f   mfc71d:MFC71D.DLL
 0001:0007ff82       ??0CObject@@IAE@XZ         00480f82 f   mfc71d:MFC71D.DLL
 0001:0007ff88       ?AfxAssertValidObject@@YGXPBVCObject@@PBDH@Z 00480f88 f   mfc71d:MFC71D.DLL
 0001:0007ff8e       ?FreeDataChain@CPlex@@QAEXXZ 00480f8e f   mfc71d:MFC71D.DLL
 0001:0007ff94       ?AfxIsValidAddress@@YGHPBXIH@Z 00480f94 f   mfc71d:MFC71D.DLL
 0001:0007ff9a       ?ReadCount@CArchive@@QAEKXZ 00480f9a f   mfc71d:MFC71D.DLL
 0001:0007ffa0       ?WriteCount@CArchive@@QAEXK@Z 00480fa0 f   mfc71d:MFC71D.DLL
 0001:0007ffa6       ?IsStoring@CArchive@@QBEHXZ 00480fa6 f   mfc71d:MFC71D.DLL
 0001:0007ffac       ?GetDepth@CDumpContext@@QBEHXZ 00480fac f   mfc71d:MFC71D.DLL
 0001:0007ffb2       ??6CDumpContext@@QAEAAV0@H@Z 00480fb2 f   mfc71d:MFC71D.DLL
 0001:0007ffb8       ??6CDumpContext@@QAEAAV0@PBD@Z 00480fb8 f   mfc71d:MFC71D.DLL
 0001:0007ffbe       ?Dump@CObject@@UBEXAAVCDumpContext@@@Z 00480fbe f   mfc71d:MFC71D.DLL
 0001:0007ffc4       ?AssertValid@CObject@@UBEXXZ 00480fc4 f   mfc71d:MFC71D.DLL
 0001:0007ffca       ?Read@CArchive@@QAEIPAXI@Z 00480fca f   mfc71d:MFC71D.DLL
 0001:0007ffd0       ?Write@CArchive@@QAEXPBXI@Z 00480fd0 f   mfc71d:MFC71D.DLL
 0001:0007ffd6       ??_U@YAPAXI@Z              00480fd6 f   mfc71d:MFC71D.DLL
 0001:0007ffdc       ?Create@CPlex@@SGPAU1@AAPAU1@II@Z 00480fdc f   mfc71d:MFC71D.DLL
 0001:0007ffe2       ??1CFileFind@@UAE@XZ       00480fe2 f   mfc71d:MFC71D.DLL
 0001:0007ffe8       ?Close@CFileFind@@QAEXXZ   00480fe8 f   mfc71d:MFC71D.DLL
 0001:0007ffee       ?IsDirectory@CFileFind@@QBEHXZ 00480fee f   mfc71d:MFC71D.DLL
 0001:0007fff4       ?FindNextFileA@CFileFind@@UAEHXZ 00480ff4 f   mfc71d:MFC71D.DLL
 0001:0007fffa       ?FindFile@CFileFind@@UAEHPBDK@Z 00480ffa f   mfc71d:MFC71D.DLL
 0001:00080000       ??0CFileFind@@QAE@XZ       00481000 f   mfc71d:MFC71D.DLL
 0001:00080006       ?RemoveAt@CStringArray@@QAEXHH@Z 00481006 f   mfc71d:MFC71D.DLL
 0001:0008000c       ?SetAt@CStringArray@@QAEXHABV?$CStringT@DV?$StrTraitMFC_DLL@DV?$ChTraitsCRT@D@ATL@@@@@ATL@@@Z 0048100c f   mfc71d:MFC71D.DLL
 0001:00080012       ?GetAt@CStringArray@@QBEABV?$CStringT@DV?$StrTraitMFC_DLL@DV?$ChTraitsCRT@D@ATL@@@@@ATL@@H@Z 00481012 f   mfc71d:MFC71D.DLL
 0001:00080018       ?GetCreationTime@CFileFind@@UBEHAAVCTime@ATL@@@Z 00481018 f   mfc71d:MFC71D.DLL
 0001:0008001e       ?GetFileName@CFileFind@@UBE?AV?$CStringT@DV?$StrTraitMFC_DLL@DV?$ChTraitsCRT@D@ATL@@@@@ATL@@XZ 0048101e f   mfc71d:MFC71D.DLL
 0001:00080024       ?AfxFreeLibrary@@YGHPAUHINSTANCE__@@@Z 00481024 f   mfc71d:MFC71D.DLL
 0001:0008002a       ?AfxLoadLibrary@@YGPAUHINSTANCE__@@PBD@Z 0048102a f   mfc71d:MFC71D.DLL
 0001:00080030       ??_U@YAPAXIPBDH@Z          00481030 f   mfc71d:MFC71D.DLL
 0001:00080036       ?WriteProfileInt@CWinApp@@QAEHPBD0H@Z 00481036 f   mfc71d:MFC71D.DLL
 0001:0008003c       ?WriteProfileStringA@CWinApp@@QAEHPBD00@Z 0048103c f   mfc71d:MFC71D.DLL
 0001:00080042       ?SendToHelper@CAsyncSocket@@MAEHPBXHPBUsockaddr@@HH@Z 00481042 f   mfc71d:MFC71D.DLL
 0001:00080048       ?ReceiveFromHelper@CAsyncSocket@@MAEHPAXHPAUsockaddr@@PAHH@Z 00481048 f   mfc71d:MFC71D.DLL
 0001:0008004e       ?ConnectHelper@CAsyncSocket@@MAEHPBUsockaddr@@H@Z 0048104e f   mfc71d:MFC71D.DLL
 0001:00080054       ?Send@CAsyncSocket@@UAEHPBXHH@Z 00481054 f   mfc71d:MFC71D.DLL
 0001:0008005a       ?Receive@CAsyncSocket@@UAEHPAXHH@Z 0048105a f   mfc71d:MFC71D.DLL
 0001:00080060       ?Close@CAsyncSocket@@UAEXXZ 00481060 f   mfc71d:MFC71D.DLL
 0001:00080066       ?Accept@CAsyncSocket@@UAEHAAV1@PAUsockaddr@@PAH@Z 00481066 f   mfc71d:MFC71D.DLL
 0001:0008006c       ?Dump@CAsyncSocket@@UBEXAAVCDumpContext@@@Z 0048106c f   mfc71d:MFC71D.DLL
 0001:00080072       ?AssertValid@CAsyncSocket@@UBEXXZ 00481072 f   mfc71d:MFC71D.DLL
 0001:00080078       ?GetRuntimeClass@CAsyncSocket@@UBEPAUCRuntimeClass@@XZ 00481078 f   mfc71d:MFC71D.DLL
 0001:0008007e       ??0CAsyncSocket@@QAE@XZ    0048107e f   mfc71d:MFC71D.DLL
 0001:00080084       ??1CAsyncSocket@@UAE@XZ    00481084 f   mfc71d:MFC71D.DLL
 0001:0008008a       ?ResumeThread@CWinThread@@QAEKXZ 0048108a f   mfc71d:MFC71D.DLL
 0001:00080090       ?Detach@CAsyncSocket@@QAEIXZ 00481090 f   mfc71d:MFC71D.DLL
 0001:00080096       ?GetSafeHwnd@CWnd@@QBEPAUHWND__@@XZ 00481096 f   mfc71d:MFC71D.DLL
 0001:0008009c       ?AfxBeginThread@@YGPAVCWinThread@@PAUCRuntimeClass@@HIKPAU_SECURITY_ATTRIBUTES@@@Z 0048109c f   mfc71d:MFC71D.DLL
 0001:000800a2       ?GetThisMessageMap@CFrameWnd@@KGPBUAFX_MSGMAP@@XZ 004810a2 f   mfc71d:MFC71D.DLL
 0001:000800a8       ?GetThisMessageMap@CListView@@KGPBUAFX_MSGMAP@@XZ 004810a8 f   mfc71d:MFC71D.DLL
 0001:000800ae       ?GetThisClass@CListView@@SGPAUCRuntimeClass@@XZ 004810ae f   mfc71d:MFC71D.DLL
 0001:000800b4       ?DrawItem@CListView@@UAEXPAUtagDRAWITEMSTRUCT@@@Z 004810b4 f   mfc71d:MFC71D.DLL
 0001:000800ba       ?OnEndPrintPreview@CView@@MAEXPAVCDC@@PAUCPrintInfo@@UtagPOINT@@PAVCPreviewView@@@Z 004810ba f   mfc71d:MFC71D.DLL
 0001:000800c0       ?OnEndPrinting@CView@@MAEXPAVCDC@@PAUCPrintInfo@@@Z 004810c0 f   mfc71d:MFC71D.DLL
 0001:000800c6       ?OnPrint@CView@@MAEXPAVCDC@@PAUCPrintInfo@@@Z 004810c6 f   mfc71d:MFC71D.DLL
 0001:000800cc       ?OnBeginPrinting@CView@@MAEXPAVCDC@@PAUCPrintInfo@@@Z 004810cc f   mfc71d:MFC71D.DLL
 0001:000800d2       ?OnPreparePrinting@CView@@MAEHPAUCPrintInfo@@@Z 004810d2 f   mfc71d:MFC71D.DLL
 0001:000800d8       ?OnUpdate@CView@@MAEXPAV1@JPAVCObject@@@Z 004810d8 f   mfc71d:MFC71D.DLL
 0001:000800de       ?OnActivateFrame@CView@@MAEXIPAVCFrameWnd@@@Z 004810de f   mfc71d:MFC71D.DLL
 0001:000800e4       ?OnActivateView@CView@@MAEXHPAV1@0@Z 004810e4 f   mfc71d:MFC71D.DLL
 0001:000800ea       ?OnPrepareDC@CView@@UAEXPAVCDC@@PAUCPrintInfo@@@Z 004810ea f   mfc71d:MFC71D.DLL
 0001:000800f0       ?OnDragScroll@CView@@UAEKKVCPoint@@@Z 004810f0 f   mfc71d:MFC71D.DLL
 0001:000800f6       ?OnDropEx@CView@@UAEKPAVCOleDataObject@@KKVCPoint@@@Z 004810f6 f   mfc71d:MFC71D.DLL
 0001:000800fc       ?OnDrop@CView@@UAEHPAVCOleDataObject@@KVCPoint@@@Z 004810fc f   mfc71d:MFC71D.DLL
 0001:00080102       ?OnDragLeave@CView@@UAEXXZ 00481102 f   mfc71d:MFC71D.DLL
 0001:00080108       ?OnDragOver@CView@@UAEKPAVCOleDataObject@@KVCPoint@@@Z 00481108 f   mfc71d:MFC71D.DLL
 0001:0008010e       ?OnDragEnter@CView@@UAEKPAVCOleDataObject@@KVCPoint@@@Z 0048110e f   mfc71d:MFC71D.DLL
 0001:00080114       ?OnScrollBy@CView@@UAEHVCSize@@H@Z 00481114 f   mfc71d:MFC71D.DLL
 0001:0008011a       ?OnScroll@CView@@UAEHIIH@Z 0048111a f   mfc71d:MFC71D.DLL
 0001:00080120       ?IsSelected@CView@@UBEHPBVCObject@@@Z 00481120 f   mfc71d:MFC71D.DLL
 0001:00080126       ?OnChildNotify@CListView@@MAEHIIJPAJ@Z 00481126 f   mfc71d:MFC71D.DLL
 0001:0008012c       ?PostNcDestroy@CView@@MAEXXZ 0048112c f   mfc71d:MFC71D.DLL
 0001:00080132       ?PreTranslateMessage@CWnd@@UAEHPAUtagMSG@@@Z 00481132 f   mfc71d:MFC71D.DLL
 0001:00080138       ?GetScrollBarCtrl@CView@@UBEPAVCScrollBar@@H@Z 00481138 f   mfc71d:MFC71D.DLL
 0001:0008013e       ?CalcWindowRect@CView@@UAEXPAUtagRECT@@I@Z 0048113e f   mfc71d:MFC71D.DLL
 0001:00080144       ?PreCreateWindow@CListView@@UAEHAAUtagCREATESTRUCTA@@@Z 00481144 f   mfc71d:MFC71D.DLL
 0001:0008014a       ?OnCmdMsg@CView@@UAEHIHPAXPAUAFX_CMDHANDLERINFO@@@Z 0048114a f   mfc71d:MFC71D.DLL
 0001:00080150       ?Dump@CCtrlView@@UBEXAAVCDumpContext@@@Z 00481150 f   mfc71d:MFC71D.DLL
 0001:00080156       ?AssertValid@CCtrlView@@UBEXXZ 00481156 f   mfc71d:MFC71D.DLL
 0001:0008015c       ??0CListView@@QAE@XZ       0048115c f   mfc71d:MFC71D.DLL
 0001:00080162       ??1CCtrlView@@UAE@XZ       00481162 f   mfc71d:MFC71D.DLL
 0001:00080168       ?OnInitialUpdate@CView@@UAEXXZ 00481168 f   mfc71d:MFC71D.DLL
 0001:0008016e       ?SetImageList@CListCtrl@@QAEPAVCImageList@@PAV2@H@Z 0048116e f   mfc71d:MFC71D.DLL
 0001:00080174       ?ModifyStyle@CWnd@@QAEHKKI@Z 00481174 f   mfc71d:MFC71D.DLL
 0001:0008017a       ?GetListCtrl@CListView@@QBEAAVCListCtrl@@XZ 0048117a f   mfc71d:MFC71D.DLL
 0001:00080180       ?SetItem@CListCtrl@@QAEHHHIPBDHIIJ@Z 00481180 f   mfc71d:MFC71D.DLL
 0001:00080186       ?DeleteItem@CListCtrl@@QAEHH@Z 00481186 f   mfc71d:MFC71D.DLL
 0001:0008018c       ?InsertItem@CListCtrl@@QAEHHPBDH@Z 0048118c f   mfc71d:MFC71D.DLL
 0001:00080192       ?GetThisClass@CFrameWnd@@SGPAUCRuntimeClass@@XZ 00481192 f   mfc71d:MFC71D.DLL
 0001:00080198       ?ExitHelpMode@CFrameWnd@@UAEXXZ 00481198 f   mfc71d:MFC71D.DLL
 0001:0008019e       ?DelayUpdateFrameMenu@CFrameWnd@@UAEXPAUHMENU__@@@Z 0048119e f   mfc71d:MFC71D.DLL
 0001:000801a4       ?GetDefaultAccelerator@CFrameWnd@@UAEPAUHACCEL__@@XZ 004811a4 f   mfc71d:MFC71D.DLL
 0001:000801aa       ?OnUpdateFrameMenu@CFrameWnd@@UAEXPAUHMENU__@@@Z 004811aa f   mfc71d:MFC71D.DLL
 0001:000801b0       ?OnUpdateFrameTitle@CFrameWnd@@UAEXH@Z 004811b0 f   mfc71d:MFC71D.DLL
 0001:000801b6       ?NegotiateBorderSpace@CFrameWnd@@UAEHIPAUtagRECT@@@Z 004811b6 f   mfc71d:MFC71D.DLL
 0001:000801bc       ?GetMessageBar@CFrameWnd@@UAEPAVCWnd@@XZ 004811bc f   mfc71d:MFC71D.DLL
 0001:000801c2       ?OnSetPreviewMode@CFrameWnd@@UAEXHPAUCPrintPreviewState@@@Z 004811c2 f   mfc71d:MFC71D.DLL
 0001:000801c8       ?ActivateFrame@CFrameWnd@@UAEXH@Z 004811c8 f   mfc71d:MFC71D.DLL
 0001:000801ce       ?GetMessageString@CFrameWnd@@UBEXIAAV?$CStringT@DV?$StrTraitMFC_DLL@DV?$ChTraitsCRT@D@ATL@@@@@ATL@@@Z 004811ce f   mfc71d:MFC71D.DLL
 0001:000801d4       ?GetActiveFrame@CFrameWnd@@UAEPAV1@XZ 004811d4 f   mfc71d:MFC71D.DLL
 0001:000801da       ?GetActiveDocument@CFrameWnd@@UAEPAVCDocument@@XZ 004811da f   mfc71d:MFC71D.DLL
 0001:000801e0       ?LoadFrame@CFrameWnd@@UAEHIKPAVCWnd@@PAUCCreateContext@@@Z 004811e0 f   mfc71d:MFC71D.DLL
 0001:000801e6       ?Create@CFrameWnd@@UAEHPBD0KABUtagRECT@@PAVCWnd@@0KPAUCCreateContext@@@Z 004811e6 f   mfc71d:MFC71D.DLL
 0001:000801ec       ?IsFrameWnd@CFrameWnd@@UBEHXZ 004811ec f   mfc71d:MFC71D.DLL
 0001:000801f2       ?PostNcDestroy@CFrameWnd@@MAEXXZ 004811f2 f   mfc71d:MFC71D.DLL
 0001:000801f8       ?PreTranslateMessage@CFrameWnd@@UAEHPAUtagMSG@@@Z 004811f8 f   mfc71d:MFC71D.DLL
 0001:000801fe       ?EndModalState@CFrameWnd@@UAEXXZ 004811fe f   mfc71d:MFC71D.DLL
 0001:00080204       ?BeginModalState@CFrameWnd@@UAEXXZ 00481204 f   mfc71d:MFC71D.DLL
 0001:0008020a       ?OnCommand@CFrameWnd@@MAEHIJ@Z 0048120a f   mfc71d:MFC71D.DLL
 0001:00080210       ?OnCmdMsg@CFrameWnd@@UAEHIHPAXPAUAFX_CMDHANDLERINFO@@@Z 00481210 f   mfc71d:MFC71D.DLL
 0001:00080216       ??1CSplitterWnd@@UAE@XZ    00481216 f   mfc71d:MFC71D.DLL
 0001:0008021c       ??1CToolBar@@UAE@XZ        0048121c f   mfc71d:MFC71D.DLL
 0001:00080222       ??1CStatusBar@@UAE@XZ      00481222 f   mfc71d:MFC71D.DLL
 0001:00080228       ??1CProgressCtrl@@UAE@XZ   00481228 f   mfc71d:MFC71D.DLL
 0001:0008022e       ??1CStatic@@UAE@XZ         0048122e f   mfc71d:MFC71D.DLL
 0001:00080234       ??1CFrameWnd@@UAE@XZ       00481234 f   mfc71d:MFC71D.DLL
 0001:0008023a       ??0CSplitterWnd@@QAE@XZ    0048123a f   mfc71d:MFC71D.DLL
 0001:00080240       ??0CToolBar@@QAE@XZ        00481240 f   mfc71d:MFC71D.DLL
 0001:00080246       ??0CStatusBar@@QAE@XZ      00481246 f   mfc71d:MFC71D.DLL
 0001:0008024c       ??0CProgressCtrl@@QAE@XZ   0048124c f   mfc71d:MFC71D.DLL
 0001:00080252       ??0CStatic@@QAE@XZ         00481252 f   mfc71d:MFC71D.DLL
 0001:00080258       ??0CFrameWnd@@QAE@XZ       00481258 f   mfc71d:MFC71D.DLL
 0001:0008025e       ?GetProfileIntA@CWinApp@@QAEIPBD0H@Z 0048125e f   mfc71d:MFC71D.DLL
 0001:00080264       ?GetBorders@CStatusBarCtrl@@QBEHAAH00@Z 00481264 f   mfc71d:MFC71D.DLL
 0001:0008026a       ?MoveWindow@CWnd@@QAEXPBUtagRECT@@H@Z 0048126a f   mfc71d:MFC71D.DLL
 0001:00080270       ?GetPaneStyle@CStatusBar@@QBEIH@Z 00481270 f   mfc71d:MFC71D.DLL
 0001:00080276       ?GetRect@CStatusBarCtrl@@QBEHHPAUtagRECT@@@Z 00481276 f   mfc71d:MFC71D.DLL
 0001:0008027c       ?GetStatusBarCtrl@CStatusBar@@QBEAAVCStatusBarCtrl@@XZ 0048127c f   mfc71d:MFC71D.DLL
 0001:00080282       ?DockControlBar@CFrameWnd@@QAEXPAVCControlBar@@IPBUtagRECT@@@Z 00481282 f   mfc71d:MFC71D.DLL
 0001:00080288       ?EnableDocking@CFrameWnd@@QAEXK@Z 00481288 f   mfc71d:MFC71D.DLL
 0001:0008028e       ?EnableDocking@CControlBar@@QAEXK@Z 0048128e f   mfc71d:MFC71D.DLL
 0001:00080294       ?SetTipText@CStatusBarCtrl@@QAEXHPBD@Z 00481294 f   mfc71d:MFC71D.DLL
 0001:0008029a       ?SetPaneInfo@CStatusBar@@QAEXHIIH@Z 0048129a f   mfc71d:MFC71D.DLL
 0001:000802a0       ?SetStep@CProgressCtrl@@QAEHH@Z 004812a0 f   mfc71d:MFC71D.DLL
 0001:000802a6       ?SetRange@CProgressCtrl@@QAEXFF@Z 004812a6 f   mfc71d:MFC71D.DLL
 0001:000802ac       ?SetIndicators@CStatusBar@@QAEHPBIH@Z 004812ac f   mfc71d:MFC71D.DLL
 0001:000802b2       ?LoadToolBar@CToolBar@@QAEHI@Z 004812b2 f   mfc71d:MFC71D.DLL
 0001:000802b8       ?OnCreate@CFrameWnd@@IAEHPAUtagCREATESTRUCTA@@@Z 004812b8 f   mfc71d:MFC71D.DLL
 0001:000802be       ?PreCreateWindow@CFrameWnd@@MAEHAAUtagCREATESTRUCTA@@@Z 004812be f   mfc71d:MFC71D.DLL
 0001:000802c4       ?AssertValid@CFrameWnd@@UBEXXZ 004812c4 f   mfc71d:MFC71D.DLL
 0001:000802ca       ?Dump@CFrameWnd@@UBEXAAVCDumpContext@@@Z 004812ca f   mfc71d:MFC71D.DLL
 0001:000802d0       ?RedrawWindow@CWnd@@QAEHPBUtagRECT@@PAVCRgn@@I@Z 004812d0 f   mfc71d:MFC71D.DLL
 0001:000802d6       ?SetIcon@CStatic@@QAEPAUHICON__@@PAU2@@Z 004812d6 f   mfc71d:MFC71D.DLL
 0001:000802dc       ?SetPaneText@CStatusBar@@QAEHHPBDH@Z 004812dc f   mfc71d:MFC71D.DLL
 0001:000802e2       ?StepIt@CProgressCtrl@@QAEHXZ 004812e2 f   mfc71d:MFC71D.DLL
 0001:000802e8       ?OnSize@CFrameWnd@@IAEXIHH@Z 004812e8 f   mfc71d:MFC71D.DLL
 0001:000802ee       ?SetForegroundWindow@CWnd@@QAEHXZ 004812ee f   mfc71d:MFC71D.DLL
 0001:000802f4       ?OnClose@CFrameWnd@@IAEXXZ 004812f4 f   mfc71d:MFC71D.DLL
 0001:000802fa       ?SetTimer@CWnd@@QAEIIIP6GXPAUHWND__@@IIK@Z@Z 004812fa f   mfc71d:MFC71D.DLL
 0001:00080300       ?Listen@CAsyncSocket@@QAEHH@Z 00481300 f   mfc71d:MFC71D.DLL
 0001:00080306       ?Create@CAsyncSocket@@QAEHIHJPBD@Z 00481306 f   mfc71d:MFC71D.DLL
 0001:0008030c       ?KillTimer@CWnd@@QAEHI@Z   0048130c f   mfc71d:MFC71D.DLL
 0001:00080312       ?PressButton@CToolBarCtrl@@QAEHHH@Z 00481312 f   mfc71d:MFC71D.DLL
 0001:00080318       ?GetToolBarCtrl@CToolBar@@QBEAAVCToolBarCtrl@@XZ 00481318 f   mfc71d:MFC71D.DLL
 0001:0008031e       ?CheckMenuItem@CMenu@@QAEIII@Z 0048131e f   mfc71d:MFC71D.DLL
 0001:00080324       ?GetMenu@CWnd@@QBEPAVCMenu@@XZ 00481324 f   mfc71d:MFC71D.DLL
 0001:0008032a       ?RecalcLayout@CFrameWnd@@UAEXH@Z 0048132a f   mfc71d:MFC71D.DLL
 0001:00080330       ??1CObList@@UAE@XZ         00481330 f   mfc71d:MFC71D.DLL
 0001:00080336       ?RemoveAt@CObList@@QAEXPAU__POSITION@@@Z 00481336 f   mfc71d:MFC71D.DLL
 0001:0008033c       ?Find@CObList@@QBEPAU__POSITION@@PAVCObject@@PAU2@@Z 0048133c f   mfc71d:MFC71D.DLL
 0001:00080342       ?GetHeadPosition@CObList@@QBEPAU__POSITION@@XZ 00481342 f   mfc71d:MFC71D.DLL
 0001:00080348       ?SetThreadPriority@CWinThread@@QAEHH@Z 00481348 f   mfc71d:MFC71D.DLL
 0001:0008034e       ?Dump@CObList@@UBEXAAVCDumpContext@@@Z 0048134e f   mfc71d:MFC71D.DLL
 0001:00080354       ?AssertValid@CObList@@UBEXXZ 00481354 f   mfc71d:MFC71D.DLL
 0001:0008035a       ?Serialize@CObList@@UAEXAAVCArchive@@@Z 0048135a f   mfc71d:MFC71D.DLL
 0001:00080360       ?GetRuntimeClass@CObList@@UBEPAUCRuntimeClass@@XZ 00481360 f   mfc71d:MFC71D.DLL
 0001:00080366       ?AddTail@CObList@@QAEPAU__POSITION@@PAVCObject@@@Z 00481366 f   mfc71d:MFC71D.DLL
 0001:0008036c       ?GetNext@CObList@@QAEAAPAVCObject@@AAPAU__POSITION@@@Z 0048136c f   mfc71d:MFC71D.DLL
 0001:00080372       ?GetAt@CObList@@QAEAAPAVCObject@@PAU__POSITION@@@Z 00481372 f   mfc71d:MFC71D.DLL
 0001:00080378       ??0CObList@@QAE@H@Z        00481378 f   mfc71d:MFC71D.DLL
 0001:0008037e       ?GetThisMessageMap@CPropertyPage@@KGPBUAFX_MSGMAP@@XZ 0048137e f   mfc71d:MFC71D.DLL
 0001:00080384       ?GetThisClass@CPropertyPage@@SGPAUCRuntimeClass@@XZ 00481384 f   mfc71d:MFC71D.DLL
 0001:0008038a       ?OnWizardFinish@CPropertyPage@@UAEHXZ 0048138a f   mfc71d:MFC71D.DLL
 0001:00080390       ?OnWizardNext@CPropertyPage@@UAEJXZ 00481390 f   mfc71d:MFC71D.DLL
 0001:00080396       ?OnWizardBack@CPropertyPage@@UAEJXZ 00481396 f   mfc71d:MFC71D.DLL
 0001:0008039c       ?OnQueryCancel@CPropertyPage@@UAEHXZ 0048139c f   mfc71d:MFC71D.DLL
 0001:000803a2       ?OnKillActive@CPropertyPage@@UAEHXZ 004813a2 f   mfc71d:MFC71D.DLL
 0001:000803a8       ?OnSetActive@CPropertyPage@@UAEHXZ 004813a8 f   mfc71d:MFC71D.DLL
 0001:000803ae       ?OnReset@CPropertyPage@@UAEXXZ 004813ae f   mfc71d:MFC71D.DLL
 0001:000803b4       ?OnApply@CPropertyPage@@UAEHXZ 004813b4 f   mfc71d:MFC71D.DLL
 0001:000803ba       ?OnCancel@CPropertyPage@@UAEXXZ 004813ba f   mfc71d:MFC71D.DLL
 0001:000803c0       ?OnOK@CPropertyPage@@UAEXXZ 004813c0 f   mfc71d:MFC71D.DLL
 0001:000803c6       ?PreTranslateMessage@CPropertyPage@@MAEHPAUtagMSG@@@Z 004813c6 f   mfc71d:MFC71D.DLL
 0001:000803cc       ?OnNotify@CPropertyPage@@MAEHIJPAJ@Z 004813cc f   mfc71d:MFC71D.DLL
 0001:000803d2       ?Dump@CPropertyPage@@UBEXAAVCDumpContext@@@Z 004813d2 f   mfc71d:MFC71D.DLL
 0001:000803d8       ?AssertValid@CPropertyPage@@UBEXXZ 004813d8 f   mfc71d:MFC71D.DLL
 0001:000803de       ??1CIPAddressCtrl@@UAE@XZ  004813de f   mfc71d:MFC71D.DLL
 0001:000803e4       ??1CSliderCtrl@@UAE@XZ     004813e4 f   mfc71d:MFC71D.DLL
 0001:000803ea       ??1CPropertyPage@@UAE@XZ   004813ea f   mfc71d:MFC71D.DLL
 0001:000803f0       ??0CIPAddressCtrl@@QAE@XZ  004813f0 f   mfc71d:MFC71D.DLL
 0001:000803f6       ??0CSliderCtrl@@QAE@XZ     004813f6 f   mfc71d:MFC71D.DLL
 0001:000803fc       ??0CPropertyPage@@QAE@IIK@Z 004813fc f   mfc71d:MFC71D.DLL
 0001:00080402       ?DDX_Text@@YGXPAVCDataExchange@@HAAI@Z 00481402 f   mfc71d:MFC71D.DLL
 0001:00080408       ?SetTicFreq@CSliderCtrl@@QAEXH@Z 00481408 f   mfc71d:MFC71D.DLL
 0001:0008040e       ?SetRange@CSliderCtrl@@QAEXHHH@Z 0048140e f   mfc71d:MFC71D.DLL
 0001:00080414       ?SetPos@CSliderCtrl@@QAEXH@Z 00481414 f   mfc71d:MFC71D.DLL
 0001:0008041a       ?SetWindowTextA@CWnd@@QAEXPBD@Z 0048141a f   mfc71d:MFC71D.DLL
 0001:00080420       ?GetPos@CSliderCtrl@@QBEHXZ 00481420 f   mfc71d:MFC71D.DLL
 0001:00080426       ?GetWindowTextA@CWnd@@QBEHPADH@Z 00481426 f   mfc71d:MFC71D.DLL
 0001:0008042c       ?OnHScroll@CWnd@@IAEXIIPAVCScrollBar@@@Z 0048142c f   mfc71d:MFC71D.DLL
 0001:00080432       ??1CSpinButtonCtrl@@UAE@XZ 00481432 f   mfc71d:MFC71D.DLL
 0001:00080438       ??1CListBox@@UAE@XZ        00481438 f   mfc71d:MFC71D.DLL
 0001:0008043e       ??0CSpinButtonCtrl@@QAE@XZ 0048143e f   mfc71d:MFC71D.DLL
 0001:00080444       ??0CListBox@@QAE@XZ        00481444 f   mfc71d:MFC71D.DLL
 0001:0008044a       ?DDX_Check@@YGXPAVCDataExchange@@HAAH@Z 0048144a f   mfc71d:MFC71D.DLL
 0001:00080450       ?DDV_MinMaxUInt@@YGXPAVCDataExchange@@III@Z 00481450 f   mfc71d:MFC71D.DLL
 0001:00080456       ?InsertString@CListBox@@QAEHHPBD@Z 00481456 f   mfc71d:MFC71D.DLL
 0001:0008045c       ?ResetContent@CListBox@@QAEXXZ 0048145c f   mfc71d:MFC71D.DLL
 0001:00080462       ?SetPos@CSpinButtonCtrl@@QAEHH@Z 00481462 f   mfc71d:MFC71D.DLL
 0001:00080468       ?SetRange@CSpinButtonCtrl@@QAEXFF@Z 00481468 f   mfc71d:MFC71D.DLL
 0001:0008046e       ?SetBase@CSpinButtonCtrl@@QAEHH@Z 0048146e f   mfc71d:MFC71D.DLL
 0001:00080474       ?GetCurSel@CListBox@@QBEHXZ 00481474 f   mfc71d:MFC71D.DLL
 0001:0008047a       ?DeleteString@CListBox@@QAEHI@Z 0048147a f   mfc71d:MFC71D.DLL
 0001:00080480       ?SetCurSel@CListBox@@QAEHH@Z 00481480 f   mfc71d:MFC71D.DLL
 0001:00080486       ?DDX_Text@@YGXPAVCDataExchange@@HAAH@Z 00481486 f   mfc71d:MFC71D.DLL
 0001:0008048c       ?SetDlgItemTextA@CWnd@@QAEXHPBD@Z 0048148c f   mfc71d:MFC71D.DLL
 0001:00080492       ?GetBase@CSpinButtonCtrl@@QBEIXZ 00481492 f   mfc71d:MFC71D.DLL
 0001:00080498       ?Connect@CAsyncSocket@@QAEHPBDI@Z 00481498 f   mfc71d:MFC71D.DLL
 0001:0008049e       ?GetUpperBound@CStringArray@@QBEHXZ 0048149e f   mfc71d:MFC71D.DLL
 0001:000804a4       ?GetThisMessageMap@CWinApp@@KGPBUAFX_MSGMAP@@XZ 004814a4 f   mfc71d:MFC71D.DLL
 0001:000804aa       ?LoadSysPolicies@CWinApp@@UAEHXZ 004814aa f   mfc71d:MFC71D.DLL
 0001:000804b0       ?LoadAppLangResourceDLL@CWinApp@@UAEPAUHINSTANCE__@@XZ 004814b0 f   mfc71d:MFC71D.DLL
 0001:000804b6       ?WinHelpInternal@CWinApp@@UAEXKI@Z 004814b6 f   mfc71d:MFC71D.DLL
 0001:000804bc       ?HtmlHelpA@CWinApp@@UAEXKI@Z 004814bc f   mfc71d:MFC71D.DLL
 0001:000804c2       ?WinHelpA@CWinApp@@UAEXKI@Z 004814c2 f   mfc71d:MFC71D.DLL
 0001:000804c8       ?OnDDECommand@CWinApp@@UAEHPAD@Z 004814c8 f   mfc71d:MFC71D.DLL
 0001:000804ce       ?DoWaitCursor@CWinApp@@UAEXH@Z 004814ce f   mfc71d:MFC71D.DLL
 0001:000804d4       ?DoMessageBox@CWinApp@@UAEHPBDII@Z 004814d4 f   mfc71d:MFC71D.DLL
 0001:000804da       ?SaveAllModified@CWinApp@@UAEHXZ 004814da f   mfc71d:MFC71D.DLL
 0001:000804e0       ?InitApplication@CWinApp@@UAEHXZ 004814e0 f   mfc71d:MFC71D.DLL
 0001:000804e6       ?AddToRecentFileList@CWinApp@@UAEXPBD@Z 004814e6 f   mfc71d:MFC71D.DLL
 0001:000804ec       ?OpenDocumentFile@CWinApp@@UAEPAVCDocument@@PBD@Z 004814ec f   mfc71d:MFC71D.DLL
 0001:000804f2       ?Unregister@CWinApp@@UAEHXZ 004814f2 f   mfc71d:MFC71D.DLL
 0001:000804f8       ?Register@CWinApp@@UAEHXZ  004814f8 f   mfc71d:MFC71D.DLL
 0001:000804fe       ?InitLibId@CWinApp@@UAEXXZ 004814fe f   mfc71d:MFC71D.DLL
 0001:00080504       ?ProcessWndProcException@CWinApp@@UAEJPAVCException@@PBUtagMSG@@@Z 00481504 f   mfc71d:MFC71D.DLL
 0001:0008050a       ?OnIdle@CWinApp@@UAEHJ@Z   0048150a f   mfc71d:MFC71D.DLL
 0001:00080510       ?Run@CWinApp@@UAEHXZ       00481510 f   mfc71d:MFC71D.DLL
 0001:00080516       ?Dump@CWinApp@@UBEXAAVCDumpContext@@@Z 00481516 f   mfc71d:MFC71D.DLL
 0001:0008051c       ?AssertValid@CWinApp@@UBEXXZ 0048151c f   mfc71d:MFC71D.DLL
 0001:00080522       ?GetRuntimeClass@CWinApp@@UBEPAUCRuntimeClass@@XZ 00481522 f   mfc71d:MFC71D.DLL
 0001:00080528       ??1CWinApp@@UAE@XZ         00481528 f   mfc71d:MFC71D.DLL
 0001:0008052e       ??0CWinApp@@QAE@PBD@Z      0048152e f   mfc71d:MFC71D.DLL
 0001:00080534       ?UpdateWindow@CWnd@@QAEXXZ 00481534 f   mfc71d:MFC71D.DLL
 0001:0008053a       ?ProcessShellCommand@CWinApp@@QAEHAAVCCommandLineInfo@@@Z 0048153a f   mfc71d:MFC71D.DLL
 0001:00080540       ?AddDocTemplate@CWinApp@@QAEXPAVCDocTemplate@@@Z 00481540 f   mfc71d:MFC71D.DLL
 0001:00080546       ??0CSingleDocTemplate@@QAE@IPAUCRuntimeClass@@00@Z 00481546 f   mfc71d:MFC71D.DLL
 0001:0008054c       ?Enable3dControls@CWinApp@@IAEHXZ 0048154c f   mfc71d:MFC71D.DLL
 0001:00080552       ?AfxEnableControlContainer@@YAXPAVCOccManager@@@Z 00481552 f   mfc71d:MFC71D.DLL
 0001:00080558       ??1CCommandLineInfo@@UAE@XZ 00481558 f   mfc71d:MFC71D.DLL
 0001:0008055e       ?ParseCommandLine@CWinApp@@QAEXAAVCCommandLineInfo@@@Z 0048155e f   mfc71d:MFC71D.DLL
 0001:00080564       ??0CCommandLineInfo@@QAE@XZ 00481564 f   mfc71d:MFC71D.DLL
 0001:0008056a       ?LoadCursorA@CWinApp@@QBEPAUHICON__@@I@Z 0048156a f   mfc71d:MFC71D.DLL
 0001:00080570       ?AfxGetApp@@YGPAVCWinApp@@XZ 00481570 f   mfc71d:MFC71D.DLL
 0001:00080576       ?ExitInstance@CWinApp@@UAEHXZ 00481576 f   mfc71d:MFC71D.DLL
 0001:0008057c       ?GetThisMessageMap@CDocument@@KGPBUAFX_MSGMAP@@XZ 0048157c f   mfc71d:MFC71D.DLL
 0001:00080582       ?GetThisClass@CDocument@@SGPAUCRuntimeClass@@XZ 00481582 f   mfc71d:MFC71D.DLL
 0001:00080588       ?OnIdle@CDocument@@UAEXXZ  00481588 f   mfc71d:MFC71D.DLL
 0001:0008058e       ?GetDefaultAccelerator@CDocument@@UAEPAUHACCEL__@@XZ 0048158e f   mfc71d:MFC71D.DLL
 0001:00080594       ?GetDefaultMenu@CDocument@@UAEPAUHMENU__@@XZ 00481594 f   mfc71d:MFC71D.DLL
 0001:0008059a       ?UpdateFrameCounts@CDocument@@UAEXXZ 0048159a f   mfc71d:MFC71D.DLL
 0001:000805a0       ?DoFileSave@CDocument@@UAEHXZ 004815a0 f   mfc71d:MFC71D.DLL
 0001:000805a6       ?DoSave@CDocument@@UAEHPBDH@Z 004815a6 f   mfc71d:MFC71D.DLL
 0001:000805ac       ?PreCloseFrame@CDocument@@UAEXPAVCFrameWnd@@@Z 004815ac f   mfc71d:MFC71D.DLL
 0001:000805b2       ?SaveModified@CDocument@@UAEHXZ 004815b2 f   mfc71d:MFC71D.DLL
 0001:000805b8       ?CanCloseFrame@CDocument@@UAEHPAVCFrameWnd@@@Z 004815b8 f   mfc71d:MFC71D.DLL
 0001:000805be       ?ReleaseFile@CDocument@@UAEXPAVCFile@@H@Z 004815be f   mfc71d:MFC71D.DLL
 0001:000805c4       ?GetFile@CDocument@@UAEPAVCFile@@PBDIPAVCFileException@@@Z 004815c4 f   mfc71d:MFC71D.DLL
 0001:000805ca       ?ReportSaveLoadException@CDocument@@UAEXPBDPAVCException@@HI@Z 004815ca f   mfc71d:MFC71D.DLL
 0001:000805d0       ?OnCloseDocument@CDocument@@UAEXXZ 004815d0 f   mfc71d:MFC71D.DLL
 0001:000805d6       ?OnSaveDocument@CDocument@@UAEHPBD@Z 004815d6 f   mfc71d:MFC71D.DLL
 0001:000805dc       ?OnOpenDocument@CDocument@@UAEHPBD@Z 004815dc f   mfc71d:MFC71D.DLL
 0001:000805e2       ?OnNewDocument@CDocument@@UAEHXZ 004815e2 f   mfc71d:MFC71D.DLL
 0001:000805e8       ?DeleteContents@CDocument@@UAEXXZ 004815e8 f   mfc71d:MFC71D.DLL
 0001:000805ee       ?OnChangedViewList@CDocument@@UAEXXZ 004815ee f   mfc71d:MFC71D.DLL
 0001:000805f4       ?GetNextView@CDocument@@UBEPAVCView@@AAPAU__POSITION@@@Z 004815f4 f   mfc71d:MFC71D.DLL
 0001:000805fa       ?GetFirstViewPosition@CDocument@@UBEPAU__POSITION@@XZ 004815fa f   mfc71d:MFC71D.DLL
 0001:00080600       ?SetModifiedFlag@CDocument@@UAEXH@Z 00481600 f   mfc71d:MFC71D.DLL
 0001:00080606       ?IsModified@CDocument@@UAEHXZ 00481606 f   mfc71d:MFC71D.DLL
 0001:0008060c       ?SetPathName@CDocument@@UAEXPBDH@Z 0048160c f   mfc71d:MFC71D.DLL
 0001:00080612       ?SetTitle@CDocument@@UAEXPBD@Z 00481612 f   mfc71d:MFC71D.DLL
 0001:00080618       ?OnFinalRelease@CDocument@@UAEXXZ 00481618 f   mfc71d:MFC71D.DLL
 0001:0008061e       ?OnCmdMsg@CDocument@@UAEHIHPAXPAUAFX_CMDHANDLERINFO@@@Z 0048161e f   mfc71d:MFC71D.DLL
 0001:00080624       ??0CDocument@@QAE@XZ       00481624 f   mfc71d:MFC71D.DLL
 0001:0008062a       ??1CDocument@@UAE@XZ       0048162a f   mfc71d:MFC71D.DLL
 0001:00080630       ?AssertValid@CDocument@@UBEXXZ 00481630 f   mfc71d:MFC71D.DLL
 0001:00080636       ?Dump@CDocument@@UBEXAAVCDumpContext@@@Z 00481636 f   mfc71d:MFC71D.DLL
 0001:0008063c       ?OnDraw@CCtrlView@@MAEXPAVCDC@@@Z 0048163c f   mfc71d:MFC71D.DLL
 0001:00080642       ?IsKindOf@CObject@@QBEHPBUCRuntimeClass@@@Z 00481642 f   mfc71d:MFC71D.DLL
 0001:00080648       ?PostMessageA@CWnd@@QAEHIIJ@Z 00481648 f   mfc71d:MFC71D.DLL
 0001:0008064e       ?SetItemData@CListCtrl@@QAEHHK@Z 0048164e f   mfc71d:MFC71D.DLL
 0001:00080654       ?GetItemData@CListCtrl@@QBEKH@Z 00481654 f   mfc71d:MFC71D.DLL
 0001:0008065a       ??1CFile@@UAE@XZ           0048165a f   mfc71d:MFC71D.DLL
 0001:00080660       ??1CFileException@@UAE@XZ  00481660 f   mfc71d:MFC71D.DLL
 0001:00080666       ?Close@CFile@@UAEXXZ       00481666 f   mfc71d:MFC71D.DLL
 0001:0008066c       ?Read@CFile@@UAEIPAXI@Z    0048166c f   mfc71d:MFC71D.DLL
 0001:00080672       ?GetErrorMessage@CFileException@@UAEHPADIPAI@Z 00481672 f   mfc71d:MFC71D.DLL
 0001:00080678       ?Open@CFile@@UAEHPBDIPAVCFileException@@@Z 00481678 f   mfc71d:MFC71D.DLL
 0001:0008067e       ??0CFileException@@QAE@HJPBD@Z 0048167e f   mfc71d:MFC71D.DLL
 0001:00080684       ??0CFile@@QAE@XZ           00481684 f   mfc71d:MFC71D.DLL
 0001:0008068a       ?GetThisMessageMap@CWnd@@KGPBUAFX_MSGMAP@@XZ 0048168a f   mfc71d:MFC71D.DLL
 0001:00080690       ?Dump@CWnd@@UBEXAAVCDumpContext@@@Z 00481690 f   mfc71d:MFC71D.DLL
 0001:00080696       ?AssertValid@CWnd@@UBEXXZ  00481696 f   mfc71d:MFC71D.DLL
 0001:0008069c       ?GetRuntimeClass@CWnd@@UBEPAUCRuntimeClass@@XZ 0048169c f   mfc71d:MFC71D.DLL
 0001:000806a2       ??1CWnd@@UAE@XZ            004816a2 f   mfc71d:MFC71D.DLL
 0001:000806a8       ??0CBitmap@@QAE@XZ         004816a8 f   mfc71d:MFC71D.DLL
 0001:000806ae       ??0CWnd@@QAE@XZ            004816ae f   mfc71d:MFC71D.DLL
 0001:000806b4       ??1CBitmap@@UAE@XZ         004816b4 f   mfc71d:MFC71D.DLL
 0001:000806ba       ?AfxRegisterWndClass@@YGPBDIPAUHICON__@@PAUHBRUSH__@@0@Z 004816ba f   mfc71d:MFC71D.DLL
 0001:000806c0       ?LoadStandardCursor@CWinApp@@QBEPAUHICON__@@PBD@Z 004816c0 f   mfc71d:MFC71D.DLL
 0001:000806c6       ?GetBitmap@CBitmap@@QAEHPAUtagBITMAP@@@Z 004816c6 f   mfc71d:MFC71D.DLL
 0001:000806cc       ?LoadBitmapA@CBitmap@@QAEHI@Z 004816cc f   mfc71d:MFC71D.DLL
 0001:000806d2       ?AfxGetMainWnd@@YGPAVCWnd@@XZ 004816d2 f   mfc71d:MFC71D.DLL
 0001:000806d8       ?CenterWindow@CWnd@@QAEXPAV1@@Z 004816d8 f   mfc71d:MFC71D.DLL
 0001:000806de       ?OnCreate@CWnd@@IAEHPAUtagCREATESTRUCTA@@@Z 004816de f   mfc71d:MFC71D.DLL
 0001:000806e4       ?BitBlt@CDC@@QAEHHHHHPAV1@HHK@Z 004816e4 f   mfc71d:MFC71D.DLL
 0001:000806ea       ?SelectObject@CDC@@QAEPAVCBitmap@@PAV2@@Z 004816ea f   mfc71d:MFC71D.DLL
 0001:000806f0       ??1CPaintDC@@UAE@XZ        004816f0 f   mfc71d:MFC71D.DLL
 0001:000806f6       ??1CDC@@UAE@XZ             004816f6 f   mfc71d:MFC71D.DLL
 0001:000806fc       ?CreateCompatibleDC@CDC@@QAEHPAV1@@Z 004816fc f   mfc71d:MFC71D.DLL
 0001:00080702       ??0CDC@@QAE@XZ             00481702 f   mfc71d:MFC71D.DLL
 0001:00080708       ??0CPaintDC@@QAE@PAVCWnd@@@Z 00481708 f   mfc71d:MFC71D.DLL
 0001:0008070e       ?GetFilePath@CFileFind@@UBE?AV?$CStringT@DV?$StrTraitMFC_DLL@DV?$ChTraitsCRT@D@ATL@@@@@ATL@@XZ 0048170e f   mfc71d:MFC71D.DLL
 0001:00080714       ?ClientToScreen@CWnd@@QBEXPAUtagRECT@@@Z 00481714 f   mfc71d:MFC71D.DLL
 0001:0008071a       ?GetItemRect@CListCtrl@@QBEHHPAUtagRECT@@I@Z 0048171a f   mfc71d:MFC71D.DLL
 0001:00080720       ?GetColumnWidth@CListCtrl@@QBEHH@Z 00481720 f   mfc71d:MFC71D.DLL
 0001:00080726       ?SetColumnWidth@CListCtrl@@QAEHHH@Z 00481726 f   mfc71d:MFC71D.DLL
 0001:0008072c       ?GetItemCount@CHeaderCtrl@@QBEHXZ 0048172c f   mfc71d:MFC71D.DLL
 0001:00080732       ?GetHeaderCtrl@CListCtrl@@QAEPAVCHeaderCtrl@@XZ 00481732 f   mfc71d:MFC71D.DLL
 0001:00080738       ?Close@CStdioFile@@UAEXXZ  00481738 f   mfc71d:MFC71D.DLL
 0001:0008073e       ?WriteString@CStdioFile@@UAEXPBD@Z 0048173e f   mfc71d:MFC71D.DLL
 0001:00080744       ?Open@CStdioFile@@UAEHPBDIPAVCFileException@@@Z 00481744 f   mfc71d:MFC71D.DLL
 0001:0008074a       ??1CStdioFile@@UAE@XZ      0048174a f   mfc71d:MFC71D.DLL
 0001:00080750       ??0CStdioFile@@QAE@XZ      00481750 f   mfc71d:MFC71D.DLL
 0001:00080756       ?AfxThrowOleException@@YGXJ@Z 00481756 f   mfc71d:MFC71D.DLL
 0001:0008075c       ?AfxThrowMemoryException@@YGXXZ 0048175c f   mfc71d:MFC71D.DLL
 0001:00080762       ?Create@CButton@@UAEHPBDKABUtagRECT@@PAVCWnd@@I@Z 00481762 f   mfc71d:MFC71D.DLL
 0001:00080768       ?OnChildNotify@CButton@@MAEHIIJPAJ@Z 00481768 f   mfc71d:MFC71D.DLL
 0001:0008076e       ?GetRuntimeClass@CButton@@UBEPAUCRuntimeClass@@XZ 0048176e f   mfc71d:MFC71D.DLL
 0001:00080774       ??1CToolTipCtrl@@UAE@XZ    00481774 f   mfc71d:MFC71D.DLL
 0001:0008077a       ??1CButton@@UAE@XZ         0048177a f   mfc71d:MFC71D.DLL
 0001:00080780       ??0CToolTipCtrl@@QAE@XZ    00481780 f   mfc71d:MFC71D.DLL
 0001:00080786       ??0CButton@@QAE@XZ         00481786 f   mfc71d:MFC71D.DLL
 0001:0008078c       ?AfxFindResourceHandle@@YGPAUHINSTANCE__@@PBD0@Z 0048178c f   mfc71d:MFC71D.DLL
 0001:00080792       ?GetClientRect@CWnd@@QBEXPAUtagRECT@@@Z 00481792 f   mfc71d:MFC71D.DLL
 0001:00080798       ?SetCapture@CWnd@@QAEPAV1@XZ 00481798 f   mfc71d:MFC71D.DLL
 0001:0008079e       ?GetCapture@CWnd@@SGPAV1@XZ 0048179e f   mfc71d:MFC71D.DLL
 0001:000807a4       ?GetOwner@CWnd@@QBEPAV1@XZ 004817a4 f   mfc71d:MFC71D.DLL
 0001:000807aa       ?GetActiveWindow@CWnd@@SGPAV1@XZ 004817aa f   mfc71d:MFC71D.DLL
 0001:000807b0       ?OnMouseMove@CWnd@@IAEXIVCPoint@@@Z 004817b0 f   mfc71d:MFC71D.DLL
 0001:000807b6       ?OnKillFocus@CWnd@@IAEXPAV1@@Z 004817b6 f   mfc71d:MFC71D.DLL
 0001:000807bc       ?OnCaptureChanged@CWnd@@IAEXPAV1@@Z 004817bc f   mfc71d:MFC71D.DLL
 0001:000807c2       ?DrawFocusRect@CDC@@QAEXPBUtagRECT@@@Z 004817c2 f   mfc71d:MFC71D.DLL
 0001:000807c8       ?DrawState@CDC@@QAEHVCPoint@@VCSize@@PBDIHHPAVCBrush@@@Z 004817c8 f   mfc71d:MFC71D.DLL
 0001:000807ce       ?GetFont@CWnd@@QBEPAVCFont@@XZ 004817ce f   mfc71d:MFC71D.DLL
 0001:000807d4       ?GetWindowTextA@CWnd@@QBEXAAV?$CStringT@DV?$StrTraitMFC_DLL@DV?$ChTraitsCRT@D@ATL@@@@@ATL@@@Z 004817d4 f   mfc71d:MFC71D.DLL
 0001:000807da       ??1CPen@@UAE@XZ            004817da f   mfc71d:MFC71D.DLL
 0001:000807e0       ?SelectObject@CDC@@QAEPAXPAX@Z 004817e0 f   mfc71d:MFC71D.DLL
 0001:000807e6       ??BCGdiObject@@QBEPAXXZ    004817e6 f   mfc71d:MFC71D.DLL
 0001:000807ec       ?LineTo@CDC@@QAEHHH@Z      004817ec f   mfc71d:MFC71D.DLL
 0001:000807f2       ?MoveTo@CDC@@QAE?AVCPoint@@HH@Z 004817f2 f   mfc71d:MFC71D.DLL
 0001:000807f8       ?SelectObject@CDC@@QAEPAVCPen@@PAV2@@Z 004817f8 f   mfc71d:MFC71D.DLL
 0001:000807fe       ??0CPen@@QAE@HHK@Z         004817fe f   mfc71d:MFC71D.DLL
 0001:00080804       ?FillRect@CDC@@QAEXPBUtagRECT@@PAVCBrush@@@Z 00481804 f   mfc71d:MFC71D.DLL
 0001:0008080a       ??1CBrush@@UAE@XZ          0048180a f   mfc71d:MFC71D.DLL
 0001:00080810       ?FrameRect@CDC@@QAEXPBUtagRECT@@PAVCBrush@@@Z 00481810 f   mfc71d:MFC71D.DLL
 0001:00080816       ??0CBrush@@QAE@K@Z         00481816 f   mfc71d:MFC71D.DLL
 0001:0008081c       ?FromHandle@CDC@@SGPAV1@PAUHDC__@@@Z 0048181c f   mfc71d:MFC71D.DLL
 0001:00080822       ?Escape@CDC@@UAEHHHPBDPAX@Z 00481822 f   mfc71d:MFC71D.DLL
 0001:00080828       ?GrayStringA@CDC@@UAEHPAVCBrush@@P6GHPAUHDC__@@JH@ZJHHHHH@Z 00481828 f   mfc71d:MFC71D.DLL
 0001:0008082e       ?DrawTextExA@CDC@@UAEHPADHPAUtagRECT@@IPAUtagDRAWTEXTPARAMS@@@Z 0048182e f   mfc71d:MFC71D.DLL
 0001:00080834       ?DrawTextA@CDC@@UAEHPBDHPAUtagRECT@@I@Z 00481834 f   mfc71d:MFC71D.DLL
 0001:0008083a       ?TabbedTextOutA@CDC@@UAE?AVCSize@@HHPBDHHPAHH@Z 0048183a f   mfc71d:MFC71D.DLL
 0001:00080840       ?ExtTextOutA@CDC@@UAEHHHIPBUtagRECT@@PBDIPAH@Z 00481840 f   mfc71d:MFC71D.DLL
 0001:00080846       ?TextOutA@CDC@@UAEHHHPBDH@Z 00481846 f   mfc71d:MFC71D.DLL
 0001:0008084c       ?RectVisible@CDC@@UBEHPBUtagRECT@@@Z 0048184c f   mfc71d:MFC71D.DLL
 0001:00080852       ?PtVisible@CDC@@UBEHHH@Z   00481852 f   mfc71d:MFC71D.DLL
 0001:00080858       ?GetClipBox@CDC@@UBEHPAUtagRECT@@@Z 00481858 f   mfc71d:MFC71D.DLL
 0001:0008085e       ?ScaleWindowExt@CDC@@UAE?AVCSize@@HHHH@Z 0048185e f   mfc71d:MFC71D.DLL
 0001:00080864       ?SetWindowExt@CDC@@UAE?AVCSize@@HH@Z 00481864 f   mfc71d:MFC71D.DLL
 0001:0008086a       ?ScaleViewportExt@CDC@@UAE?AVCSize@@HHHH@Z 0048186a f   mfc71d:MFC71D.DLL
 0001:00080870       ?SetViewportExt@CDC@@UAE?AVCSize@@HH@Z 00481870 f   mfc71d:MFC71D.DLL
 0001:00080876       ?OffsetViewportOrg@CDC@@UAE?AVCPoint@@HH@Z 00481876 f   mfc71d:MFC71D.DLL
 0001:0008087c       ?SetViewportOrg@CDC@@UAE?AVCPoint@@HH@Z 0048187c f   mfc71d:MFC71D.DLL
 0001:00080882       ?SetMapMode@CDC@@UAEHH@Z   00481882 f   mfc71d:MFC71D.DLL
 0001:00080888       ?SetTextColor@CDC@@UAEKK@Z 00481888 f   mfc71d:MFC71D.DLL
 0001:0008088e       ?SetBkColor@CDC@@UAEKK@Z   0048188e f   mfc71d:MFC71D.DLL
 0001:00080894       ?SelectObject@CDC@@UAEPAVCFont@@PAV2@@Z 00481894 f   mfc71d:MFC71D.DLL
 0001:0008089a       ?SelectStockObject@CDC@@UAEPAVCGdiObject@@H@Z 0048189a f   mfc71d:MFC71D.DLL
 0001:000808a0       ?RestoreDC@CDC@@UAEHH@Z    004818a0 f   mfc71d:MFC71D.DLL
 0001:000808a6       ?SaveDC@CDC@@UAEHXZ        004818a6 f   mfc71d:MFC71D.DLL
 0001:000808ac       ?ReleaseOutputDC@CDC@@UAEXXZ 004818ac f   mfc71d:MFC71D.DLL
 0001:000808b2       ?ReleaseAttribDC@CDC@@UAEXXZ 004818b2 f   mfc71d:MFC71D.DLL
 0001:000808b8       ?SetOutputDC@CDC@@UAEXPAUHDC__@@@Z 004818b8 f   mfc71d:MFC71D.DLL
 0001:000808be       ?SetAttribDC@CDC@@UAEXPAUHDC__@@@Z 004818be f   mfc71d:MFC71D.DLL
 0001:000808c4       ?Dump@CDC@@UBEXAAVCDumpContext@@@Z 004818c4 f   mfc71d:MFC71D.DLL
 0001:000808ca       ?AssertValid@CDC@@UBEXXZ   004818ca f   mfc71d:MFC71D.DLL
 0001:000808d0       ?GetRuntimeClass@CDC@@UBEPAUCRuntimeClass@@XZ 004818d0 f   mfc71d:MFC71D.DLL
 0001:000808d6       ?SetWindowOrg@CDC@@QAE?AVCPoint@@HH@Z 004818d6 f   mfc71d:MFC71D.DLL
 0001:000808dc       ?CreateCompatibleBitmap@CBitmap@@QAEHPAVCDC@@HH@Z 004818dc f   mfc71d:MFC71D.DLL
 0001:000808e2       ?IsPrinting@CDC@@QBEHXZ    004818e2 f   mfc71d:MFC71D.DLL
 0001:000808e8       ?DrawState@CDC@@QAEHVCPoint@@VCSize@@PAUHICON__@@IPAVCBrush@@@Z 004818e8 f   mfc71d:MFC71D.DLL
 0001:000808ee       ?AddTool@CToolTipCtrl@@QAEHPAVCWnd@@PBDPBUtagRECT@@I@Z 004818ee f   mfc71d:MFC71D.DLL
 0001:000808f4       ?SetButtonStyle@CButton@@QAEXIH@Z 004818f4 f   mfc71d:MFC71D.DLL
 0001:000808fa       ?GetButtonStyle@CButton@@QBEIXZ 004818fa f   mfc71d:MFC71D.DLL
 0001:00080900       ?OnSetCursor@CWnd@@IAEHPAV1@II@Z 00481900 f   mfc71d:MFC71D.DLL
 0001:00080906       ?RelayEvent@CToolTipCtrl@@QAEXPAUtagMSG@@@Z 00481906 f   mfc71d:MFC71D.DLL
 0001:0008090c       ?UpdateTipText@CToolTipCtrl@@QAEXPBDPAVCWnd@@I@Z 0048190c f   mfc71d:MFC71D.DLL
 0001:00080912       ?AfxGetInstanceHandle@@YGPAUHINSTANCE__@@XZ 00481912 f   mfc71d:MFC71D.DLL
 0001:00080918       ?GetThisClass@CButton@@SGPAUCRuntimeClass@@XZ 00481918 f   mfc71d:MFC71D.DLL
 0001:0008091e       ?DrawItem@CButton@@UAEXPAUtagDRAWITEMSTRUCT@@@Z 0048191e f   mfc71d:MFC71D.DLL
 0001:00080924       ??1CClientDC@@UAE@XZ       00481924 f   mfc71d:MFC71D.DLL
 0001:0008092a       ?SetFont@CWnd@@QAEXPAVCFont@@H@Z 0048192a f   mfc71d:MFC71D.DLL
 0001:00080930       ?GetTextExtent@CDC@@QBE?AVCSize@@ABV?$CStringT@DV?$StrTraitMFC_DLL@DV?$ChTraitsCRT@D@ATL@@@@@ATL@@@Z 00481930 f   mfc71d:MFC71D.DLL
 0001:00080936       ??0CClientDC@@QAE@PAVCWnd@@@Z 00481936 f   mfc71d:MFC71D.DLL
 0001:0008093c       ?IsWindowEnabled@CWnd@@QBEHXZ 0048193c f   mfc71d:MFC71D.DLL
 0001:00080942       ?GetWindow@CWnd@@QBEPAV1@I@Z 00481942 f   mfc71d:MFC71D.DLL
 0001:00080948       ?GetCheck@CButton@@QBEHXZ  00481948 f   mfc71d:MFC71D.DLL
 0001:0008094e       ?SetCheck@CButton@@QAEXH@Z 0048194e f   mfc71d:MFC71D.DLL
 0001:00080954       ?OnEnable@CWnd@@IAEXH@Z    00481954 f   mfc71d:MFC71D.DLL
 0001:0008095a       ?OnSetFocus@CWnd@@IAEXPAV1@@Z 0048195a f   mfc71d:MFC71D.DLL
 0001:00080960       ?GetThisMessageMap@CTreeCtrl@@KGPBUAFX_MSGMAP@@XZ 00481960 f   mfc71d:MFC71D.DLL
 0001:00080966       ?CreateEx@CTreeCtrl@@UAEHKKABUtagRECT@@PAVCWnd@@I@Z 00481966 f   mfc71d:MFC71D.DLL
 0001:0008096c       ?Create@CTreeCtrl@@UAEHKABUtagRECT@@PAVCWnd@@I@Z 0048196c f   mfc71d:MFC71D.DLL
 0001:00080972       ??1CImageList@@UAE@XZ      00481972 f   mfc71d:MFC71D.DLL
 0001:00080978       ??1CDWordArray@@UAE@XZ     00481978 f   mfc71d:MFC71D.DLL
 0001:0008097e       ??0CDWordArray@@QAE@XZ     0048197e f   mfc71d:MFC71D.DLL
 0001:00080984       ?Detach@CImageList@@QAEPAU_IMAGELIST@@XZ 00481984 f   mfc71d:MFC71D.DLL
 0001:0008098a       ?GetThisClass@CTreeCtrl@@SGPAUCRuntimeClass@@XZ 0048198a f   mfc71d:MFC71D.DLL
 0001:00080990       ?Attach@CImageList@@QAEHPAU_IMAGELIST@@@Z 00481990 f   mfc71d:MFC71D.DLL
 0001:00080996       ?GetImageList@CTreeCtrl@@QBEPAVCImageList@@I@Z 00481996 f   mfc71d:MFC71D.DLL
 0001:0008099c       ??1CWaitCursor@@QAE@XZ     0048199c f   mfc71d:MFC71D.DLL
 0001:000809a2       ??0CWaitCursor@@QAE@XZ     004819a2 f   mfc71d:MFC71D.DLL
 0001:000809a8       ?GetLastWriteTime@CFileFind@@UBEHAAVCTime@ATL@@@Z 004819a8 f   mfc71d:MFC71D.DLL
 0001:000809ae       ?Add@CDWordArray@@QAEHK@Z  004819ae f   mfc71d:MFC71D.DLL
 0001:000809b4       ?GetLength@CFileFind@@QBE_KXZ 004819b4 f   mfc71d:MFC71D.DLL
 0001:000809ba       ?IsDots@CFileFind@@UBEHXZ  004819ba f   mfc71d:MFC71D.DLL
 0001:000809c0       ?RemoveAll@CDWordArray@@QAEXXZ 004819c0 f   mfc71d:MFC71D.DLL
 0001:000809c6       ?IsHidden@CFileFind@@QBEHXZ 004819c6 f   mfc71d:MFC71D.DLL
 0001:000809cc       ?GetParentItem@CTreeCtrl@@QBEPAU_TREEITEM@@PAU2@@Z 004819cc f   mfc71d:MFC71D.DLL
 0001:000809d2       ?GetItemText@CTreeCtrl@@QBE?AV?$CStringT@DV?$StrTraitMFC_DLL@DV?$ChTraitsCRT@D@ATL@@@@@ATL@@PAU_TREEITEM@@@Z 004819d2 f   mfc71d:MFC71D.DLL
 0001:000809d8       ?Expand@CTreeCtrl@@QAEHPAU_TREEITEM@@I@Z 004819d8 f   mfc71d:MFC71D.DLL
 0001:000809de       ?DeleteItem@CTreeCtrl@@QAEHPAU_TREEITEM@@@Z 004819de f   mfc71d:MFC71D.DLL
 0001:000809e4       ?GetChildItem@CTreeCtrl@@QBEPAU_TREEITEM@@PAU2@@Z 004819e4 f   mfc71d:MFC71D.DLL
 0001:000809ea       ?GetNextItem@CTreeCtrl@@QBEPAU_TREEITEM@@PAU2@I@Z 004819ea f   mfc71d:MFC71D.DLL
 0001:000809f0       ?GetItemRect@CTreeCtrl@@QBEHPAU_TREEITEM@@PAUtagRECT@@H@Z 004819f0 f   mfc71d:MFC71D.DLL
 0001:000809f6       ?DrawItem@CStatic@@UAEXPAUtagDRAWITEMSTRUCT@@@Z 004819f6 f   mfc71d:MFC71D.DLL
 0001:000809fc       ?Create@CStatic@@UAEHPBDKABUtagRECT@@PAVCWnd@@I@Z 004819fc f   mfc71d:MFC71D.DLL
 0001:00080a02       ?OnChildNotify@CStatic@@MAEHIIJPAJ@Z 00481a02 f   mfc71d:MFC71D.DLL
 0001:00080a08       ?GetRuntimeClass@CStatic@@UBEPAUCRuntimeClass@@XZ 00481a08 f   mfc71d:MFC71D.DLL
 0001:00080a0e       ??1CFont@@UAE@XZ           00481a0e f   mfc71d:MFC71D.DLL
 0001:00080a14       ??0CFont@@QAE@XZ           00481a14 f   mfc71d:MFC71D.DLL
 0001:00080a1a       ?DeleteObject@CGdiObject@@QAEHXZ 00481a1a f   mfc71d:MFC71D.DLL
 0001:00080a20       ??BCFont@@QBEPAUHFONT__@@XZ 00481a20 f   mfc71d:MFC71D.DLL
 0001:00080a26       ?SetBkMode@CDC@@QAEHH@Z    00481a26 f   mfc71d:MFC71D.DLL
 0001:00080a2c       ?CreateFontIndirectA@CFont@@QAEHPBUtagLOGFONTA@@@Z 00481a2c f   mfc71d:MFC71D.DLL
 0001:00080a32       ?GetLogFont@CFont@@QAEHPAUtagLOGFONTA@@@Z 00481a32 f   mfc71d:MFC71D.DLL
 0001:00080a38       ?GetStyle@CWnd@@QBEKXZ     00481a38 f   mfc71d:MFC71D.DLL
 0001:00080a3e       ?ReleaseDC@CWnd@@QAEHPAVCDC@@@Z 00481a3e f   mfc71d:MFC71D.DLL
 0001:00080a44       ?GetDC@CWnd@@QAEPAVCDC@@XZ 00481a44 f   mfc71d:MFC71D.DLL
 0001:00080a4a       ?AfxBeginThread@@YGPAVCWinThread@@P6AIPAX@Z0HIKPAU_SECURITY_ATTRIBUTES@@@Z 00481a4a f   mfc71d:MFC71D.DLL
 0001:00080a50       ?GetThisClass@CWnd@@SGPAUCRuntimeClass@@XZ 00481a50 f   mfc71d:MFC71D.DLL
 0001:00080a56       ?AfxGetThreadState@@YGPAV_AFX_THREAD_STATE@@XZ 00481a56 f   mfc71d:MFC71D.DLL
 0001:00080a5c       ?Dump@CMapPtrToPtr@@UBEXAAVCDumpContext@@@Z 00481a5c f   mfc71d:MFC71D.DLL
 0001:00080a62       ?AssertValid@CMapPtrToPtr@@UBEXXZ 00481a62 f   mfc71d:MFC71D.DLL
 0001:00080a68       ?GetRuntimeClass@CMapPtrToPtr@@UBEPAUCRuntimeClass@@XZ 00481a68 f   mfc71d:MFC71D.DLL
 0001:00080a6e       ??0CMapPtrToPtr@@QAE@H@Z   00481a6e f   mfc71d:MFC71D.DLL
 0001:00080a74       ??1CMapPtrToPtr@@UAE@XZ    00481a74 f   mfc71d:MFC71D.DLL
 0001:00080a7a       ?SetAt@CMapPtrToPtr@@QAEXPAX0@Z 00481a7a f   mfc71d:MFC71D.DLL
 0001:00080a80       ?RemoveKey@CMapPtrToPtr@@QAEHPAX@Z 00481a80 f   mfc71d:MFC71D.DLL
 0001:00080a86       ?Lookup@CMapPtrToPtr@@QBEHPAXAAPAX@Z 00481a86 f   mfc71d:MFC71D.DLL
 0001:00080a8c       ?GetThisClass@CCmdTarget@@SGPAUCRuntimeClass@@XZ 00481a8c f   mfc71d:MFC71D.DLL
 0001:00080a92       ?GetMessageMap@CCmdTarget@@MBEPBUAFX_MSGMAP@@XZ 00481a92 f   mfc71d:MFC71D.DLL
 0001:00080a98       ?Dump@CCmdTarget@@UBEXAAVCDumpContext@@@Z 00481a98 f   mfc71d:MFC71D.DLL
 0001:00080a9e       ?AssertValid@CCmdTarget@@UBEXXZ 00481a9e f   mfc71d:MFC71D.DLL
 0001:00080aa4       ??1CCmdTarget@@UAE@XZ      00481aa4 f   mfc71d:MFC71D.DLL
 0001:00080aaa       ?AfxLoadString@@YGHIPADI@Z 00481aaa f   mfc71d:MFC71D.DLL
 0001:00080ab0       ??0CCmdTarget@@QAE@XZ      00481ab0 f   mfc71d:MFC71D.DLL
 0001:00080ab6       ?GetTopLevelParent@CWnd@@QBEPAV1@XZ 00481ab6 f   mfc71d:MFC71D.DLL
 0001:00080abc       ?GetMenuItemID@CMenu@@QBEIH@Z 00481abc f   mfc71d:MFC71D.DLL
 0001:00080ac2       ?GetSubMenu@CMenu@@QBEPAV1@H@Z 00481ac2 f   mfc71d:MFC71D.DLL
 0001:00080ac8       ??1CMenu@@UAE@XZ           00481ac8 f   mfc71d:MFC71D.DLL
 0001:00080ace       ?LoadMenuA@CMenu@@QAEHI@Z  00481ace f   mfc71d:MFC71D.DLL
 0001:00080ad4       ??0CMenu@@QAE@XZ           00481ad4 f   mfc71d:MFC71D.DLL
 0001:00080ada       ?put_accValue@CWnd@@UAEJUtagVARIANT@@PA_W@Z 00481ada f   mfc71d:MFC71D.DLL
 0001:00080ada       ?put_accValue@CWnd@@UAEJUtagVARIANT@@PAG@Z 00481ada f   mfc71d:MFC71D.DLL
 0001:00080ae0       ?put_accName@CWnd@@UAEJUtagVARIANT@@PAG@Z 00481ae0 f   mfc71d:MFC71D.DLL
 0001:00080ae0       ?put_accName@CWnd@@UAEJUtagVARIANT@@PA_W@Z 00481ae0 f   mfc71d:MFC71D.DLL
 0001:00080ae6       ?get_accDefaultAction@CWnd@@UAEJUtagVARIANT@@PAPA_W@Z 00481ae6 f   mfc71d:MFC71D.DLL
 0001:00080ae6       ?get_accDefaultAction@CWnd@@UAEJUtagVARIANT@@PAPAG@Z 00481ae6 f   mfc71d:MFC71D.DLL
 0001:00080aec       ?get_accKeyboardShortcut@CWnd@@UAEJUtagVARIANT@@PAPA_W@Z 00481aec f   mfc71d:MFC71D.DLL
 0001:00080aec       ?get_accKeyboardShortcut@CWnd@@UAEJUtagVARIANT@@PAPAG@Z 00481aec f   mfc71d:MFC71D.DLL
 0001:00080af2       ?get_accHelpTopic@CWnd@@UAEJPAPA_WUtagVARIANT@@PAJ@Z 00481af2 f   mfc71d:MFC71D.DLL
 0001:00080af2       ?get_accHelpTopic@CWnd@@UAEJPAPAGUtagVARIANT@@PAJ@Z 00481af2 f   mfc71d:MFC71D.DLL
 0001:00080af8       ?get_accHelp@CWnd@@UAEJUtagVARIANT@@PAPAG@Z 00481af8 f   mfc71d:MFC71D.DLL
 0001:00080af8       ?get_accHelp@CWnd@@UAEJUtagVARIANT@@PAPA_W@Z 00481af8 f   mfc71d:MFC71D.DLL
 0001:00080afe       ?get_accDescription@CWnd@@UAEJUtagVARIANT@@PAPAG@Z 00481afe f   mfc71d:MFC71D.DLL
 0001:00080afe       ?get_accDescription@CWnd@@UAEJUtagVARIANT@@PAPA_W@Z 00481afe f   mfc71d:MFC71D.DLL
 0001:00080b04       ?get_accValue@CWnd@@UAEJUtagVARIANT@@PAPA_W@Z 00481b04 f   mfc71d:MFC71D.DLL
 0001:00080b04       ?get_accValue@CWnd@@UAEJUtagVARIANT@@PAPAG@Z 00481b04 f   mfc71d:MFC71D.DLL
 0001:00080b0a       ?get_accName@CWnd@@UAEJUtagVARIANT@@PAPAG@Z 00481b0a f   mfc71d:MFC71D.DLL
 0001:00080b0a       ?get_accName@CWnd@@UAEJUtagVARIANT@@PAPA_W@Z 00481b0a f   mfc71d:MFC71D.DLL
 0001:00080b10       ??0CComCriticalSection@ATL@@QAE@XZ 00481b10 f i mfcs71d:stdafx.obj
 0001:00080b30       ?Term@CComCriticalSection@ATL@@QAEJXZ 00481b30 f i mfcs71d:stdafx.obj
 0001:00080b50       ?_AtlRaiseException@ATL@@YAXKK@Z 00481b50 f i mfcs71d:stdafx.obj
 0001:00080b70       ?AfxSocketInit@@YGHPAUWSAData@@@Z 00481b70 f   mfcs71d:sockexp.obj
 0001:00080b90       __onexit                   00481b90 f   msvcrtd:atonexit.obj
 0001:00080bd0       _atexit                    00481bd0 f   msvcrtd:atonexit.obj
 0001:00080bf0       ??_L@YGXPAXIHP6EX0@Z1@Z    00481bf0 f   msvcrtd:ehvecctr.obj
 0001:00080c90       __RTC_CheckEsp             00481c90 f   msvcrtd:stack.obj
 0001:00080cc0       @_RTC_CheckStackVars@8     00481cc0 f   msvcrtd:stack.obj
 0001:00080d30       __RTC_InitBase             00481d30 f   msvcrtd:init.obj
 0001:00080d60       __RTC_Shutdown             00481d60 f   msvcrtd:init.obj
 0001:00080d80       ??_M@YGXPAXIHP6EX0@Z@Z     00481d80 f   msvcrtd:ehvecdtr.obj
 0001:00080e20       ?__ArrayUnwind@@YGXPAXIHP6EX0@Z@Z 00481e20 f   msvcrtd:ehvecdtr.obj
 0001:00080ed0       @__security_check_cookie@4 00481ed0 f   msvcrtd:secchk.obj
 0001:00080f4c       ___CxxFrameHandler         00481f4c f   msvcrtd:MSVCR71D.dll
 0001:00080f60       _strlen                    00481f60 f   msvcrtd:MSVCR71D.dll
 0001:00080f66       __localtime64              00481f66 f   msvcrtd:MSVCR71D.dll
 0001:00080f6c       _memset                    00481f6c f   msvcrtd:MSVCR71D.dll
 0001:00080f72       _strcpy                    00481f72 f   msvcrtd:MSVCR71D.dll
 0001:00080f78       _memcpy                    00481f78 f   msvcrtd:MSVCR71D.dll
 0001:00080f80       __allrem                   00481f80 f   msvcrtd:llrem.obj
 0001:00081040       __alldiv                   00482040 f   msvcrtd:lldiv.obj
 0001:000810ec       __ftol2                    004820ec f   msvcrtd:ftol2.obj
 0001:00081162       _fabs                      00482162 f   msvcrtd:MSVCR71D.dll
 0001:00081170       ?_RTC_Failure@@YAXPAXH@Z   00482170 f   msvcrtd:error.obj
 0001:000813d0       ?_RTC_StackFailure@@YAXPAXPBD@Z 004823d0 f   msvcrtd:error.obj
 0001:00081490       __RTC_UninitUse            00482490 f   msvcrtd:error.obj
 0001:00081650       ??_Etype_info@@UAEPAXI@Z   00482650 f i msvcrtd:ti_inst.obj
 0001:000816ba       _strcat                    004826ba f   msvcrtd:MSVCR71D.dll
 0001:000816c0       __chkstk                   004826c0 f   msvcrtd:chkstk.obj
 0001:000816c0       __alloca_probe             004826c0     msvcrtd:chkstk.obj
 0001:000816fe       _strcmp                    004826fe f   msvcrtd:MSVCR71D.dll
 0001:00081704       _free                      00482704 f   msvcrtd:MSVCR71D.dll
 0001:00081710       __allmul                   00482710 f   msvcrtd:llmul.obj
 0001:00081744       __CrtDbgReport             00482744 f   msvcrtd:MSVCR71D.dll
 0001:0008174a       __except_handler3          0048274a f   msvcrtd:MSVCR71D.dll
 0001:00081750       _wcscpy                    00482750 f   msvcrtd:MSVCR71D.dll
 0001:00081756       _malloc                    00482756 f   msvcrtd:MSVCR71D.dll
 0001:0008175c       ??0exception@@QAE@ABV0@@Z  0048275c f   msvcrtd:MSVCR71D.dll
 0001:00081762       __CxxThrowException@8      00482762 f   msvcrtd:MSVCR71D.dll
 0001:00081768       _memmove                   00482768 f   msvcrtd:MSVCR71D.dll
 0001:0008176e       __snprintf                 0048276e f   msvcrtd:MSVCR71D.dll
 0001:00081774       __purecall                 00482774 f   msvcrtd:MSVCR71D.dll
 0001:0008177a       __vsnprintf                0048277a f   msvcrtd:MSVCR71D.dll
 0001:00081780       _abs                       00482780 f   msvcrtd:MSVCR71D.dll
 0001:00081790       __allshl                   00482790 f   msvcrtd:llshl.obj
 0001:000817b0       _WinMainCRTStartup         004827b0 f   msvcrtd:crtexew.obj
 0001:00081af2       ___dllonexit               00482af2 f   msvcrtd:MSVCR71D.dll
 0001:00081b00       __RTC_SetErrorFunc         00482b00 f   msvcrtd:userapi.obj
 0001:00081b20       ?_RTC_GetErrorFunc@@YAP6AHHPBDH00ZZPBX@Z 00482b20 f   msvcrtd:userapi.obj
 0001:00081b26       __CRT_RTC_INIT             00482b26 f   msvcrtd:MSVCR71D.dll
 0001:00081b2c       ?terminate@@YAXXZ          00482b2c f   msvcrtd:MSVCR71D.dll
 0001:00081b40       ___security_init_cookie    00482b40 f   msvcrtd:seccinit.obj
 0001:00081bd4       ___security_error_handler  00482bd4 f   msvcrtd:MSVCR71D.dll
 0001:00081be0       ?_RTC_GetSrcLine@@YAHKPADHPAHPAPAD@Z 00482be0 f   msvcrtd:pdblkup.obj
 0001:0008247e       ??1type_info@@UAE@XZ       0048347e f   msvcrtd:MSVCR71D.dll
 0001:00082484       __XcptFilter               00483484 f   msvcrtd:MSVCR71D.dll
 0001:0008248a       __amsg_exit                0048348a f   msvcrtd:MSVCR71D.dll
 0001:00082490       __RTC_Initialize           00483490 f   msvcrtd:initsect.obj
 0001:00082510       __RTC_Terminate            00483510 f   msvcrtd:initsect.obj
 0001:00082588       __initterm                 00483588 f   msvcrtd:MSVCR71D.dll
 0001:00082590       __setdefaultprecision      00483590 f   msvcrtd:fp8.obj
 0001:000825b0       __setargv                  004835b0 f   msvcrtd:dllargv.obj
 0001:000825b0       __matherr                  004835b0 f   msvcrtd:merr.obj
 0001:000825b8       __controlfp                004835b8 f   msvcrtd:MSVCR71D.dll
 0001:000825c0       ?_com_issue_error@@YGXJ@Z  004835c0 f   comsuppd:comsupp.obj
 0001:000825e0       ?_com_issue_errorex@@YGXJPAUIUnknown@@ABU_GUID@@@Z 004835e0 f   comsuppd:comsupp.obj
 0001:00082670       ?ConvertStringToBSTR@_com_util@@YGPAGPBD@Z 00483670 f   comsuppd:comutil.obj
 0001:00082850       ?ConvertBSTRToString@_com_util@@YGPADPAG@Z 00483850 f   comsuppd:comutil.obj
 0001:000829d0       ??0_variant_t@@QAE@JG@Z    004839d0 f i comsuppd:comutil.obj
 0001:00082a60       ?_com_raise_error@@YGXJPAUIErrorInfo@@@Z 00483a60 f   comsuppd:comraise.obj
 0001:00082a90       ??0_com_error@@QAE@JPAUIErrorInfo@@_N@Z 00483a90 f i comsuppd:comraise.obj
 0001:00082af0       ??0_com_error@@QAE@ABV0@@Z 00483af0 f i comsuppd:comraise.obj
 0001:00082b46       _Netbios@4                 00483b46 f   Netapi32:NETAPI32.dll
 0001:00082b50       ??0CAtlAllocator@@QAE@XZ   00483b50 f i atlsd:Externs.obj
 0001:00082ba0       ??0CTraceSnapshot@@QAE@XZ  00483ba0 f i atlsd:Externs.obj
 0001:00082bd0       ??0?$CSimpleArray@KV?$CSimpleArrayEqualHelper@K@ATL@@@ATL@@QAE@XZ 00483bd0 f i atlsd:Externs.obj
 0001:00082bd0       ??0?$CSimpleArray@PAUHINSTANCE__@@V?$CSimpleArrayEqualHelper@PAUHINSTANCE__@@@ATL@@@ATL@@QAE@XZ 00483bd0 f i atlsd:atlbase.obj
 0001:00082bd0       ??0?$CSimpleArray@UCModuleInfo@CTraceSnapshot@@V?$CSimpleArrayEqualHelper@UCModuleInfo@CTraceSnapshot@@@ATL@@@ATL@@QAE@XZ 00483bd0 f i atlsd:Externs.obj
 0001:00082cd0       ??0CAtlException@ATL@@QAE@J@Z 00483cd0 f i atlsd:Externs.obj
 0001:00082cf0       ??0CTrace@ATL@@AAE@P6AHHPBDH00ZZ@Z 00483cf0 f i atlsd:Externs.obj
 0001:00082d30       ??1CAtlAllocator@@QAE@XZ   00483d30 f i atlsd:Externs.obj
 0001:00082d50       ??1CTraceSnapshot@@QAE@XZ  00483d50 f i atlsd:Externs.obj
 0001:00082d70       ??1CTrace@ATL@@AAE@XZ      00483d70 f i atlsd:Externs.obj
 0001:00082d90       ??0CTraceCategory@ATL@@QAE@PBDI@Z 00483d90 f i atlsd:atltrace.obj
 0001:00082de0       ?ChangeCategory@CTrace@ATL@@QAE_NKIW4ATLTRACESTATUS@2@@Z 00483de0 f i atlsd:atltrace.obj
 0001:00082e10       ?RegisterCategory@CTrace@ATL@@QAEKPBD@Z 00483e10 f i atlsd:atltrace.obj
 0001:00082e30       ?NotifyTool@ATL@@YGXXZ     00483e30 f   atlsd:AtlDebugAPI.obj
 0001:00082e70       _AtlTraceRegister@8        00483e70 f   atlsd:AtlDebugAPI.obj
 0001:00082ee0       _AtlTraceUnregister@4      00483ee0 f   atlsd:AtlDebugAPI.obj
 0001:00082f10       _AtlTraceRegisterCategoryA@8 00483f10 f   atlsd:AtlDebugAPI.obj
 0001:00082fb0       _AtlTraceRegisterCategoryU@8 00483fb0 f   atlsd:AtlDebugAPI.obj
 0001:00082ff0       _AtlTraceModifyProcess@20  00483ff0 f   atlsd:AtlDebugAPI.obj
 0001:00083090       _AtlTraceModifyModule@16   00484090 f   atlsd:AtlDebugAPI.obj
 0001:00083170       _AtlTraceModifyCategory@16 00484170 f   atlsd:AtlDebugAPI.obj
 0001:00083220       _AtlTraceGetProcess@20     00484220 f   atlsd:AtlDebugAPI.obj
 0001:000832d0       _AtlTraceGetModule@16      004842d0 f   atlsd:AtlDebugAPI.obj
 0001:000833c0       _AtlTraceGetCategory@16    004843c0 f   atlsd:AtlDebugAPI.obj
 0001:00083480       _AtlTraceGetUpdateEventNameA@4 00484480 f   atlsd:AtlDebugAPI.obj
 0001:000834b0       _AtlTraceGetUpdateEventNameU@4 004844b0 f   atlsd:AtlDebugAPI.obj
 0001:00083550       _AtlTraceVA                00484550 f   atlsd:AtlDebugAPI.obj
 0001:00083710       _AtlTraceVU                00484710 f   atlsd:AtlDebugAPI.obj
 0001:000838e0       _AtlTraceOpenProcess@4     004848e0 f   atlsd:AtlDebugAPI.obj
 0001:000839a0       _AtlTraceCloseProcess@4    004849a0 f   atlsd:AtlDebugAPI.obj
 0001:000839f0       _AtlTraceSnapshotProcess@4 004849f0 f   atlsd:AtlDebugAPI.obj
 0001:00083a10       _AtlTraceGetProcessInfo@8  00484a10 f   atlsd:AtlDebugAPI.obj
 0001:00083b60       _AtlTraceGetModuleInfo@12  00484b60 f   atlsd:AtlDebugAPI.obj
 0001:00083ca0       _AtlTraceGetCategoryInfo@16 00484ca0 f   atlsd:AtlDebugAPI.obj
 0001:00083fd0       ?GetProcess@CAtlAllocator@@QBEPAVCAtlTraceProcess@@XZ 00484fd0 f i atlsd:AtlDebugAPI.obj
 0001:00083ff0       ?Name@CAtlTraceCategory@@QBEPBGXZ 00484ff0 f i atlsd:AtlDebugAPI.obj
 0001:00084010       ??_GCAtlAllocator@@QAEPAXI@Z 00485010 f i atlsd:AtlDebugAPI.obj
 0001:00084040       ?Path@CAtlTraceModuleInfo@@QBEPBGXZ 00485040 f i atlsd:AtlDebugAPI.obj
 0001:00084060       ?Name@CAtlTraceModuleInfo@@QBEPBGXZ 00485060 f i atlsd:AtlDebugAPI.obj
 0001:00084080       ?Id@CAtlTraceProcess@@QBEKXZ 00485080 f i atlsd:AtlDebugAPI.obj
 0001:000840a0       ?CrtDbgReport@CAtlTraceModule@@QBEP6AHHPBDH00ZZXZ 004850a0 f i atlsd:AtlDebugAPI.obj
 0001:000840c0       ??A?$CSimpleArray@UCModuleInfo@CTraceSnapshot@@V?$CSimpleArrayEqualHelper@UCModuleInfo@CTraceSnapshot@@@ATL@@@ATL@@QAEAAUCModuleInfo@CTraceSnapshot@@H@Z 004850c0 f i atlsd:AtlDebugAPI.obj
 0001:00084130       ??0CTimeSpan@ATL@@QAE@XZ   00485130 f   atlsd:atltime.obj
 0001:00084150       ??0CTimeSpan@ATL@@QAE@_J@Z 00485150 f   atlsd:atltime.obj
 0001:00084170       ??0CTimeSpan@ATL@@QAE@JHHH@Z 00485170 f   atlsd:atltime.obj
 0001:000841f0       ?GetDays@CTimeSpan@ATL@@QBE_JXZ 004851f0 f   atlsd:atltime.obj
 0001:00084220       ?GetTotalHours@CTimeSpan@ATL@@QBE_JXZ 00485220 f   atlsd:atltime.obj
 0001:00084250       ?GetHours@CTimeSpan@ATL@@QBEJXZ 00485250 f   atlsd:atltime.obj
 0001:00084290       ?GetTotalMinutes@CTimeSpan@ATL@@QBE_JXZ 00485290 f   atlsd:atltime.obj
 0001:000842b0       ?GetMinutes@CTimeSpan@ATL@@QBEJXZ 004852b0 f   atlsd:atltime.obj
 0001:000842f0       ?GetTotalSeconds@CTimeSpan@ATL@@QBE_JXZ 004852f0 f   atlsd:atltime.obj
 0001:00084310       ?GetSeconds@CTimeSpan@ATL@@QBEJXZ 00485310 f   atlsd:atltime.obj
 0001:00084350       ?GetTimeSpan@CTimeSpan@ATL@@QBE_JXZ 00485350 f   atlsd:atltime.obj
 0001:00084370       ??HCTimeSpan@ATL@@QBE?AV01@V01@@Z 00485370 f   atlsd:atltime.obj
 0001:000843a0       ??GCTimeSpan@ATL@@QBE?AV01@V01@@Z 004853a0 f   atlsd:atltime.obj
 0001:000843d0       ??YCTimeSpan@ATL@@QAEAAV01@V01@@Z 004853d0 f   atlsd:atltime.obj
 0001:00084400       ??ZCTimeSpan@ATL@@QAEAAV01@V01@@Z 00485400 f   atlsd:atltime.obj
 0001:00084430       ??8CTimeSpan@ATL@@QBE_NV01@@Z 00485430 f   atlsd:atltime.obj
 0001:00084470       ??9CTimeSpan@ATL@@QBE_NV01@@Z 00485470 f   atlsd:atltime.obj
 0001:000844b0       ??MCTimeSpan@ATL@@QBE_NV01@@Z 004854b0 f   atlsd:atltime.obj
 0001:000844f0       ??OCTimeSpan@ATL@@QBE_NV01@@Z 004854f0 f   atlsd:atltime.obj
 0001:00084530       ??NCTimeSpan@ATL@@QBE_NV01@@Z 00485530 f   atlsd:atltime.obj
 0001:00084570       ??PCTimeSpan@ATL@@QBE_NV01@@Z 00485570 f   atlsd:atltime.obj
 0001:000845b0       ?GetTickCount@CTime@ATL@@SG?AV12@XZ 004855b0 f   atlsd:atltime.obj
 0001:000845d0       ?IsValidFILETIME@CTime@ATL@@SGHABU_FILETIME@@@Z 004855d0 f   atlsd:atltime.obj
 0001:00084610       ??0CTime@ATL@@QAE@XZ       00485610 f   atlsd:atltime.obj
 0001:00084630       ??0CTime@ATL@@QAE@_J@Z     00485630 f   atlsd:atltime.obj
 0001:00084650       ??0CTime@ATL@@QAE@HHHHHHH@Z 00485650 f   atlsd:atltime.obj
 0001:00084790       ??0CTime@ATL@@QAE@GGH@Z    00485790 f   atlsd:atltime.obj
 0001:00084870       ??0CTime@ATL@@QAE@ABU_SYSTEMTIME@@H@Z 00485870 f   atlsd:atltime.obj
 0001:00084910       ??0CTime@ATL@@QAE@ABU_FILETIME@@H@Z 00485910 f   atlsd:atltime.obj
 0001:000849a0       ??4CTime@ATL@@QAEAAV01@_J@Z 004859a0 f   atlsd:atltime.obj
 0001:000849c0       ??YCTime@ATL@@QAEAAV01@VCTimeSpan@1@@Z 004859c0 f   atlsd:atltime.obj
 0001:000849f0       ??ZCTime@ATL@@QAEAAV01@VCTimeSpan@1@@Z 004859f0 f   atlsd:atltime.obj
 0001:00084a20       ??GCTime@ATL@@QBE?AVCTimeSpan@1@V01@@Z 00485a20 f   atlsd:atltime.obj
 0001:00084a50       ??GCTime@ATL@@QBE?AV01@VCTimeSpan@1@@Z 00485a50 f   atlsd:atltime.obj
 0001:00084a80       ??HCTime@ATL@@QBE?AV01@VCTimeSpan@1@@Z 00485a80 f   atlsd:atltime.obj
 0001:00084ab0       ??8CTime@ATL@@QBE_NV01@@Z  00485ab0 f   atlsd:atltime.obj
 0001:00084af0       ??9CTime@ATL@@QBE_NV01@@Z  00485af0 f   atlsd:atltime.obj
 0001:00084b30       ??MCTime@ATL@@QBE_NV01@@Z  00485b30 f   atlsd:atltime.obj
 0001:00084b70       ??OCTime@ATL@@QBE_NV01@@Z  00485b70 f   atlsd:atltime.obj
 0001:00084bb0       ??NCTime@ATL@@QBE_NV01@@Z  00485bb0 f   atlsd:atltime.obj
 0001:00084bf0       ??PCTime@ATL@@QBE_NV01@@Z  00485bf0 f   atlsd:atltime.obj
 0001:00084c30       ?GetGmtTm@CTime@ATL@@QBEPAUtm@@PAU3@@Z 00485c30 f   atlsd:atltime.obj
 0001:00084c80       ?GetLocalTm@CTime@ATL@@QBEPAUtm@@PAU3@@Z 00485c80 f   atlsd:atltime.obj
 0001:00084cd0       ?GetAsSystemTime@CTime@ATL@@QBE_NAAU_SYSTEMTIME@@@Z 00485cd0 f   atlsd:atltime.obj
 0001:00084d70       ?GetTime@CTime@ATL@@QBE_JXZ 00485d70 f   atlsd:atltime.obj
 0001:00084d90       ?GetYear@CTime@ATL@@QBEHXZ 00485d90 f   atlsd:atltime.obj
 0001:00084dd0       ?GetMonth@CTime@ATL@@QBEHXZ 00485dd0 f   atlsd:atltime.obj
 0001:00084e10       ?GetDay@CTime@ATL@@QBEHXZ  00485e10 f   atlsd:atltime.obj
 0001:00084e50       ?GetHour@CTime@ATL@@QBEHXZ 00485e50 f   atlsd:atltime.obj
 0001:00084e90       ?GetMinute@CTime@ATL@@QBEHXZ 00485e90 f   atlsd:atltime.obj
 0001:00084ed0       ?GetSecond@CTime@ATL@@QBEHXZ 00485ed0 f   atlsd:atltime.obj
 0001:00084f10       ?GetDayOfWeek@CTime@ATL@@QBEHXZ 00485f10 f   atlsd:atltime.obj
 0001:00084f50       ??0CFileTimeSpan@ATL@@QAE@XZ 00485f50 f   atlsd:atltime.obj
 0001:00084f70       ??0CFileTimeSpan@ATL@@QAE@ABV01@@Z 00485f70 f   atlsd:atltime.obj
 0001:00084f90       ??0CFileTimeSpan@ATL@@QAE@_J@Z 00485f90 f   atlsd:atltime.obj
 0001:00084fb0       ??4CFileTimeSpan@ATL@@QAEAAV01@ABV01@@Z 00485fb0 f   atlsd:atltime.obj
 0001:00084fd0       ??YCFileTimeSpan@ATL@@QAEAAV01@V01@@Z 00485fd0 f   atlsd:atltime.obj
 0001:00085000       ??ZCFileTimeSpan@ATL@@QAEAAV01@V01@@Z 00486000 f   atlsd:atltime.obj
 0001:00085030       ??HCFileTimeSpan@ATL@@QBE?AV01@V01@@Z 00486030 f   atlsd:atltime.obj
 0001:00085060       ??GCFileTimeSpan@ATL@@QBE?AV01@V01@@Z 00486060 f   atlsd:atltime.obj
 0001:00085090       ??8CFileTimeSpan@ATL@@QBE_NV01@@Z 00486090 f   atlsd:atltime.obj
 0001:000850d0       ??9CFileTimeSpan@ATL@@QBE_NV01@@Z 004860d0 f   atlsd:atltime.obj
 0001:00085110       ??MCFileTimeSpan@ATL@@QBE_NV01@@Z 00486110 f   atlsd:atltime.obj
 0001:00085150       ??OCFileTimeSpan@ATL@@QBE_NV01@@Z 00486150 f   atlsd:atltime.obj
 0001:00085190       ??NCFileTimeSpan@ATL@@QBE_NV01@@Z 00486190 f   atlsd:atltime.obj
 0001:000851d0       ??PCFileTimeSpan@ATL@@QBE_NV01@@Z 004861d0 f   atlsd:atltime.obj
 0001:00085210       ?GetTimeSpan@CFileTimeSpan@ATL@@QBE_JXZ 00486210 f   atlsd:atltime.obj
 0001:00085230       ?SetTimeSpan@CFileTimeSpan@ATL@@QAEX_J@Z 00486230 f   atlsd:atltime.obj
 0001:00085250       ??0CFileTime@ATL@@QAE@XZ   00486250 f   atlsd:atltime.obj
 0001:00085280       ??0CFileTime@ATL@@QAE@ABU_FILETIME@@@Z 00486280 f   atlsd:atltime.obj
 0001:000852b0       ??0CFileTime@ATL@@QAE@_K@Z 004862b0 f   atlsd:atltime.obj
 0001:000852e0       ??4CFileTime@ATL@@QAEAAV01@ABU_FILETIME@@@Z 004862e0 f   atlsd:atltime.obj
 0001:00085310       ?GetTickCount@CFileTime@ATL@@SG?AV12@XZ 00486310 f   atlsd:atltime.obj
 0001:00085340       ??YCFileTime@ATL@@QAEAAV01@VCFileTimeSpan@1@@Z 00486340 f   atlsd:atltime.obj
 0001:00085380       ??ZCFileTime@ATL@@QAEAAV01@VCFileTimeSpan@1@@Z 00486380 f   atlsd:atltime.obj
 0001:000853c0       ??HCFileTime@ATL@@QBE?AV01@VCFileTimeSpan@1@@Z 004863c0 f   atlsd:atltime.obj
 0001:00085400       ??GCFileTime@ATL@@QBE?AV01@VCFileTimeSpan@1@@Z 00486400 f   atlsd:atltime.obj
 0001:00085440       ??GCFileTime@ATL@@QBE?AVCFileTimeSpan@1@V01@@Z 00486440 f   atlsd:atltime.obj
 0001:00085480       ??8CFileTime@ATL@@QBE_NV01@@Z 00486480 f   atlsd:atltime.obj
 0001:000854e0       ??9CFileTime@ATL@@QBE_NV01@@Z 004864e0 f   atlsd:atltime.obj
 0001:00085540       ??MCFileTime@ATL@@QBE_NV01@@Z 00486540 f   atlsd:atltime.obj
 0001:000855a0       ??OCFileTime@ATL@@QBE_NV01@@Z 004865a0 f   atlsd:atltime.obj
 0001:00085600       ??NCFileTime@ATL@@QBE_NV01@@Z 00486600 f   atlsd:atltime.obj
 0001:00085660       ??PCFileTime@ATL@@QBE_NV01@@Z 00486660 f   atlsd:atltime.obj
 0001:000856c0       ?GetTime@CFileTime@ATL@@QBE_KXZ 004866c0 f   atlsd:atltime.obj
 0001:000856f0       ?SetTime@CFileTime@ATL@@QAEX_K@Z 004866f0 f   atlsd:atltime.obj
 0001:00085720       ?UTCToLocal@CFileTime@ATL@@QBE?AV12@XZ 00486720 f   atlsd:atltime.obj
 0001:00085760       ?LocalToUTC@CFileTime@ATL@@QBE?AV12@XZ 00486760 f   atlsd:atltime.obj
 0001:000857a0       ??0CSize@@QAE@XZ           004867a0 f   atlsd:atltypes.obj
 0001:000857b0       ??0CSize@@QAE@HH@Z         004867b0 f   atlsd:atltypes.obj
 0001:000857e0       ??0CSize@@QAE@UtagSIZE@@@Z 004867e0 f   atlsd:atltypes.obj
 0001:00085800       ??0CSize@@QAE@UtagPOINT@@@Z 00486800 f   atlsd:atltypes.obj
 0001:00085820       ??0CSize@@QAE@K@Z          00486820 f   atlsd:atltypes.obj
 0001:00085850       ??8CSize@@QBEHUtagSIZE@@@Z 00486850 f   atlsd:atltypes.obj
 0001:00085890       ??9CSize@@QBEHUtagSIZE@@@Z 00486890 f   atlsd:atltypes.obj
 0001:000858d0       ??YCSize@@QAEXUtagSIZE@@@Z 004868d0 f   atlsd:atltypes.obj
 0001:00085900       ??ZCSize@@QAEXUtagSIZE@@@Z 00486900 f   atlsd:atltypes.obj
 0001:00085930       ?SetSize@CSize@@QAEXHH@Z   00486930 f   atlsd:atltypes.obj
 0001:00085950       ??HCSize@@QBE?AV0@UtagSIZE@@@Z 00486950 f   atlsd:atltypes.obj
 0001:00085980       ??GCSize@@QBE?AV0@UtagSIZE@@@Z 00486980 f   atlsd:atltypes.obj
 0001:000859b0       ??GCSize@@QBE?AV0@XZ       004869b0 f   atlsd:atltypes.obj
 0001:000859e0       ??HCSize@@QBE?AVCPoint@@UtagPOINT@@@Z 004869e0 f   atlsd:atltypes.obj
 0001:00085a10       ??GCSize@@QBE?AVCPoint@@UtagPOINT@@@Z 00486a10 f   atlsd:atltypes.obj
 0001:00085a40       ??HCSize@@QBE?AVCRect@@PBUtagRECT@@@Z 00486a40 f   atlsd:atltypes.obj
 0001:00085a80       ??GCSize@@QBE?AVCRect@@PBUtagRECT@@@Z 00486a80 f   atlsd:atltypes.obj
 0001:00085ac0       ??0CPoint@@QAE@XZ          00486ac0 f   atlsd:atltypes.obj
 0001:00085ad0       ??0CPoint@@QAE@HH@Z        00486ad0 f   atlsd:atltypes.obj
 0001:00085b00       ??0CPoint@@QAE@UtagPOINT@@@Z 00486b00 f   atlsd:atltypes.obj
 0001:00085b20       ??0CPoint@@QAE@UtagSIZE@@@Z 00486b20 f   atlsd:atltypes.obj
 0001:00085b40       ??0CPoint@@QAE@J@Z         00486b40 f   atlsd:atltypes.obj
 0001:00085b70       ?Offset@CPoint@@QAEXHH@Z   00486b70 f   atlsd:atltypes.obj
 0001:00085ba0       ?Offset@CPoint@@QAEXUtagPOINT@@@Z 00486ba0 f   atlsd:atltypes.obj
 0001:00085bd0       ?Offset@CPoint@@QAEXUtagSIZE@@@Z 00486bd0 f   atlsd:atltypes.obj
 0001:00085c00       ?SetPoint@CPoint@@QAEXHH@Z 00486c00 f   atlsd:atltypes.obj
 0001:00085c20       ??8CPoint@@QBEHUtagPOINT@@@Z 00486c20 f   atlsd:atltypes.obj
 0001:00085c60       ??9CPoint@@QBEHUtagPOINT@@@Z 00486c60 f   atlsd:atltypes.obj
 0001:00085ca0       ??YCPoint@@QAEXUtagSIZE@@@Z 00486ca0 f   atlsd:atltypes.obj
 0001:00085cd0       ??ZCPoint@@QAEXUtagSIZE@@@Z 00486cd0 f   atlsd:atltypes.obj
 0001:00085d00       ??YCPoint@@QAEXUtagPOINT@@@Z 00486d00 f   atlsd:atltypes.obj
 0001:00085d30       ??ZCPoint@@QAEXUtagPOINT@@@Z 00486d30 f   atlsd:atltypes.obj
 0001:00085d60       ??HCPoint@@QBE?AV0@UtagSIZE@@@Z 00486d60 f   atlsd:atltypes.obj
 0001:00085d90       ??GCPoint@@QBE?AV0@UtagSIZE@@@Z 00486d90 f   atlsd:atltypes.obj
 0001:00085dc0       ??GCPoint@@QBE?AV0@XZ      00486dc0 f   atlsd:atltypes.obj
 0001:00085df0       ??HCPoint@@QBE?AV0@UtagPOINT@@@Z 00486df0 f   atlsd:atltypes.obj
 0001:00085e20       ??GCPoint@@QBE?AVCSize@@UtagPOINT@@@Z 00486e20 f   atlsd:atltypes.obj
 0001:00085e50       ??HCPoint@@QBE?AVCRect@@PBUtagRECT@@@Z 00486e50 f   atlsd:atltypes.obj
 0001:00085e90       ??GCPoint@@QBE?AVCRect@@PBUtagRECT@@@Z 00486e90 f   atlsd:atltypes.obj
 0001:00085ed0       ??0CRect@@QAE@XZ           00486ed0 f   atlsd:atltypes.obj
 0001:00085ee0       ??0CRect@@QAE@HHHH@Z       00486ee0 f   atlsd:atltypes.obj
 0001:00085f20       ??0CRect@@QAE@ABUtagRECT@@@Z 00486f20 f   atlsd:atltypes.obj
 0001:00085f40       ??0CRect@@QAE@PBUtagRECT@@@Z 00486f40 f   atlsd:atltypes.obj
 0001:00085f60       ??0CRect@@QAE@UtagPOINT@@UtagSIZE@@@Z 00486f60 f   atlsd:atltypes.obj
 0001:00085fa0       ??0CRect@@QAE@UtagPOINT@@0@Z 00486fa0 f   atlsd:atltypes.obj
 0001:00085fe0       ?Width@CRect@@QBEHXZ       00486fe0 f   atlsd:atltypes.obj
 0001:00086000       ?Height@CRect@@QBEHXZ      00487000 f   atlsd:atltypes.obj
 0001:00086020       ?Size@CRect@@QBE?AVCSize@@XZ 00487020 f   atlsd:atltypes.obj
 0001:00086060       ?TopLeft@CRect@@QAEAAVCPoint@@XZ 00487060 f   atlsd:atltypes.obj
 0001:00086070       ?BottomRight@CRect@@QAEAAVCPoint@@XZ 00487070 f   atlsd:atltypes.obj
 0001:00086090       ?TopLeft@CRect@@QBEABVCPoint@@XZ 00487090 f   atlsd:atltypes.obj
 0001:000860a0       ?BottomRight@CRect@@QBEABVCPoint@@XZ 004870a0 f   atlsd:atltypes.obj
 0001:000860c0       ?CenterPoint@CRect@@QBE?AVCPoint@@XZ 004870c0 f   atlsd:atltypes.obj
 0001:00086100       ?SwapLeftRight@CRect@@QAEXXZ 00487100 f   atlsd:atltypes.obj
 0001:00086120       ?SwapLeftRight@CRect@@SGXPAUtagRECT@@@Z 00487120 f   atlsd:atltypes.obj
 0001:00086150       ??BCRect@@QAEPAUtagRECT@@XZ 00487150 f   atlsd:atltypes.obj
 0001:00086160       ??BCRect@@QBEPBUtagRECT@@XZ 00487160 f   atlsd:atltypes.obj
 0001:00086170       ?IsRectEmpty@CRect@@QBEHXZ 00487170 f   atlsd:atltypes.obj
 0001:00086190       ?IsRectNull@CRect@@QBEHXZ  00487190 f   atlsd:atltypes.obj
 0001:000861e0       ?PtInRect@CRect@@QBEHUtagPOINT@@@Z 004871e0 f   atlsd:atltypes.obj
 0001:00086200       ?SetRect@CRect@@QAEXHHHH@Z 00487200 f   atlsd:atltypes.obj
 0001:00086230       ?SetRect@CRect@@QAEXUtagPOINT@@0@Z 00487230 f   atlsd:atltypes.obj
 0001:00086260       ?SetRectEmpty@CRect@@QAEXXZ 00487260 f   atlsd:atltypes.obj
 0001:00086280       ?CopyRect@CRect@@QAEXPBUtagRECT@@@Z 00487280 f   atlsd:atltypes.obj
 0001:000862a0       ?EqualRect@CRect@@QBEHPBUtagRECT@@@Z 004872a0 f   atlsd:atltypes.obj
 0001:000862c0       ?InflateRect@CRect@@QAEXHH@Z 004872c0 f   atlsd:atltypes.obj
 0001:000862e0       ?InflateRect@CRect@@QAEXUtagSIZE@@@Z 004872e0 f   atlsd:atltypes.obj
 0001:00086300       ?DeflateRect@CRect@@QAEXHH@Z 00487300 f   atlsd:atltypes.obj
 0001:00086330       ?DeflateRect@CRect@@QAEXUtagSIZE@@@Z 00487330 f   atlsd:atltypes.obj
 0001:00086360       ?OffsetRect@CRect@@QAEXHH@Z 00487360 f   atlsd:atltypes.obj
 0001:00086380       ?OffsetRect@CRect@@QAEXUtagPOINT@@@Z 00487380 f   atlsd:atltypes.obj
 0001:000863a0       ?OffsetRect@CRect@@QAEXUtagSIZE@@@Z 004873a0 f   atlsd:atltypes.obj
 0001:000863c0       ?MoveToY@CRect@@QAEXH@Z    004873c0 f   atlsd:atltypes.obj
 0001:000863f0       ?MoveToX@CRect@@QAEXH@Z    004873f0 f   atlsd:atltypes.obj
 0001:00086420       ?MoveToXY@CRect@@QAEXHH@Z  00487420 f   atlsd:atltypes.obj
 0001:00086450       ?MoveToXY@CRect@@QAEXUtagPOINT@@@Z 00487450 f   atlsd:atltypes.obj
 0001:00086480       ?IntersectRect@CRect@@QAEHPBUtagRECT@@0@Z 00487480 f   atlsd:atltypes.obj
 0001:000864a0       ?UnionRect@CRect@@QAEHPBUtagRECT@@0@Z 004874a0 f   atlsd:atltypes.obj
 0001:000864c0       ??4CRect@@QAEXABUtagRECT@@@Z 004874c0 f   atlsd:atltypes.obj
 0001:000864e0       ??8CRect@@QBEHABUtagRECT@@@Z 004874e0 f   atlsd:atltypes.obj
 0001:00086500       ??9CRect@@QBEHABUtagRECT@@@Z 00487500 f   atlsd:atltypes.obj
 0001:00086520       ??YCRect@@QAEXUtagPOINT@@@Z 00487520 f   atlsd:atltypes.obj
 0001:00086540       ??YCRect@@QAEXUtagSIZE@@@Z 00487540 f   atlsd:atltypes.obj
 0001:00086560       ??YCRect@@QAEXPBUtagRECT@@@Z 00487560 f   atlsd:atltypes.obj
 0001:00086580       ??ZCRect@@QAEXUtagPOINT@@@Z 00487580 f   atlsd:atltypes.obj
 0001:000865b0       ??ZCRect@@QAEXUtagSIZE@@@Z 004875b0 f   atlsd:atltypes.obj
 0001:000865e0       ??ZCRect@@QAEXPBUtagRECT@@@Z 004875e0 f   atlsd:atltypes.obj
 0001:00086600       ??_4CRect@@QAEXABUtagRECT@@@Z 00487600 f   atlsd:atltypes.obj
 0001:00086620       ??_5CRect@@QAEXABUtagRECT@@@Z 00487620 f   atlsd:atltypes.obj
 0001:00086640       ??HCRect@@QBE?AV0@UtagPOINT@@@Z 00487640 f   atlsd:atltypes.obj
 0001:000866a0       ??GCRect@@QBE?AV0@UtagPOINT@@@Z 004876a0 f   atlsd:atltypes.obj
 0001:00086700       ??HCRect@@QBE?AV0@UtagSIZE@@@Z 00487700 f   atlsd:atltypes.obj
 0001:00086760       ??GCRect@@QBE?AV0@UtagSIZE@@@Z 00487760 f   atlsd:atltypes.obj
 0001:000867c0       ??HCRect@@QBE?AV0@PBUtagRECT@@@Z 004877c0 f   atlsd:atltypes.obj
 0001:00086810       ??GCRect@@QBE?AV0@PBUtagRECT@@@Z 00487810 f   atlsd:atltypes.obj
 0001:00086860       ??ICRect@@QBE?AV0@ABUtagRECT@@@Z 00487860 f   atlsd:atltypes.obj
 0001:000868b0       ??UCRect@@QBE?AV0@ABUtagRECT@@@Z 004878b0 f   atlsd:atltypes.obj
 0001:00086900       ?SubtractRect@CRect@@QAEHPBUtagRECT@@0@Z 00487900 f   atlsd:atltypes.obj
 0001:00086920       ?NormalizeRect@CRect@@QAEXXZ 00487920 f   atlsd:atltypes.obj
 0001:00086990       ?InflateRect@CRect@@QAEXPBUtagRECT@@@Z 00487990 f   atlsd:atltypes.obj
 0001:000869f0       ?InflateRect@CRect@@QAEXHHHH@Z 004879f0 f   atlsd:atltypes.obj
 0001:00086a40       ?DeflateRect@CRect@@QAEXPBUtagRECT@@@Z 00487a40 f   atlsd:atltypes.obj
 0001:00086aa0       ?DeflateRect@CRect@@QAEXHHHH@Z 00487aa0 f   atlsd:atltypes.obj
 0001:00086af0       ?MulDiv@CRect@@QBE?AV1@HH@Z 00487af0 f   atlsd:atltypes.obj
 0001:00086b60       ?AtlAdvise@ATL@@YGJPAUIUnknown@@0ABU_GUID@@PAK@Z 00487b60 f   atlsd:atlfuncs.obj
 0001:00086c20       ?AtlUnadvise@ATL@@YGJPAUIUnknown@@ABU_GUID@@K@Z 00487c20 f   atlsd:atlfuncs.obj
 0001:00086ce0       ?AtlFreeMarshalStream@ATL@@YGJPAUIStream@@@Z 00487ce0 f   atlsd:atlfuncs.obj
 0001:00086d30       ?AtlMarshalPtrInProc@ATL@@YGJPAUIUnknown@@ABU_GUID@@PAPAUIStream@@@Z 00487d30 f   atlsd:atlfuncs.obj
 0001:00086dd0       ?AtlUnmarshalPtr@ATL@@YGJPAUIStream@@ABU_GUID@@PAPAUIUnknown@@@Z 00487dd0 f   atlsd:atlfuncs.obj
 0001:00086e70       ?AtlComModuleGetClassObject@ATL@@YGJPAU_ATL_COM_MODULE70@1@ABU_GUID@@1PAPAX@Z 00487e70 f   atlsd:atlfuncs.obj
 0001:00087040       ?AtlComModuleRegisterClassObjects@ATL@@YGJPAU_ATL_COM_MODULE70@1@KK@Z 00488040 f   atlsd:atlfuncs.obj
 0001:000870d0       ?AtlComModuleRevokeClassObjects@ATL@@YGJPAU_ATL_COM_MODULE70@1@@Z 004880d0 f   atlsd:atlfuncs.obj
 0001:00087160       ?AtlWaitWithMessageLoop@ATL@@YGHPAX@Z 00488160 f   atlsd:atlfuncs.obj
 0001:00087250       ?AtlInternalQueryInterface@ATL@@YGJPAXPBU_ATL_INTMAP_ENTRY@1@ABU_GUID@@PAPAX@Z 00488250 f   atlsd:atlfuncs.obj
 0001:00087410       ?AtlGetVersion@ATL@@YGKPAX@Z 00488410 f   atlsd:atlfuncs.obj
 0001:00087420       ?AtlWinModuleAddCreateWndData@ATL@@YGXPAU_ATL_WIN_MODULE70@1@PAU_AtlCreateWndData@1@PAX@Z 00488420 f   atlsd:atlfuncs.obj
 0001:00087530       ?AtlWinModuleExtractCreateWndData@ATL@@YGPAXPAU_ATL_WIN_MODULE70@1@@Z 00488530 f   atlsd:atlfuncs.obj
 0001:00087650       ?AtlWinModuleInit@ATL@@YGJPAU_ATL_WIN_MODULE70@1@@Z 00488650 f   atlsd:atlfuncs.obj
 0001:000876f0       ?AtlModuleAddTermFunc@ATL@@YGJPAU_ATL_MODULE70@1@P6GXK@ZK@Z 004886f0 f   atlsd:atlfuncs.obj
 0001:00087800       ?AtlCallTermFunc@ATL@@YGXPAU_ATL_MODULE70@1@@Z 00488800 f   atlsd:atlfuncs.obj
 0001:00087870       ?CComStdCallThunkHelper@ATL@@YGXXZ 00488870 f   atlsd:atlfuncs.obj
 0001:00087880       ??1?$CComPtr@UIConnectionPoint@@@ATL@@QAE@XZ 00488880 f i atlsd:atlfuncs.obj
 0001:00087880       ??1?$CComPtr@UIConnectionPointContainer@@@ATL@@QAE@XZ 00488880 f i atlsd:atlfuncs.obj
 0001:000878a0       _InlineIsEqualGUID         004888a0 f i atlsd:atlfuncs.obj
 0001:00087900       ??0?$CComPtr@UIConnectionPointContainer@@@ATL@@QAE@XZ 00488900 f i atlsd:atlfuncs.obj
 0001:00087900       ??0?$CComPtr@UIConnectionPoint@@@ATL@@QAE@XZ 00488900 f i atlsd:atlfuncs.obj
 0001:00087920       ??1?$CComPtrBase@UIConnectionPointContainer@@@ATL@@QAE@XZ 00488920 f i atlsd:atlfuncs.obj
 0001:00087920       ??1?$CComPtrBase@UIConnectionPoint@@@ATL@@QAE@XZ 00488920 f i atlsd:atlfuncs.obj
 0001:00087950       ??I?$CComPtrBase@UIConnectionPoint@@@ATL@@QAEPAPAUIConnectionPoint@@XZ 00488950 f i atlsd:atlfuncs.obj
 0001:00087950       ??I?$CComPtrBase@UIConnectionPointContainer@@@ATL@@QAEPAPAUIConnectionPointContainer@@XZ 00488950 f i atlsd:atlfuncs.obj
 0001:00087990       ??C?$CComPtrBase@UIConnectionPoint@@@ATL@@QBEPAV?$_NoAddRefReleaseOnCComPtr@UIConnectionPoint@@@1@XZ 00488990 f i atlsd:atlfuncs.obj
 0001:00087990       ??C?$CComPtrBase@UIConnectionPointContainer@@@ATL@@QBEPAV?$_NoAddRefReleaseOnCComPtr@UIConnectionPointContainer@@@1@XZ 00488990 f i atlsd:atlfuncs.obj
 0001:000879d0       ??0?$CComPtrBase@UIConnectionPointContainer@@@ATL@@IAE@XZ 004889d0 f i atlsd:atlfuncs.obj
 0001:000879d0       ??0?$CComPtrBase@UIConnectionPoint@@@ATL@@IAE@XZ 004889d0 f i atlsd:atlfuncs.obj
 0001:000879f0       ?Init@CComCriticalSection@ATL@@QAEJXZ 004889f0 f i atlsd:atlfuncs.obj
 0001:00087a90       ?RevokeClassObject@_ATL_OBJMAP_ENTRY30@ATL@@QAGJXZ 00488a90 f i atlsd:atlfuncs.obj
 0001:00087ac0       ?RegisterClassObject@_ATL_OBJMAP_ENTRY30@ATL@@QAGJKK@Z 00488ac0 f i atlsd:atlfuncs.obj
 0001:00087b40       ?InlineIsEqualUnknown@ATL@@YGHABU_GUID@@@Z 00488b40 f i atlsd:atlfuncs.obj
 0001:00087b90       ??0?$CComCritSecLock@VCComCriticalSection@ATL@@@ATL@@QAE@AAVCComCriticalSection@1@_N@Z 00488b90 f i atlsd:atlfuncs.obj
 0001:00087be0       ??1?$CComCritSecLock@VCComCriticalSection@ATL@@@ATL@@QAE@XZ 00488be0 f i atlsd:atlfuncs.obj
 0001:00087c00       ?Unlock@?$CComCritSecLock@VCComCriticalSection@ATL@@@ATL@@QAEXXZ 00488c00 f i atlsd:atlfuncs.obj
 0001:00087c50       ?Unlock@CComCriticalSection@ATL@@QAEJXZ 00488c50 f i atlsd:atlfuncs.obj
 0001:00087c70       ?Lock@?$CComCritSecLock@VCComCriticalSection@ATL@@@ATL@@QAEJXZ 00488c70 f i atlsd:atlfuncs.obj
 0001:00087cd0       ?Lock@CComCriticalSection@ATL@@QAEJXZ 00488cd0 f i atlsd:atlfuncs.obj
 0001:00087cf0       ??0CAtlBaseModule@ATL@@QAE@XZ 00488cf0 f   atlsd:atlbase.obj
 0001:00087e60       ??1CAtlBaseModule@ATL@@QAE@XZ 00488e60 f   atlsd:atlbase.obj
 0001:00087e80       ?AddResourceInstance@CAtlBaseModule@ATL@@QAE_NPAUHINSTANCE__@@@Z 00488e80 f   atlsd:atlbase.obj
 0001:00087f30       ?RemoveResourceInstance@CAtlBaseModule@ATL@@QAE_NPAUHINSTANCE__@@@Z 00488f30 f   atlsd:atlbase.obj
 0001:00088030       ?GetHInstanceAt@CAtlBaseModule@ATL@@QAEPAUHINSTANCE__@@H@Z 00489030 f   atlsd:atlbase.obj
 0001:00088130       ??0_ATL_BASE_MODULE70@ATL@@QAE@XZ 00489130 f i atlsd:atlbase.obj
 0001:00088160       ??1_ATL_BASE_MODULE70@ATL@@QAE@XZ 00489160 f i atlsd:atlbase.obj
 0001:00088180       ??1?$CSimpleArray@KV?$CSimpleArrayEqualHelper@K@ATL@@@ATL@@QAE@XZ 00489180 f i atlsd:Externs.obj
 0001:00088180       ??1?$CSimpleArray@PAUHINSTANCE__@@V?$CSimpleArrayEqualHelper@PAUHINSTANCE__@@@ATL@@@ATL@@QAE@XZ 00489180 f i atlsd:atlbase.obj
 0001:00088180       ??1?$CSimpleArray@UCModuleInfo@CTraceSnapshot@@V?$CSimpleArrayEqualHelper@UCModuleInfo@CTraceSnapshot@@@ATL@@@ATL@@QAE@XZ 00489180 f i atlsd:Externs.obj
 0001:000881a0       ?RemoveAt@?$CSimpleArray@PAUHINSTANCE__@@V?$CSimpleArrayEqualHelper@PAUHINSTANCE__@@@ATL@@@ATL@@QAEHH@Z 004891a0 f i atlsd:atlbase.obj
 0001:000881a0       ?RemoveAt@?$CSimpleArray@KV?$CSimpleArrayEqualHelper@K@ATL@@@ATL@@QAEHH@Z 004891a0 f i atlsd:Allocate.obj
 0001:00088250       ?RemoveAll@?$CSimpleArray@UCModuleInfo@CTraceSnapshot@@V?$CSimpleArrayEqualHelper@UCModuleInfo@CTraceSnapshot@@@ATL@@@ATL@@QAEXXZ 00489250 f i atlsd:Externs.obj
 0001:00088250       ?RemoveAll@?$CSimpleArray@KV?$CSimpleArrayEqualHelper@K@ATL@@@ATL@@QAEXXZ 00489250 f i atlsd:Externs.obj
 0001:00088250       ?RemoveAll@?$CSimpleArray@PAUHINSTANCE__@@V?$CSimpleArrayEqualHelper@PAUHINSTANCE__@@@ATL@@@ATL@@QAEXXZ 00489250 f i atlsd:atlbase.obj
 0001:000882b0       ?InternalSetAtIndex@?$CSimpleArray@PAUHINSTANCE__@@V?$CSimpleArrayEqualHelper@PAUHINSTANCE__@@@ATL@@@ATL@@QAEXHABQAUHINSTANCE__@@@Z 004892b0 f i atlsd:atlbase.obj
 0001:000882b0       ?InternalSetAtIndex@?$CSimpleArray@KV?$CSimpleArrayEqualHelper@K@ATL@@@ATL@@QAEXHABK@Z 004892b0 f i atlsd:Allocate.obj
 0001:00088300       ?Init@CAtlAllocator@@QAE_NPBDK@Z 00489300 f   atlsd:Allocate.obj
 0001:00088640       ?Open@CAtlAllocator@@QAE_NPBD@Z 00489640 f   atlsd:Allocate.obj
 0001:00088770       ?Close@CAtlAllocator@@QAEX_N@Z 00489770 f   atlsd:Allocate.obj
 0001:000887e0       ?GetModule@CAtlAllocator@@QBEPAVCAtlTraceModule@@H@Z 004897e0 f   atlsd:Allocate.obj
 0001:00088860       ?GetCategory@CAtlAllocator@@QBEPAVCAtlTraceCategory@@H@Z 00489860 f   atlsd:Allocate.obj
 0001:00088900       ?GetCategoryCount@CAtlAllocator@@QBEHH@Z 00489900 f   atlsd:Allocate.obj
 0001:00088970       ?GetCategoryCount@CAtlAllocator@@QBEHABVCAtlTraceModule@@@Z 00489970 f   atlsd:Allocate.obj
 0001:000889d0       ?GetModuleCount@CAtlAllocator@@QBEHXZ 004899d0 f   atlsd:Allocate.obj
 0001:00088a10       ?FindModule@CAtlAllocator@@QBE_NPBGPAI@Z 00489a10 f   atlsd:Allocate.obj
 0001:00088a80       ?AddModule@CAtlAllocator@@QAEHPAUHINSTANCE__@@@Z 00489a80 f   atlsd:Allocate.obj
 0001:00088c40       ?AddCategory@CAtlAllocator@@QAEHHPBG@Z 00489c40 f   atlsd:Allocate.obj
 0001:00088e60       ?RemoveModule@CAtlAllocator@@QAE_NH@Z 00489e60 f   atlsd:Allocate.obj
 0001:00088f00       ?CleanUp@CAtlAllocator@@QAEXXZ 00489f00 f   atlsd:Allocate.obj
 0001:00088f20       ?TakeSnapshot@CAtlAllocator@@QAEXXZ 00489f20 f   atlsd:Allocate.obj
 0001:000890e0       ?ReleaseSnapshot@CAtlAllocator@@QAEXXZ 0048a0e0 f   atlsd:Allocate.obj
 0001:000891b0       ?IncRef@CAtlTraceProcess@@QAEIXZ 0048a1b0 f i atlsd:Allocate.obj
 0001:000891e0       ?Base@CAtlTraceProcess@@QBEPAXXZ 0048a1e0 f i atlsd:Allocate.obj
 0001:00089200       ?DecRef@CAtlTraceProcess@@QAEIXZ 0048a200 f i atlsd:Allocate.obj
 0001:00089230       ?ModuleCount@CAtlTraceProcess@@QBEHXZ 0048a230 f i atlsd:Allocate.obj
 0001:00089250       ?MaxSize@CAtlTraceProcess@@QBEKXZ 0048a250 f i atlsd:Allocate.obj
 0001:00089270       ?CategoryCount@CAtlTraceProcess@@QBEHXZ 0048a270 f i atlsd:Allocate.obj
 0001:00089290       ?TryAllocate@CAtlTraceSettings@@QAE_NXZ 0048a290 f i atlsd:Allocate.obj
 0001:000892d0       ?MarkValid@CAtlTraceSettings@@QAEXJ@Z 0048a2d0 f i atlsd:Allocate.obj
 0001:00089310       ?IncModuleCount@CAtlTraceProcess@@QAEXI@Z 0048a310 f i atlsd:Allocate.obj
 0001:00089340       ?TryAddRef@CAtlTraceSettings@@QAE_NXZ 0048a340 f i atlsd:Allocate.obj
 0001:00089380       ?Release@CAtlTraceSettings@@QAEXXZ 0048a380 f i atlsd:Allocate.obj
 0001:000893b0       ?IncCategoryCount@CAtlTraceProcess@@QAEXI@Z 0048a3b0 f i atlsd:Allocate.obj
 0001:000893e0       ?Add@?$CSimpleArray@UCModuleInfo@CTraceSnapshot@@V?$CSimpleArrayEqualHelper@UCModuleInfo@CTraceSnapshot@@@ATL@@@ATL@@QAEHABUCModuleInfo@CTraceSnapshot@@@Z 0048a3e0 f i atlsd:Allocate.obj
 0001:00089480       ?GetSize@?$CSimpleArray@KV?$CSimpleArrayEqualHelper@K@ATL@@@ATL@@QBEHXZ 0048a480 f i atlsd:Allocate.obj
 0001:00089480       ?GetSize@?$CSimpleArray@PAUHINSTANCE__@@V?$CSimpleArrayEqualHelper@PAUHINSTANCE__@@@ATL@@@ATL@@QBEHXZ 0048a480 f i atlsd:atlbase.obj
 0001:00089480       ?GetSize@?$CSimpleArray@UCModuleInfo@CTraceSnapshot@@V?$CSimpleArrayEqualHelper@UCModuleInfo@CTraceSnapshot@@@ATL@@@ATL@@QBEHXZ 0048a480 f i atlsd:AtlDebugAPI.obj
 0001:000894a0       ?Add@?$CSimpleArray@KV?$CSimpleArrayEqualHelper@K@ATL@@@ATL@@QAEHABK@Z 0048a4a0 f i atlsd:Allocate.obj
 0001:000894a0       ?Add@?$CSimpleArray@PAUHINSTANCE__@@V?$CSimpleArrayEqualHelper@PAUHINSTANCE__@@@ATL@@@ATL@@QAEHABQAUHINSTANCE__@@@Z 0048a4a0 f i atlsd:atlbase.obj
 0001:00089540       ??A?$CSimpleArray@KV?$CSimpleArrayEqualHelper@K@ATL@@@ATL@@QAEAAKH@Z 0048a540 f i atlsd:Allocate.obj
 0001:00089540       ??A?$CSimpleArray@PAUHINSTANCE__@@V?$CSimpleArrayEqualHelper@PAUHINSTANCE__@@@ATL@@@ATL@@QAEAAPAUHINSTANCE__@@H@Z 0048a540 f i atlsd:atlbase.obj
 0001:000895b0       ?InternalSetAtIndex@?$CSimpleArray@UCModuleInfo@CTraceSnapshot@@V?$CSimpleArrayEqualHelper@UCModuleInfo@CTraceSnapshot@@@ATL@@@ATL@@QAEXHABUCModuleInfo@CTraceSnapshot@@@Z 0048a5b0 f i atlsd:Allocate.obj
 0001:00089600       ??0Wrapper@?$CSimpleArray@UCModuleInfo@CTraceSnapshot@@V?$CSimpleArrayEqualHelper@UCModuleInfo@CTraceSnapshot@@@ATL@@@ATL@@QAE@ABUCModuleInfo@CTraceSnapshot@@@Z 0048a600 f i atlsd:Allocate.obj
 0001:00089630       ??0Wrapper@?$CSimpleArray@PAUHINSTANCE__@@V?$CSimpleArrayEqualHelper@PAUHINSTANCE__@@@ATL@@@ATL@@QAE@ABQAUHINSTANCE__@@@Z 0048a630 f i atlsd:atlbase.obj
 0001:00089630       ??0Wrapper@?$CSimpleArray@KV?$CSimpleArrayEqualHelper@K@ATL@@@ATL@@QAE@ABK@Z 0048a630 f i atlsd:Allocate.obj
 0001:00089650       ??0CAtlTraceModuleInfo@@QAE@XZ 0048a650 f   atlsd:AtlTraceModuleManager.obj
 0001:000896a0       ?Reset@CAtlTraceModuleInfo@@QAEXPAUHINSTANCE__@@@Z 0048a6a0 f   atlsd:AtlTraceModuleManager.obj
 0001:000898b0       ??0CAtlTraceCategory@@QAE@XZ 0048a8b0 f   atlsd:AtlTraceModuleManager.obj
 0001:000898e0       ?Reset@CAtlTraceCategory@@QAEXPBGJ@Z 0048a8e0 f   atlsd:AtlTraceModuleManager.obj
 0001:00089910       ??0CAtlTraceModule@@QAE@XZ 0048a910 f   atlsd:AtlTraceModuleManager.obj
 0001:00089950       ?CrtDbgReport@CAtlTraceModule@@QAEXP6AHHPBDH00ZZ@Z 0048a950 f   atlsd:AtlTraceModuleManager.obj
 0001:00089980       ??0CAtlTraceProcess@@QAE@K@Z 0048a980 f   atlsd:AtlTraceModuleManager.obj
 0001:00089a50       ?GetNextCookie@CAtlTraceProcess@@QAEJXZ 0048aa50 f   atlsd:AtlTraceModuleManager.obj
 0001:00089a70       ??0CAtlTraceSettings@@QAE@XZ 0048aa70 f i atlsd:AtlTraceModuleManager.obj
 0001:00089aa6       ?_AfxSocketInit@@YGHPAUWSAData@@@Z 0048aaa6 f   mfc71d:MFC71D.DLL
 0001:00089ab0       _WinMain@16                0048aab0 f   mfcs71d:appmodul.obj
 0001:00089ad0       ?AfxInitialize@@YGHHK@Z    0048aad0 f   mfcs71d:appmodul.obj
 0001:00089b28       _wcslen                    0048ab28 f   msvcrtd:MSVCR71D.dll
 0001:00089b2e       __vsnwprintf               0048ab2e f   msvcrtd:MSVCR71D.dll
 0001:00089b34       __snwprintf                0048ab34 f   msvcrtd:MSVCR71D.dll
 0001:00089b3a       __time64                   0048ab3a f   msvcrtd:MSVCR71D.dll
 0001:00089b40       __mktime64                 0048ab40 f   msvcrtd:MSVCR71D.dll
 0001:00089b46       __gmtime64                 0048ab46 f   msvcrtd:MSVCR71D.dll
 0001:00089b50       __aullshr                  0048ab50 f   msvcrtd:ullshr.obj
 0001:00089b70       _realloc                   0048ab70 f   msvcrtd:MSVCR71D.dll
 0001:00089b76       _memcmp                    0048ab76 f   msvcrtd:MSVCR71D.dll
 0001:00089b7c       _wcscmp                    0048ab7c f   msvcrtd:MSVCR71D.dll
 0001:00089b82       _wcsncpy                   0048ab82 f   msvcrtd:MSVCR71D.dll
 0001:00089b88       ?AfxWinMain@@YGHPAUHINSTANCE__@@0PADH@Z 0048ab88 f   mfc71d:MFC71D.DLL
 0001:00089b8e       ?AfxGetModuleState@@YGPAVAFX_MODULE_STATE@@XZ 0048ab8e f   mfc71d:MFC71D.DLL
 0001:00089ba0       ?data@CPlex@@QAEPAXXZ      0048aba0 f i FaxManager.obj
 0002:00000000       __imp__RegOpenKeyExA@20    00492000     advapi32:ADVAPI32.dll
 0002:00000004       __imp__RegCloseKey@4       00492004     advapi32:ADVAPI32.dll
 0002:00000008       __imp__OpenThreadToken@16  00492008     advapi32:ADVAPI32.dll
 0002:0000000c       __imp__RevertToSelf@0      0049200c     advapi32:ADVAPI32.dll
 0002:00000010       __imp__SetThreadToken@8    00492010     advapi32:ADVAPI32.dll
 0002:00000014       __imp__RegQueryValueA@16   00492014     advapi32:ADVAPI32.dll
 0002:00000018       \177ADVAPI32_NULL_THUNK_DATA 00492018     advapi32:ADVAPI32.dll
 0002:0000001c       __imp__DeleteObject@4      0049201c     gdi32:GDI32.dll
 0002:00000020       __imp__GetStockObject@4    00492020     gdi32:GDI32.dll
 0002:00000024       \177GDI32_NULL_THUNK_DATA  00492024     gdi32:GDI32.dll
 0002:00000028       __imp__GetSystemInfo@4     00492028     kernel32:KERNEL32.dll
 0002:0000002c       __imp__UnmapViewOfFile@4   0049202c     kernel32:KERNEL32.dll
 0002:00000030       __imp__VirtualAlloc@16     00492030     kernel32:KERNEL32.dll
 0002:00000034       __imp__MulDiv@12           00492034     kernel32:KERNEL32.dll
 0002:00000038       __imp__LocalFileTimeToFileTime@8 00492038     kernel32:KERNEL32.dll
 0002:0000003c       __imp__FileTimeToLocalFileTime@8 0049203c     kernel32:KERNEL32.dll
 0002:00000040       __imp__FileTimeToSystemTime@8 00492040     kernel32:KERNEL32.dll
 0002:00000044       __imp__lstrcpynW@12        00492044     kernel32:KERNEL32.dll
 0002:00000048       __imp__OutputDebugStringW@4 00492048     kernel32:KERNEL32.dll
 0002:0000004c       __imp__lstrcpyW@8          0049204c     kernel32:KERNEL32.dll
 0002:00000050       __imp__OpenEventA@12       00492050     kernel32:KERNEL32.dll
 0002:00000054       __imp__LocalAlloc@8        00492054     kernel32:KERNEL32.dll
 0002:00000058       __imp__OpenFileMappingA@12 00492058     kernel32:KERNEL32.dll
 0002:0000005c       __imp__LocalFree@4         0049205c     kernel32:KERNEL32.dll
 0002:00000060       __imp__InterlockedIncrement@4 00492060     kernel32:KERNEL32.dll
 0002:00000064       __imp__GetTickCount@0      00492064     kernel32:KERNEL32.dll
 0002:00000068       __imp__GetTimeZoneInformation@4 00492068     kernel32:KERNEL32.dll
 0002:0000006c       __imp__lstrlenA@4          0049206c     kernel32:KERNEL32.dll
 0002:00000070       __imp__FindFirstFileA@8    00492070     kernel32:KERNEL32.dll
 0002:00000074       __imp__GetLastError@0      00492074     kernel32:KERNEL32.dll
 0002:00000078       __imp__FindClose@4         00492078     kernel32:KERNEL32.dll
 0002:0000007c       __imp__Sleep@4             0049207c     kernel32:KERNEL32.dll
 0002:00000080       __imp__GetLogicalDriveStringsA@8 00492080     kernel32:KERNEL32.dll
 0002:00000084       __imp__GetThreadLocale@0   00492084     kernel32:KERNEL32.dll
 0002:00000088       __imp__GetLocaleInfoA@16   00492088     kernel32:KERNEL32.dll
 0002:0000008c       __imp__GetACP@0            0049208c     kernel32:KERNEL32.dll
 0002:00000090       __imp__InterlockedExchange@8 00492090     kernel32:KERNEL32.dll
 0002:00000094       __imp__GetVersionExA@4     00492094     kernel32:KERNEL32.dll
 0002:00000098       __imp__InterlockedDecrement@4 00492098     kernel32:KERNEL32.dll
 0002:0000009c       __imp__WaitForMultipleObjects@16 0049209c     kernel32:KERNEL32.dll
 0002:000000a0       __imp__ReadFile@20         004920a0     kernel32:KERNEL32.dll
 0002:000000a4       __imp__GetFileSize@8       004920a4     kernel32:KERNEL32.dll
 0002:000000a8       __imp__CreateFileA@28      004920a8     kernel32:KERNEL32.dll
 0002:000000ac       __imp__CreateMutexA@12     004920ac     kernel32:KERNEL32.dll
 0002:000000b0       __imp__OpenMutexA@12       004920b0     kernel32:KERNEL32.dll
 0002:000000b4       __imp__GetModuleFileNameA@12 004920b4     kernel32:KERNEL32.dll
 0002:000000b8       __imp__lstrcpyA@8          004920b8     kernel32:KERNEL32.dll
 0002:000000bc       __imp__CloseHandle@4       004920bc     kernel32:KERNEL32.dll
 0002:000000c0       __imp__ReleaseMutex@4      004920c0     kernel32:KERNEL32.dll
 0002:000000c4       __imp__CreateEventA@16     004920c4     kernel32:KERNEL32.dll
 0002:000000c8       __imp__SetEvent@4          004920c8     kernel32:KERNEL32.dll
 0002:000000cc       __imp__ResetEvent@4        004920cc     kernel32:KERNEL32.dll
 0002:000000d0       __imp__PulseEvent@4        004920d0     kernel32:KERNEL32.dll
 0002:000000d4       __imp__CreateDirectoryA@8  004920d4     kernel32:KERNEL32.dll
 0002:000000d8       __imp__DeleteFileA@4       004920d8     kernel32:KERNEL32.dll
 0002:000000dc       __imp__GetFileAttributesA@4 004920dc     kernel32:KERNEL32.dll
 0002:000000e0       __imp__GetModuleFileNameW@12 004920e0     kernel32:KERNEL32.dll
 0002:000000e4       __imp__MultiByteToWideChar@24 004920e4     kernel32:KERNEL32.dll
 0002:000000e8       __imp__MapViewOfFile@20    004920e8     kernel32:KERNEL32.dll
 0002:000000ec       __imp__WideCharToMultiByte@32 004920ec     kernel32:KERNEL32.dll
 0002:000000f0       __imp__WinExec@8           004920f0     kernel32:KERNEL32.dll
 0002:000000f4       __imp__lstrcatA@8          004920f4     kernel32:KERNEL32.dll
 0002:000000f8       __imp__GetCurrentProcessId@0 004920f8     kernel32:KERNEL32.dll
 0002:000000fc       __imp__GetLocalTime@4      004920fc     kernel32:KERNEL32.dll
 0002:00000100       __imp__WriteFile@20        00492100     kernel32:KERNEL32.dll
 0002:00000104       __imp__GetVolumeInformationA@32 00492104     kernel32:KERNEL32.dll
 0002:00000108       __imp__GetDriveTypeA@4     00492108     kernel32:KERNEL32.dll
 0002:0000010c       __imp__GetDiskFreeSpaceExA@16 0049210c     kernel32:KERNEL32.dll
 0002:00000110       __imp__InterlockedCompareExchange@12 00492110     kernel32:KERNEL32.dll
 0002:00000114       __imp__GetCurrentThreadId@0 00492114     kernel32:KERNEL32.dll
 0002:00000118       __imp__OutputDebugStringA@4 00492118     kernel32:KERNEL32.dll
 0002:0000011c       __imp__FreeLibrary@4       0049211c     kernel32:KERNEL32.dll
 0002:00000120       __imp__GetModuleHandleA@4  00492120     kernel32:KERNEL32.dll
 0002:00000124       __imp__LoadLibraryA@4      00492124     kernel32:KERNEL32.dll
 0002:00000128       __imp__InitializeCriticalSection@4 00492128     kernel32:KERNEL32.dll
 0002:0000012c       __imp__EnterCriticalSection@4 0049212c     kernel32:KERNEL32.dll
 0002:00000130       __imp__LeaveCriticalSection@4 00492130     kernel32:KERNEL32.dll
 0002:00000134       __imp__GetExitCodeThread@8 00492134     kernel32:KERNEL32.dll
 0002:00000138       __imp__SetThreadPriority@8 00492138     kernel32:KERNEL32.dll
 0002:0000013c       __imp__DeleteCriticalSection@4 0049213c     kernel32:KERNEL32.dll
 0002:00000140       __imp__ResumeThread@4      00492140     kernel32:KERNEL32.dll
 0002:00000144       __imp__TerminateThread@8   00492144     kernel32:KERNEL32.dll
 0002:00000148       __imp__CreateThread@24     00492148     kernel32:KERNEL32.dll
 0002:0000014c       __imp__HeapAlloc@12        0049214c     kernel32:KERNEL32.dll
 0002:00000150       __imp__HeapUnlock@4        00492150     kernel32:KERNEL32.dll
 0002:00000154       __imp__SetLastError@4      00492154     kernel32:KERNEL32.dll
 0002:00000158       __imp__IsBadReadPtr@8      00492158     kernel32:KERNEL32.dll
 0002:0000015c       __imp__HeapWalk@8          0049215c     kernel32:KERNEL32.dll
 0002:00000160       __imp__HeapLock@4          00492160     kernel32:KERNEL32.dll
 0002:00000164       __imp__GetProcessHeap@0    00492164     kernel32:KERNEL32.dll
 0002:00000168       __imp__RaiseException@16   00492168     kernel32:KERNEL32.dll
 0002:0000016c       __imp__ExitProcess@4       0049216c     kernel32:KERNEL32.dll
 0002:00000170       __imp__DebugBreak@0        00492170     kernel32:KERNEL32.dll
 0002:00000174       __imp__GetStartupInfoA@4   00492174     kernel32:KERNEL32.dll
 0002:00000178       __imp__QueryPerformanceCounter@4 00492178     kernel32:KERNEL32.dll
 0002:0000017c       __imp__GetSystemTimeAsFileTime@4 0049217c     kernel32:KERNEL32.dll
 0002:00000180       __imp__HeapFree@12         00492180     kernel32:KERNEL32.dll
 0002:00000184       __imp__GetCurrentProcess@0 00492184     kernel32:KERNEL32.dll
 0002:00000188       __imp__CreateFileMappingA@24 00492188     kernel32:KERNEL32.dll
 0002:0000018c       __imp__GetCurrentThread@0  0049218c     kernel32:KERNEL32.dll
 0002:00000190       __imp__FormatMessageA@28   00492190     kernel32:KERNEL32.dll
 0002:00000194       __imp__GetVersion@0        00492194     kernel32:KERNEL32.dll
 0002:00000198       __imp__WaitForSingleObject@8 00492198     kernel32:KERNEL32.dll
 0002:0000019c       __imp__GetProcAddress@8    0049219c     kernel32:KERNEL32.dll
 0002:000001a0       \177KERNEL32_NULL_THUNK_DATA 004921a0     kernel32:KERNEL32.dll
 0002:000001a4       __imp_?GetSelectedItem@CTreeCtrl@@QBEPAU_TREEITEM@@XZ 004921a4     mfc71d:MFC71D.DLL
 0002:000001a8       __imp_?UpdateData@CWnd@@QAEHH@Z 004921a8     mfc71d:MFC71D.DLL
 0002:000001ac       __imp_?SetItemState@CListCtrl@@QAEHHII@Z 004921ac     mfc71d:MFC71D.DLL
 0002:000001b0       __imp_?SetHotItem@CListCtrl@@QAEHH@Z 004921b0     mfc71d:MFC71D.DLL
 0002:000001b4       __imp_??0?$CStringT@DV?$StrTraitMFC_DLL@DV?$ChTraitsCRT@D@ATL@@@@@ATL@@QAE@ABV01@@Z 004921b4     mfc71d:MFC71D.DLL
 0002:000001b8       __imp_?CompareNoCase@?$CStringT@DV?$StrTraitMFC_DLL@DV?$ChTraitsCRT@D@ATL@@@@@ATL@@QBEHPBD@Z 004921b8     mfc71d:MFC71D.DLL
 0002:000001bc       __imp_?Format@?$CStringT@DV?$StrTraitMFC_DLL@DV?$ChTraitsCRT@D@ATL@@@@@ATL@@QAAXPBDZZ 004921bc     mfc71d:MFC71D.DLL
 0002:000001c0       __imp_?SelectItem@CTreeCtrl@@QAEHPAU_TREEITEM@@@Z 004921c0     mfc71d:MFC71D.DLL
 0002:000001c4       __imp_?Right@?$CStringT@DV?$StrTraitMFC_DLL@DV?$ChTraitsCRT@D@ATL@@@@@ATL@@QBE?AV12@H@Z 004921c4     mfc71d:MFC71D.DLL
 0002:000001c8       __imp_?GetLength@?$CSimpleStringT@D$00@ATL@@QBEHXZ 004921c8     mfc71d:MFC71D.DLL
 0002:000001cc       __imp_?Left@?$CStringT@DV?$StrTraitMFC_DLL@DV?$ChTraitsCRT@D@ATL@@@@@ATL@@QBE?AV12@H@Z 004921cc     mfc71d:MFC71D.DLL
 0002:000001d0       __imp_?Find@?$CStringT@DV?$StrTraitMFC_DLL@DV?$ChTraitsCRT@D@ATL@@@@@ATL@@QBEHDH@Z 004921d0     mfc71d:MFC71D.DLL
 0002:000001d4       __imp_?GetRootItem@CTreeCtrl@@QBEPAU_TREEITEM@@XZ 004921d4     mfc71d:MFC71D.DLL
 0002:000001d8       __imp_?SelectString@CComboBox@@QAEHHPBD@Z 004921d8     mfc71d:MFC71D.DLL
 0002:000001dc       __imp_?InsertColumn@CListCtrl@@QAEHHPBDHHH@Z 004921dc     mfc71d:MFC71D.DLL
 0002:000001e0       __imp_??B?$CSimpleStringT@D$00@ATL@@QBEPBDXZ 004921e0     mfc71d:MFC71D.DLL
 0002:000001e4       __imp_?LoadStringA@?$CStringT@DV?$StrTraitMFC_DLL@DV?$ChTraitsCRT@D@ATL@@@@@ATL@@QAEHI@Z 004921e4     mfc71d:MFC71D.DLL
 0002:000001e8       __imp_?SetExtendedStyle@CListCtrl@@QAEKK@Z 004921e8     mfc71d:MFC71D.DLL
 0002:000001ec       __imp_??0?$CStringT@DV?$StrTraitMFC_DLL@DV?$ChTraitsCRT@D@ATL@@@@@ATL@@QAE@PBD@Z 004921ec     mfc71d:MFC71D.DLL
 0002:000001f0       __imp_?OnInitDialog@CDialog@@UAEHXZ 004921f0     mfc71d:MFC71D.DLL
 0002:000001f4       __imp_?AddString@CComboBox@@QAEHPBD@Z 004921f4     mfc71d:MFC71D.DLL
 0002:000001f8       __imp_?ResetContent@CComboBox@@QAEXXZ 004921f8     mfc71d:MFC71D.DLL
 0002:000001fc       __imp_?Invalidate@CWnd@@QAEXH@Z 004921fc     mfc71d:MFC71D.DLL
 0002:00000200       __imp_?GetLBText@CComboBox@@QBEXHAAV?$CStringT@DV?$StrTraitMFC_DLL@DV?$ChTraitsCRT@D@ATL@@@@@ATL@@@Z 00492200     mfc71d:MFC71D.DLL
 0002:00000204       __imp_?SetRedraw@CWnd@@QAEXH@Z 00492204     mfc71d:MFC71D.DLL
 0002:00000208       __imp_?GetCurSel@CComboBox@@QBEHXZ 00492208     mfc71d:MFC71D.DLL
 0002:0000020c       __imp_?DeleteAllItems@CListCtrl@@QAEHXZ 0049220c     mfc71d:MFC71D.DLL
 0002:00000210       __imp_?EnsureVisible@CListCtrl@@QAEHHH@Z 00492210     mfc71d:MFC71D.DLL
 0002:00000214       __imp_?SetItemText@CListCtrl@@QAEHHHPBD@Z 00492214     mfc71d:MFC71D.DLL
 0002:00000218       __imp_?InsertItem@CListCtrl@@QAEHHPBD@Z 00492218     mfc71d:MFC71D.DLL
 0002:0000021c       __imp_?Update@CListCtrl@@QAEHH@Z 0049221c     mfc71d:MFC71D.DLL
 0002:00000220       __imp_??ACDWordArray@@QAEAAKH@Z 00492220     mfc71d:MFC71D.DLL
 0002:00000224       __imp_?Mid@?$CStringT@DV?$StrTraitMFC_DLL@DV?$ChTraitsCRT@D@ATL@@@@@ATL@@QBE?AV12@H@Z 00492224     mfc71d:MFC71D.DLL
 0002:00000228       __imp_?ReverseFind@?$CStringT@DV?$StrTraitMFC_DLL@DV?$ChTraitsCRT@D@ATL@@@@@ATL@@QBEHD@Z 00492228     mfc71d:MFC71D.DLL
 0002:0000022c       __imp_??ACStringArray@@QAEAAV?$CStringT@DV?$StrTraitMFC_DLL@DV?$ChTraitsCRT@D@ATL@@@@@ATL@@H@Z 0049222c     mfc71d:MFC71D.DLL
 0002:00000230       __imp_?GetSize@CStringArray@@QBEHXZ 00492230     mfc71d:MFC71D.DLL
 0002:00000234       __imp_?GetItemCount@CListCtrl@@QBEHXZ 00492234     mfc71d:MFC71D.DLL
 0002:00000238       __imp_?Concatenate@?$CSimpleStringT@D$00@ATL@@KAXAAV12@PBDH1H@Z 00492238     mfc71d:MFC71D.DLL
 0002:0000023c       __imp_??0?$CStringT@DV?$StrTraitMFC_DLL@DV?$ChTraitsCRT@D@ATL@@@@@ATL@@QAE@PAUIAtlStringMgr@1@@Z 0049223c     mfc71d:MFC71D.DLL
 0002:00000240       __imp_?GetManager@?$CSimpleStringT@D$00@ATL@@QBEPAUIAtlStringMgr@2@XZ 00492240     mfc71d:MFC71D.DLL
 0002:00000244       __imp_?Compare@?$CStringT@DV?$StrTraitMFC_DLL@DV?$ChTraitsCRT@D@ATL@@@@@ATL@@QBEHPBD@Z 00492244     mfc71d:MFC71D.DLL
 0002:00000248       __imp_?AfxThrowInvalidArgException@@YGXXZ 00492248     mfc71d:MFC71D.DLL
 0002:0000024c       __imp_?AfxAssertFailedLine@@YGHPBDH@Z 0049224c     mfc71d:MFC71D.DLL
 0002:00000250       __imp_??1CStringArray@@UAE@XZ 00492250     mfc71d:MFC71D.DLL
 0002:00000254       __imp_?GetCount@CStringArray@@QBEHXZ 00492254     mfc71d:MFC71D.DLL
 0002:00000258       __imp_??0CStringArray@@QAE@XZ 00492258     mfc71d:MFC71D.DLL
 0002:0000025c       __imp_?PumpMessages@CSocket@@MAEHI@Z 0049225c     mfc71d:MFC71D.DLL
 0002:00000260       __imp_?OnMessagePending@CSocket@@MAEHXZ 00492260     mfc71d:MFC71D.DLL
 0002:00000264       __imp_?SendToHelper@CSocket@@MAEHPBXHPBUsockaddr@@HH@Z 00492264     mfc71d:MFC71D.DLL
 0002:00000268       __imp_?ReceiveFromHelper@CSocket@@MAEHPAXHPAUsockaddr@@PAHH@Z 00492268     mfc71d:MFC71D.DLL
 0002:0000026c       __imp_?ConnectHelper@CSocket@@MAEHPBUsockaddr@@H@Z 0049226c     mfc71d:MFC71D.DLL
 0002:00000270       __imp_?OnConnect@CAsyncSocket@@MAEXH@Z 00492270     mfc71d:MFC71D.DLL
 0002:00000274       __imp_?OnAccept@CAsyncSocket@@MAEXH@Z 00492274     mfc71d:MFC71D.DLL
 0002:00000278       __imp_?OnOutOfBandData@CAsyncSocket@@MAEXH@Z 00492278     mfc71d:MFC71D.DLL
 0002:0000027c       __imp_?OnSend@CAsyncSocket@@MAEXH@Z 0049227c     mfc71d:MFC71D.DLL
 0002:00000280       __imp_?Send@CSocket@@UAEHPBXHH@Z 00492280     mfc71d:MFC71D.DLL
 0002:00000284       __imp_?Receive@CSocket@@UAEHPAXHH@Z 00492284     mfc71d:MFC71D.DLL
 0002:00000288       __imp_?Close@CSocket@@UAEXXZ 00492288     mfc71d:MFC71D.DLL
 0002:0000028c       __imp_?Accept@CSocket@@UAEHAAVCAsyncSocket@@PAUsockaddr@@PAH@Z 0049228c     mfc71d:MFC71D.DLL
 0002:00000290       __imp_?Dump@CSocket@@MBEXAAVCDumpContext@@@Z 00492290     mfc71d:MFC71D.DLL
 0002:00000294       __imp_?AssertValid@CSocket@@MBEXXZ 00492294     mfc71d:MFC71D.DLL
 0002:00000298       __imp_?GetRuntimeClass@CSocket@@UBEPAUCRuntimeClass@@XZ 00492298     mfc71d:MFC71D.DLL
 0002:0000029c       __imp_??1CSocket@@UAE@XZ   0049229c     mfc71d:MFC71D.DLL
 0002:000002a0       __imp_??0CSocket@@QAE@XZ   004922a0     mfc71d:MFC71D.DLL
 0002:000002a4       __imp_?OnClose@CAsyncSocket@@MAEXH@Z 004922a4     mfc71d:MFC71D.DLL
 0002:000002a8       __imp_?PostThreadMessageA@CWinThread@@QAEHIIJ@Z 004922a8     mfc71d:MFC71D.DLL
 0002:000002ac       __imp_?OnReceive@CAsyncSocket@@MAEXH@Z 004922ac     mfc71d:MFC71D.DLL
 0002:000002b0       __imp_?GetLastError@CAsyncSocket@@SGHXZ 004922b0     mfc71d:MFC71D.DLL
 0002:000002b4       __imp_??1CSocketFile@@UAE@XZ 004922b4     mfc71d:MFC71D.DLL
 0002:000002b8       __imp_?Flush@CSocketFile@@UAEXXZ 004922b8     mfc71d:MFC71D.DLL
 0002:000002bc       __imp_?Write@CSocketFile@@UAEXPBXI@Z 004922bc     mfc71d:MFC71D.DLL
 0002:000002c0       __imp_??0CSocketFile@@QAE@PAVCSocket@@H@Z 004922c0     mfc71d:MFC71D.DLL
 0002:000002c4       __imp_?GetSockOpt@CAsyncSocket@@QAEHHPAXPAHH@Z 004922c4     mfc71d:MFC71D.DLL
 0002:000002c8       __imp_?GetThisMessageMap@CCmdTarget@@KGPBUAFX_MSGMAP@@XZ 004922c8     mfc71d:MFC71D.DLL
 0002:000002cc       __imp_??3CObject@@SGXPAXPBDH@Z 004922cc     mfc71d:MFC71D.DLL
 0002:000002d0       __imp_??2CObject@@SGPAXIPBDH@Z 004922d0     mfc71d:MFC71D.DLL
 0002:000002d4       __imp_?GetThisClass@CWinThread@@SGPAUCRuntimeClass@@XZ 004922d4     mfc71d:MFC71D.DLL
 0002:000002d8       __imp_?Delete@CWinThread@@UAEXXZ 004922d8     mfc71d:MFC71D.DLL
 0002:000002dc       __imp_?GetMainWnd@CWinThread@@UAEPAVCWnd@@XZ 004922dc     mfc71d:MFC71D.DLL
 0002:000002e0       __imp_?ProcessMessageFilter@CWinThread@@UAEHHPAUtagMSG@@@Z 004922e0     mfc71d:MFC71D.DLL
 0002:000002e4       __imp_?ProcessWndProcException@CWinThread@@UAEJPAVCException@@PBUtagMSG@@@Z 004922e4     mfc71d:MFC71D.DLL
 0002:000002e8       __imp_?IsIdleMessage@CWinThread@@UAEHPAUtagMSG@@@Z 004922e8     mfc71d:MFC71D.DLL
 0002:000002ec       __imp_?PumpMessage@CWinThread@@UAEHXZ 004922ec     mfc71d:MFC71D.DLL
 0002:000002f0       __imp_?PreTranslateMessage@CWinThread@@UAEHPAUtagMSG@@@Z 004922f0     mfc71d:MFC71D.DLL
 0002:000002f4       __imp_?Run@CWinThread@@UAEHXZ 004922f4     mfc71d:MFC71D.DLL
 0002:000002f8       __imp_?GetInterfaceMap@CCmdTarget@@MBEPBUAFX_INTERFACEMAP@@XZ 004922f8     mfc71d:MFC71D.DLL
 0002:000002fc       __imp_?OnFinalRelease@CCmdTarget@@UAEXXZ 004922fc     mfc71d:MFC71D.DLL
 0002:00000300       __imp_?OnCmdMsg@CCmdTarget@@UAEHIHPAXPAUAFX_CMDHANDLERINFO@@@Z 00492300     mfc71d:MFC71D.DLL
 0002:00000304       __imp_?Dump@CWinThread@@UBEXAAVCDumpContext@@@Z 00492304     mfc71d:MFC71D.DLL
 0002:00000308       __imp_?AssertValid@CWinThread@@UBEXXZ 00492308     mfc71d:MFC71D.DLL
 0002:0000030c       __imp_??1CWinThread@@UAE@XZ 0049230c     mfc71d:MFC71D.DLL
 0002:00000310       __imp_??0CWinThread@@QAE@XZ 00492310     mfc71d:MFC71D.DLL
 0002:00000314       __imp_?GetPeerName@CAsyncSocket@@QAEHAAV?$CStringT@DV?$StrTraitMFC_DLL@DV?$ChTraitsCRT@D@ATL@@@@@ATL@@AAI@Z 00492314     mfc71d:MFC71D.DLL
 0002:00000318       __imp_?AsyncSelect@CAsyncSocket@@QAEHJ@Z 00492318     mfc71d:MFC71D.DLL
 0002:0000031c       __imp_?Attach@CSocket@@QAEHI@Z 0049231c     mfc71d:MFC71D.DLL
 0002:00000320       __imp_?ExitInstance@CWinThread@@UAEHXZ 00492320     mfc71d:MFC71D.DLL
 0002:00000324       __imp_?GetBuffer@?$CSimpleStringT@D$00@ATL@@QAEPADH@Z 00492324     mfc71d:MFC71D.DLL
 0002:00000328       __imp_??2@YAPAXIPBDH@Z     00492328     mfc71d:MFC71D.DLL
 0002:0000032c       __imp_?OnIdle@CWinThread@@UAEHJ@Z 0049232c     mfc71d:MFC71D.DLL
 0002:00000330       __imp_??1CTreeCtrl@@UAE@XZ 00492330     mfc71d:MFC71D.DLL
 0002:00000334       __imp_??0CTreeCtrl@@QAE@XZ 00492334     mfc71d:MFC71D.DLL
 0002:00000338       __imp_?SetFocus@CWnd@@QAEPAV1@XZ 00492338     mfc71d:MFC71D.DLL
 0002:0000033c       __imp_?SetWindowPos@CWnd@@QAEHPBV1@HHHHI@Z 0049233c     mfc71d:MFC71D.DLL
 0002:00000340       __imp_?ScreenToClient@CWnd@@QBEXPAUtagRECT@@@Z 00492340     mfc71d:MFC71D.DLL
 0002:00000344       __imp_?GetWindowRect@CWnd@@QBEXPAUtagRECT@@@Z 00492344     mfc71d:MFC71D.DLL
 0002:00000348       __imp_?GetDlgItem@CWnd@@QBEPAV1@H@Z 00492348     mfc71d:MFC71D.DLL
 0002:0000034c       __imp_?SetItemData@CTreeCtrl@@QAEHPAU_TREEITEM@@K@Z 0049234c     mfc71d:MFC71D.DLL
 0002:00000350       __imp_?InsertItem@CTreeCtrl@@QAEPAU_TREEITEM@@PBDHHPAU2@1@Z 00492350     mfc71d:MFC71D.DLL
 0002:00000354       __imp_?SetImageList@CTreeCtrl@@QAEPAVCImageList@@PAV2@H@Z 00492354     mfc71d:MFC71D.DLL
 0002:00000358       __imp_?DeleteAllItems@CTreeCtrl@@QAEHXZ 00492358     mfc71d:MFC71D.DLL
 0002:0000035c       __imp_?Add@CImageList@@QAEHPAUHICON__@@@Z 0049235c     mfc71d:MFC71D.DLL
 0002:00000360       __imp_?LoadIconA@CWinApp@@QBEPAUHICON__@@I@Z 00492360     mfc71d:MFC71D.DLL
 0002:00000364       __imp_?Create@CImageList@@QAEHHHIHH@Z 00492364     mfc71d:MFC71D.DLL
 0002:00000368       __imp_??0CImageList@@QAE@XZ 00492368     mfc71d:MFC71D.DLL
 0002:0000036c       __imp_?ShowWindow@CWnd@@QAEHH@Z 0049236c     mfc71d:MFC71D.DLL
 0002:00000370       __imp_?AfxMessageBox@@YGHPBDII@Z 00492370     mfc71d:MFC71D.DLL
 0002:00000374       __imp_?EnableWindow@CWnd@@QAEHH@Z 00492374     mfc71d:MFC71D.DLL
 0002:00000378       __imp_?GetItemData@CTreeCtrl@@QBEKPAU_TREEITEM@@@Z 00492378     mfc71d:MFC71D.DLL
 0002:0000037c       __imp_?GetThisMessageMap@CPropertySheet@@KGPBUAFX_MSGMAP@@XZ 0049237c     mfc71d:MFC71D.DLL
 0002:00000380       __imp_?GetThisClass@CPropertySheet@@SGPAUCRuntimeClass@@XZ 00492380     mfc71d:MFC71D.DLL
 0002:00000384       __imp_?BuildPropPageArray@CPropertySheet@@UAEXXZ 00492384     mfc71d:MFC71D.DLL
 0002:00000388       __imp_?OnInitDialog@CPropertySheet@@UAEHXZ 00492388     mfc71d:MFC71D.DLL
 0002:0000038c       __imp_?DoModal@CPropertySheet@@UAEHXZ 0049238c     mfc71d:MFC71D.DLL
 0002:00000390       __imp_?Create@CPropertySheet@@UAEHPAVCWnd@@KK@Z 00492390     mfc71d:MFC71D.DLL
 0002:00000394       __imp_?SetOccDialogInfo@CWnd@@MAEHPAU_AFX_OCC_DIALOG_INFO@@@Z 00492394     mfc71d:MFC71D.DLL
 0002:00000398       __imp_?CheckAutoCenter@CWnd@@UAEHXZ 00492398     mfc71d:MFC71D.DLL
 0002:0000039c       __imp_?OnCommand@CPropertySheet@@UAEHIJ@Z 0049239c     mfc71d:MFC71D.DLL
 0002:000003a0       __imp_?ContinueModal@CPropertySheet@@UAEHXZ 004923a0     mfc71d:MFC71D.DLL
 0002:000003a4       __imp_?OnCmdMsg@CPropertySheet@@UAEHIHPAXPAUAFX_CMDHANDLERINFO@@@Z 004923a4     mfc71d:MFC71D.DLL
 0002:000003a8       __imp_?Dump@CPropertySheet@@UBEXAAVCDumpContext@@@Z 004923a8     mfc71d:MFC71D.DLL
 0002:000003ac       __imp_?AssertValid@CPropertySheet@@UBEXXZ 004923ac     mfc71d:MFC71D.DLL
 0002:000003b0       __imp_??0CPropertySheet@@QAE@XZ 004923b0     mfc71d:MFC71D.DLL
 0002:000003b4       __imp_??1CPropertySheet@@UAE@XZ 004923b4     mfc71d:MFC71D.DLL
 0002:000003b8       __imp_?SetActivePage@CPropertySheet@@QAEHH@Z 004923b8     mfc71d:MFC71D.DLL
 0002:000003bc       __imp_?GetItem@CTabCtrl@@QBEHHPAUtagTCITEMA@@@Z 004923bc     mfc71d:MFC71D.DLL
 0002:000003c0       __imp_?GetItemCount@CTabCtrl@@QBEHXZ 004923c0     mfc71d:MFC71D.DLL
 0002:000003c4       __imp_?GetTabControl@CPropertySheet@@QBEPAVCTabCtrl@@XZ 004923c4     mfc71d:MFC71D.DLL
 0002:000003c8       __imp_?PreTranslateMessage@CPropertySheet@@UAEHPAUtagMSG@@@Z 004923c8     mfc71d:MFC71D.DLL
 0002:000003cc       __imp_?GetParent@CWnd@@QBEPAV1@XZ 004923cc     mfc71d:MFC71D.DLL
 0002:000003d0       __imp_?RemoveAll@CStringArray@@QAEXXZ 004923d0     mfc71d:MFC71D.DLL
 0002:000003d4       __imp_?DDX_Radio@@YGXPAVCDataExchange@@HAAH@Z 004923d4     mfc71d:MFC71D.DLL
 0002:000003d8       __imp_?DDX_Text@@YGXPAVCDataExchange@@HAAV?$CStringT@DV?$StrTraitMFC_DLL@DV?$ChTraitsCRT@D@ATL@@@@@ATL@@@Z 004923d8     mfc71d:MFC71D.DLL
 0002:000003dc       __imp_?DDX_DateTimeCtrl@@YGXPAVCDataExchange@@HAAVCTime@ATL@@@Z 004923dc     mfc71d:MFC71D.DLL
 0002:000003e0       __imp_?GetItemData@CComboBox@@QBEKH@Z 004923e0     mfc71d:MFC71D.DLL
 0002:000003e4       __imp_?AfxMessageBox@@YGHIII@Z 004923e4     mfc71d:MFC71D.DLL
 0002:000003e8       __imp_?SetCurSel@CComboBox@@QAEHH@Z 004923e8     mfc71d:MFC71D.DLL
 0002:000003ec       __imp_?GetCount@CComboBox@@QBEHXZ 004923ec     mfc71d:MFC71D.DLL
 0002:000003f0       __imp_?Add@CStringArray@@QAEHABV?$CStringT@DV?$StrTraitMFC_DLL@DV?$ChTraitsCRT@D@ATL@@@@@ATL@@@Z 004923f0     mfc71d:MFC71D.DLL
 0002:000003f4       __imp_?SetItemData@CComboBox@@QAEHHK@Z 004923f4     mfc71d:MFC71D.DLL
 0002:000003f8       __imp_?InsertString@CComboBox@@QAEHHPBD@Z 004923f8     mfc71d:MFC71D.DLL
 0002:000003fc       __imp_?Empty@?$CSimpleStringT@D$00@ATL@@QAEXXZ 004923fc     mfc71d:MFC71D.DLL
 0002:00000400       __imp_?OnDestroy@CWnd@@IAEXXZ 00492400     mfc71d:MFC71D.DLL
 0002:00000404       __imp_??1CFileDialog@@UAE@XZ 00492404     mfc71d:MFC71D.DLL
 0002:00000408       __imp_?GetPathName@CFileDialog@@QBE?AV?$CStringT@DV?$StrTraitMFC_DLL@DV?$ChTraitsCRT@D@ATL@@@@@ATL@@XZ 00492408     mfc71d:MFC71D.DLL
 0002:0000040c       __imp_?DoModal@CFileDialog@@UAEHXZ 0049240c     mfc71d:MFC71D.DLL
 0002:00000410       __imp_??0CFileDialog@@QAE@HPBD0K0PAVCWnd@@K@Z 00492410     mfc71d:MFC71D.DLL
 0002:00000414       __imp_??2@YAPAXI@Z         00492414     mfc71d:MFC71D.DLL
 0002:00000418       __imp_?DDV_MaxChars@@YGXPAVCDataExchange@@ABV?$CStringT@DV?$StrTraitMFC_DLL@DV?$ChTraitsCRT@D@ATL@@@@@ATL@@H@Z 00492418     mfc71d:MFC71D.DLL
 0002:0000041c       __imp_?GetProfileStringA@CWinApp@@QAE?AV?$CStringT@DV?$StrTraitMFC_DLL@DV?$ChTraitsCRT@D@ATL@@@@@ATL@@PBD00@Z 0049241c     mfc71d:MFC71D.DLL
 0002:00000420       __imp_?GetRuntimeClass@CObject@@UBEPAUCRuntimeClass@@XZ 00492420     mfc71d:MFC71D.DLL
 0002:00000424       __imp_??3@YAXPAXPBDH@Z     00492424     mfc71d:MFC71D.DLL
 0002:00000428       __imp_??1CObject@@UAE@XZ   00492428     mfc71d:MFC71D.DLL
 0002:0000042c       __imp_??0CObject@@IAE@XZ   0049242c     mfc71d:MFC71D.DLL
 0002:00000430       __imp_?AfxAssertValidObject@@YGXPBVCObject@@PBDH@Z 00492430     mfc71d:MFC71D.DLL
 0002:00000434       __imp_?FreeDataChain@CPlex@@QAEXXZ 00492434     mfc71d:MFC71D.DLL
 0002:00000438       __imp_?AfxIsValidAddress@@YGHPBXIH@Z 00492438     mfc71d:MFC71D.DLL
 0002:0000043c       __imp_?ReadCount@CArchive@@QAEKXZ 0049243c     mfc71d:MFC71D.DLL
 0002:00000440       __imp_?WriteCount@CArchive@@QAEXK@Z 00492440     mfc71d:MFC71D.DLL
 0002:00000444       __imp_?IsStoring@CArchive@@QBEHXZ 00492444     mfc71d:MFC71D.DLL
 0002:00000448       __imp_?GetDepth@CDumpContext@@QBEHXZ 00492448     mfc71d:MFC71D.DLL
 0002:0000044c       __imp_??6CDumpContext@@QAEAAV0@H@Z 0049244c     mfc71d:MFC71D.DLL
 0002:00000450       __imp_??6CDumpContext@@QAEAAV0@PBD@Z 00492450     mfc71d:MFC71D.DLL
 0002:00000454       __imp_?Dump@CObject@@UBEXAAVCDumpContext@@@Z 00492454     mfc71d:MFC71D.DLL
 0002:00000458       __imp_?AssertValid@CObject@@UBEXXZ 00492458     mfc71d:MFC71D.DLL
 0002:0000045c       __imp_?Read@CArchive@@QAEIPAXI@Z 0049245c     mfc71d:MFC71D.DLL
 0002:00000460       __imp_?Write@CArchive@@QAEXPBXI@Z 00492460     mfc71d:MFC71D.DLL
 0002:00000464       __imp_??_U@YAPAXI@Z        00492464     mfc71d:MFC71D.DLL
 0002:00000468       __imp_?Create@CPlex@@SGPAU1@AAPAU1@II@Z 00492468     mfc71d:MFC71D.DLL
 0002:0000046c       __imp_??A?$CSimpleStringT@D$00@ATL@@QBEDH@Z 0049246c     mfc71d:MFC71D.DLL
 0002:00000470       __imp_?Find@?$CStringT@DV?$StrTraitMFC_DLL@DV?$ChTraitsCRT@D@ATL@@@@@ATL@@QBEHPBDH@Z 00492470     mfc71d:MFC71D.DLL
 0002:00000474       __imp_?Mid@?$CStringT@DV?$StrTraitMFC_DLL@DV?$ChTraitsCRT@D@ATL@@@@@ATL@@QBE?AV12@HH@Z 00492474     mfc71d:MFC71D.DLL
 0002:00000478       __imp_??1CFileFind@@UAE@XZ 00492478     mfc71d:MFC71D.DLL
 0002:0000047c       __imp_?Close@CFileFind@@QAEXXZ 0049247c     mfc71d:MFC71D.DLL
 0002:00000480       __imp_?IsDirectory@CFileFind@@QBEHXZ 00492480     mfc71d:MFC71D.DLL
 0002:00000484       __imp_?FindNextFileA@CFileFind@@UAEHXZ 00492484     mfc71d:MFC71D.DLL
 0002:00000488       __imp_?FindFile@CFileFind@@UAEHPBDK@Z 00492488     mfc71d:MFC71D.DLL
 0002:0000048c       __imp_??0CFileFind@@QAE@XZ 0049248c     mfc71d:MFC71D.DLL
 0002:00000490       __imp_?RemoveAt@CStringArray@@QAEXHH@Z 00492490     mfc71d:MFC71D.DLL
 0002:00000494       __imp_?IsEmpty@?$CSimpleStringT@D$00@ATL@@QBE_NXZ 00492494     mfc71d:MFC71D.DLL
 0002:00000498       __imp_?SetAt@CStringArray@@QAEXHABV?$CStringT@DV?$StrTraitMFC_DLL@DV?$ChTraitsCRT@D@ATL@@@@@ATL@@@Z 00492498     mfc71d:MFC71D.DLL
 0002:0000049c       __imp_?GetAt@CStringArray@@QBEABV?$CStringT@DV?$StrTraitMFC_DLL@DV?$ChTraitsCRT@D@ATL@@@@@ATL@@H@Z 0049249c     mfc71d:MFC71D.DLL
 0002:000004a0       __imp_?GetCreationTime@CFileFind@@UBEHAAVCTime@ATL@@@Z 004924a0     mfc71d:MFC71D.DLL
 0002:000004a4       __imp_?GetFileName@CFileFind@@UBE?AV?$CStringT@DV?$StrTraitMFC_DLL@DV?$ChTraitsCRT@D@ATL@@@@@ATL@@XZ 004924a4     mfc71d:MFC71D.DLL
 0002:000004a8       __imp_?GetAt@?$CSimpleStringT@D$00@ATL@@QBEDH@Z 004924a8     mfc71d:MFC71D.DLL
 0002:000004ac       __imp_?AfxFreeLibrary@@YGHPAUHINSTANCE__@@@Z 004924ac     mfc71d:MFC71D.DLL
 0002:000004b0       __imp_?AfxLoadLibrary@@YGPAUHINSTANCE__@@PBD@Z 004924b0     mfc71d:MFC71D.DLL
 0002:000004b4       __imp_??Y?$CStringT@DV?$StrTraitMFC_DLL@DV?$ChTraitsCRT@D@ATL@@@@@ATL@@QAEAAV01@ABV?$CSimpleStringT@D$00@1@@Z 004924b4     mfc71d:MFC71D.DLL
 0002:000004b8       __imp_??Y?$CStringT@DV?$StrTraitMFC_DLL@DV?$ChTraitsCRT@D@ATL@@@@@ATL@@QAEAAV01@PBD@Z 004924b8     mfc71d:MFC71D.DLL
 0002:000004bc       __imp_?FindOneOf@?$CStringT@DV?$StrTraitMFC_DLL@DV?$ChTraitsCRT@D@ATL@@@@@ATL@@QBEHPBD@Z 004924bc     mfc71d:MFC71D.DLL
 0002:000004c0       __imp_??_U@YAPAXIPBDH@Z    004924c0     mfc71d:MFC71D.DLL
 0002:000004c4       __imp_?MakeLower@?$CStringT@DV?$StrTraitMFC_DLL@DV?$ChTraitsCRT@D@ATL@@@@@ATL@@QAEAAV12@XZ 004924c4     mfc71d:MFC71D.DLL
 0002:000004c8       __imp_?WriteProfileInt@CWinApp@@QAEHPBD0H@Z 004924c8     mfc71d:MFC71D.DLL
 0002:000004cc       __imp_?WriteProfileStringA@CWinApp@@QAEHPBD00@Z 004924cc     mfc71d:MFC71D.DLL
 0002:000004d0       __imp_?TrimRight@?$CStringT@DV?$StrTraitMFC_DLL@DV?$ChTraitsCRT@D@ATL@@@@@ATL@@QAEAAV12@XZ 004924d0     mfc71d:MFC71D.DLL
 0002:000004d4       __imp_?SendToHelper@CAsyncSocket@@MAEHPBXHPBUsockaddr@@HH@Z 004924d4     mfc71d:MFC71D.DLL
 0002:000004d8       __imp_?ReceiveFromHelper@CAsyncSocket@@MAEHPAXHPAUsockaddr@@PAHH@Z 004924d8     mfc71d:MFC71D.DLL
 0002:000004dc       __imp_?ConnectHelper@CAsyncSocket@@MAEHPBUsockaddr@@H@Z 004924dc     mfc71d:MFC71D.DLL
 0002:000004e0       __imp_?Send@CAsyncSocket@@UAEHPBXHH@Z 004924e0     mfc71d:MFC71D.DLL
 0002:000004e4       __imp_?Receive@CAsyncSocket@@UAEHPAXHH@Z 004924e4     mfc71d:MFC71D.DLL
 0002:000004e8       __imp_?Close@CAsyncSocket@@UAEXXZ 004924e8     mfc71d:MFC71D.DLL
 0002:000004ec       __imp_?Accept@CAsyncSocket@@UAEHAAV1@PAUsockaddr@@PAH@Z 004924ec     mfc71d:MFC71D.DLL
 0002:000004f0       __imp_?Dump@CAsyncSocket@@UBEXAAVCDumpContext@@@Z 004924f0     mfc71d:MFC71D.DLL
 0002:000004f4       __imp_?AssertValid@CAsyncSocket@@UBEXXZ 004924f4     mfc71d:MFC71D.DLL
 0002:000004f8       __imp_?GetRuntimeClass@CAsyncSocket@@UBEPAUCRuntimeClass@@XZ 004924f8     mfc71d:MFC71D.DLL
 0002:000004fc       __imp_??0CAsyncSocket@@QAE@XZ 004924fc     mfc71d:MFC71D.DLL
 0002:00000500       __imp_??1CAsyncSocket@@UAE@XZ 00492500     mfc71d:MFC71D.DLL
 0002:00000504       __imp_?ResumeThread@CWinThread@@QAEKXZ 00492504     mfc71d:MFC71D.DLL
 0002:00000508       __imp_?Detach@CAsyncSocket@@QAEIXZ 00492508     mfc71d:MFC71D.DLL
 0002:0000050c       __imp_?GetSafeHwnd@CWnd@@QBEPAUHWND__@@XZ 0049250c     mfc71d:MFC71D.DLL
 0002:00000510       __imp_?AfxBeginThread@@YGPAVCWinThread@@PAUCRuntimeClass@@HIKPAU_SECURITY_ATTRIBUTES@@@Z 00492510     mfc71d:MFC71D.DLL
 0002:00000514       __imp_?GetThisMessageMap@CFrameWnd@@KGPBUAFX_MSGMAP@@XZ 00492514     mfc71d:MFC71D.DLL
 0002:00000518       __imp_?GetThisMessageMap@CListView@@KGPBUAFX_MSGMAP@@XZ 00492518     mfc71d:MFC71D.DLL
 0002:0000051c       __imp_?GetThisClass@CListView@@SGPAUCRuntimeClass@@XZ 0049251c     mfc71d:MFC71D.DLL
 0002:00000520       __imp_?DrawItem@CListView@@UAEXPAUtagDRAWITEMSTRUCT@@@Z 00492520     mfc71d:MFC71D.DLL
 0002:00000524       __imp_?OnEndPrintPreview@CView@@MAEXPAVCDC@@PAUCPrintInfo@@UtagPOINT@@PAVCPreviewView@@@Z 00492524     mfc71d:MFC71D.DLL
 0002:00000528       __imp_?OnEndPrinting@CView@@MAEXPAVCDC@@PAUCPrintInfo@@@Z 00492528     mfc71d:MFC71D.DLL
 0002:0000052c       __imp_?OnPrint@CView@@MAEXPAVCDC@@PAUCPrintInfo@@@Z 0049252c     mfc71d:MFC71D.DLL
 0002:00000530       __imp_?OnBeginPrinting@CView@@MAEXPAVCDC@@PAUCPrintInfo@@@Z 00492530     mfc71d:MFC71D.DLL
 0002:00000534       __imp_?OnPreparePrinting@CView@@MAEHPAUCPrintInfo@@@Z 00492534     mfc71d:MFC71D.DLL
 0002:00000538       __imp_?OnUpdate@CView@@MAEXPAV1@JPAVCObject@@@Z 00492538     mfc71d:MFC71D.DLL
 0002:0000053c       __imp_?OnActivateFrame@CView@@MAEXIPAVCFrameWnd@@@Z 0049253c     mfc71d:MFC71D.DLL
 0002:00000540       __imp_?OnActivateView@CView@@MAEXHPAV1@0@Z 00492540     mfc71d:MFC71D.DLL
 0002:00000544       __imp_?OnPrepareDC@CView@@UAEXPAVCDC@@PAUCPrintInfo@@@Z 00492544     mfc71d:MFC71D.DLL
 0002:00000548       __imp_?OnDragScroll@CView@@UAEKKVCPoint@@@Z 00492548     mfc71d:MFC71D.DLL
 0002:0000054c       __imp_?OnDropEx@CView@@UAEKPAVCOleDataObject@@KKVCPoint@@@Z 0049254c     mfc71d:MFC71D.DLL
 0002:00000550       __imp_?OnDrop@CView@@UAEHPAVCOleDataObject@@KVCPoint@@@Z 00492550     mfc71d:MFC71D.DLL
 0002:00000554       __imp_?OnDragLeave@CView@@UAEXXZ 00492554     mfc71d:MFC71D.DLL
 0002:00000558       __imp_?OnDragOver@CView@@UAEKPAVCOleDataObject@@KVCPoint@@@Z 00492558     mfc71d:MFC71D.DLL
 0002:0000055c       __imp_?OnDragEnter@CView@@UAEKPAVCOleDataObject@@KVCPoint@@@Z 0049255c     mfc71d:MFC71D.DLL
 0002:00000560       __imp_?OnScrollBy@CView@@UAEHVCSize@@H@Z 00492560     mfc71d:MFC71D.DLL
 0002:00000564       __imp_?OnScroll@CView@@UAEHIIH@Z 00492564     mfc71d:MFC71D.DLL
 0002:00000568       __imp_?IsSelected@CView@@UBEHPBVCObject@@@Z 00492568     mfc71d:MFC71D.DLL
 0002:0000056c       __imp_?OnChildNotify@CListView@@MAEHIIJPAJ@Z 0049256c     mfc71d:MFC71D.DLL
 0002:00000570       __imp_?PostNcDestroy@CView@@MAEXXZ 00492570     mfc71d:MFC71D.DLL
 0002:00000574       __imp_?PreTranslateMessage@CWnd@@UAEHPAUtagMSG@@@Z 00492574     mfc71d:MFC71D.DLL
 0002:00000578       __imp_?GetScrollBarCtrl@CView@@UBEPAVCScrollBar@@H@Z 00492578     mfc71d:MFC71D.DLL
 0002:0000057c       __imp_?CalcWindowRect@CView@@UAEXPAUtagRECT@@I@Z 0049257c     mfc71d:MFC71D.DLL
 0002:00000580       __imp_?PreCreateWindow@CListView@@UAEHAAUtagCREATESTRUCTA@@@Z 00492580     mfc71d:MFC71D.DLL
 0002:00000584       __imp_?OnCmdMsg@CView@@UAEHIHPAXPAUAFX_CMDHANDLERINFO@@@Z 00492584     mfc71d:MFC71D.DLL
 0002:00000588       __imp_?Dump@CCtrlView@@UBEXAAVCDumpContext@@@Z 00492588     mfc71d:MFC71D.DLL
 0002:0000058c       __imp_?AssertValid@CCtrlView@@UBEXXZ 0049258c     mfc71d:MFC71D.DLL
 0002:00000590       __imp_??0CListView@@QAE@XZ 00492590     mfc71d:MFC71D.DLL
 0002:00000594       __imp_??1CCtrlView@@UAE@XZ 00492594     mfc71d:MFC71D.DLL
 0002:00000598       __imp_?OnInitialUpdate@CView@@UAEXXZ 00492598     mfc71d:MFC71D.DLL
 0002:0000059c       __imp_?SetImageList@CListCtrl@@QAEPAVCImageList@@PAV2@H@Z 0049259c     mfc71d:MFC71D.DLL
 0002:000005a0       __imp_?ModifyStyle@CWnd@@QAEHKKI@Z 004925a0     mfc71d:MFC71D.DLL
 0002:000005a4       __imp_?GetListCtrl@CListView@@QBEAAVCListCtrl@@XZ 004925a4     mfc71d:MFC71D.DLL
 0002:000005a8       __imp_?SetItem@CListCtrl@@QAEHHHIPBDHIIJ@Z 004925a8     mfc71d:MFC71D.DLL
 0002:000005ac       __imp_?DeleteItem@CListCtrl@@QAEHH@Z 004925ac     mfc71d:MFC71D.DLL
 0002:000005b0       __imp_?InsertItem@CListCtrl@@QAEHHPBDH@Z 004925b0     mfc71d:MFC71D.DLL
 0002:000005b4       __imp_?GetThisClass@CFrameWnd@@SGPAUCRuntimeClass@@XZ 004925b4     mfc71d:MFC71D.DLL
 0002:000005b8       __imp_?ExitHelpMode@CFrameWnd@@UAEXXZ 004925b8     mfc71d:MFC71D.DLL
 0002:000005bc       __imp_?DelayUpdateFrameMenu@CFrameWnd@@UAEXPAUHMENU__@@@Z 004925bc     mfc71d:MFC71D.DLL
 0002:000005c0       __imp_?GetDefaultAccelerator@CFrameWnd@@UAEPAUHACCEL__@@XZ 004925c0     mfc71d:MFC71D.DLL
 0002:000005c4       __imp_?OnUpdateFrameMenu@CFrameWnd@@UAEXPAUHMENU__@@@Z 004925c4     mfc71d:MFC71D.DLL
 0002:000005c8       __imp_?OnUpdateFrameTitle@CFrameWnd@@UAEXH@Z 004925c8     mfc71d:MFC71D.DLL
 0002:000005cc       __imp_?NegotiateBorderSpace@CFrameWnd@@UAEHIPAUtagRECT@@@Z 004925cc     mfc71d:MFC71D.DLL
 0002:000005d0       __imp_?GetMessageBar@CFrameWnd@@UAEPAVCWnd@@XZ 004925d0     mfc71d:MFC71D.DLL
 0002:000005d4       __imp_?OnSetPreviewMode@CFrameWnd@@UAEXHPAUCPrintPreviewState@@@Z 004925d4     mfc71d:MFC71D.DLL
 0002:000005d8       __imp_?ActivateFrame@CFrameWnd@@UAEXH@Z 004925d8     mfc71d:MFC71D.DLL
 0002:000005dc       __imp_?GetMessageString@CFrameWnd@@UBEXIAAV?$CStringT@DV?$StrTraitMFC_DLL@DV?$ChTraitsCRT@D@ATL@@@@@ATL@@@Z 004925dc     mfc71d:MFC71D.DLL
 0002:000005e0       __imp_?GetActiveFrame@CFrameWnd@@UAEPAV1@XZ 004925e0     mfc71d:MFC71D.DLL
 0002:000005e4       __imp_?GetActiveDocument@CFrameWnd@@UAEPAVCDocument@@XZ 004925e4     mfc71d:MFC71D.DLL
 0002:000005e8       __imp_?LoadFrame@CFrameWnd@@UAEHIKPAVCWnd@@PAUCCreateContext@@@Z 004925e8     mfc71d:MFC71D.DLL
 0002:000005ec       __imp_?Create@CFrameWnd@@UAEHPBD0KABUtagRECT@@PAVCWnd@@0KPAUCCreateContext@@@Z 004925ec     mfc71d:MFC71D.DLL
 0002:000005f0       __imp_?IsFrameWnd@CFrameWnd@@UBEHXZ 004925f0     mfc71d:MFC71D.DLL
 0002:000005f4       __imp_?PostNcDestroy@CFrameWnd@@MAEXXZ 004925f4     mfc71d:MFC71D.DLL
 0002:000005f8       __imp_?PreTranslateMessage@CFrameWnd@@UAEHPAUtagMSG@@@Z 004925f8     mfc71d:MFC71D.DLL
 0002:000005fc       __imp_?EndModalState@CFrameWnd@@UAEXXZ 004925fc     mfc71d:MFC71D.DLL
 0002:00000600       __imp_?BeginModalState@CFrameWnd@@UAEXXZ 00492600     mfc71d:MFC71D.DLL
 0002:00000604       __imp_?OnCommand@CFrameWnd@@MAEHIJ@Z 00492604     mfc71d:MFC71D.DLL
 0002:00000608       __imp_?OnCmdMsg@CFrameWnd@@UAEHIHPAXPAUAFX_CMDHANDLERINFO@@@Z 00492608     mfc71d:MFC71D.DLL
 0002:0000060c       __imp_??1CSplitterWnd@@UAE@XZ 0049260c     mfc71d:MFC71D.DLL
 0002:00000610       __imp_??1CToolBar@@UAE@XZ  00492610     mfc71d:MFC71D.DLL
 0002:00000614       __imp_??1CStatusBar@@UAE@XZ 00492614     mfc71d:MFC71D.DLL
 0002:00000618       __imp_??1CProgressCtrl@@UAE@XZ 00492618     mfc71d:MFC71D.DLL
 0002:0000061c       __imp_??1CStatic@@UAE@XZ   0049261c     mfc71d:MFC71D.DLL
 0002:00000620       __imp_??1CFrameWnd@@UAE@XZ 00492620     mfc71d:MFC71D.DLL
 0002:00000624       __imp_??0CSplitterWnd@@QAE@XZ 00492624     mfc71d:MFC71D.DLL
 0002:00000628       __imp_??0CToolBar@@QAE@XZ  00492628     mfc71d:MFC71D.DLL
 0002:0000062c       __imp_??0CStatusBar@@QAE@XZ 0049262c     mfc71d:MFC71D.DLL
 0002:00000630       __imp_??0CProgressCtrl@@QAE@XZ 00492630     mfc71d:MFC71D.DLL
 0002:00000634       __imp_??0CStatic@@QAE@XZ   00492634     mfc71d:MFC71D.DLL
 0002:00000638       __imp_??0CFrameWnd@@QAE@XZ 00492638     mfc71d:MFC71D.DLL
 0002:0000063c       __imp_?GetProfileIntA@CWinApp@@QAEIPBD0H@Z 0049263c     mfc71d:MFC71D.DLL
 0002:00000640       __imp_?GetBorders@CStatusBarCtrl@@QBEHAAH00@Z 00492640     mfc71d:MFC71D.DLL
 0002:00000644       __imp_?MoveWindow@CWnd@@QAEXPBUtagRECT@@H@Z 00492644     mfc71d:MFC71D.DLL
 0002:00000648       __imp_?GetPaneStyle@CStatusBar@@QBEIH@Z 00492648     mfc71d:MFC71D.DLL
 0002:0000064c       __imp_?GetRect@CStatusBarCtrl@@QBEHHPAUtagRECT@@@Z 0049264c     mfc71d:MFC71D.DLL
 0002:00000650       __imp_?GetStatusBarCtrl@CStatusBar@@QBEAAVCStatusBarCtrl@@XZ 00492650     mfc71d:MFC71D.DLL
 0002:00000654       __imp_?MakeUpper@?$CStringT@DV?$StrTraitMFC_DLL@DV?$ChTraitsCRT@D@ATL@@@@@ATL@@QAEAAV12@XZ 00492654     mfc71d:MFC71D.DLL
 0002:00000658       __imp_?wndTop@CWnd@@2V1@B  00492658     mfc71d:MFC71D.DLL
 0002:0000065c       __imp_?DockControlBar@CFrameWnd@@QAEXPAVCControlBar@@IPBUtagRECT@@@Z 0049265c     mfc71d:MFC71D.DLL
 0002:00000660       __imp_?EnableDocking@CFrameWnd@@QAEXK@Z 00492660     mfc71d:MFC71D.DLL
 0002:00000664       __imp_?EnableDocking@CControlBar@@QAEXK@Z 00492664     mfc71d:MFC71D.DLL
 0002:00000668       __imp_?SetTipText@CStatusBarCtrl@@QAEXHPBD@Z 00492668     mfc71d:MFC71D.DLL
 0002:0000066c       __imp_?TrimLeft@?$CStringT@DV?$StrTraitMFC_DLL@DV?$ChTraitsCRT@D@ATL@@@@@ATL@@QAEAAV12@XZ 0049266c     mfc71d:MFC71D.DLL
 0002:00000670       __imp_?SetPaneInfo@CStatusBar@@QAEXHIIH@Z 00492670     mfc71d:MFC71D.DLL
 0002:00000674       __imp_?SetStep@CProgressCtrl@@QAEHH@Z 00492674     mfc71d:MFC71D.DLL
 0002:00000678       __imp_?SetRange@CProgressCtrl@@QAEXFF@Z 00492678     mfc71d:MFC71D.DLL
 0002:0000067c       __imp_?SetIndicators@CStatusBar@@QAEHPBIH@Z 0049267c     mfc71d:MFC71D.DLL
 0002:00000680       __imp_?LoadToolBar@CToolBar@@QAEHI@Z 00492680     mfc71d:MFC71D.DLL
 0002:00000684       __imp_?OnCreate@CFrameWnd@@IAEHPAUtagCREATESTRUCTA@@@Z 00492684     mfc71d:MFC71D.DLL
 0002:00000688       __imp_?PreCreateWindow@CFrameWnd@@MAEHAAUtagCREATESTRUCTA@@@Z 00492688     mfc71d:MFC71D.DLL
 0002:0000068c       __imp_?AssertValid@CFrameWnd@@UBEXXZ 0049268c     mfc71d:MFC71D.DLL
 0002:00000690       __imp_?Dump@CFrameWnd@@UBEXAAVCDumpContext@@@Z 00492690     mfc71d:MFC71D.DLL
 0002:00000694       __imp_?RedrawWindow@CWnd@@QAEHPBUtagRECT@@PAVCRgn@@I@Z 00492694     mfc71d:MFC71D.DLL
 0002:00000698       __imp_?SetIcon@CStatic@@QAEPAUHICON__@@PAU2@@Z 00492698     mfc71d:MFC71D.DLL
 0002:0000069c       __imp_?SetPaneText@CStatusBar@@QAEHHPBDH@Z 0049269c     mfc71d:MFC71D.DLL
 0002:000006a0       __imp_?StepIt@CProgressCtrl@@QAEHXZ 004926a0     mfc71d:MFC71D.DLL
 0002:000006a4       __imp_?OnSize@CFrameWnd@@IAEXIHH@Z 004926a4     mfc71d:MFC71D.DLL
 0002:000006a8       __imp_?SetForegroundWindow@CWnd@@QAEHXZ 004926a8     mfc71d:MFC71D.DLL
 0002:000006ac       __imp_?OnClose@CFrameWnd@@IAEXXZ 004926ac     mfc71d:MFC71D.DLL
 0002:000006b0       __imp_?ReleaseBuffer@?$CSimpleStringT@D$00@ATL@@QAEXH@Z 004926b0     mfc71d:MFC71D.DLL
 0002:000006b4       __imp_?SetTimer@CWnd@@QAEIIIP6GXPAUHWND__@@IIK@Z@Z 004926b4     mfc71d:MFC71D.DLL
 0002:000006b8       __imp_?Listen@CAsyncSocket@@QAEHH@Z 004926b8     mfc71d:MFC71D.DLL
 0002:000006bc       __imp_?Create@CAsyncSocket@@QAEHIHJPBD@Z 004926bc     mfc71d:MFC71D.DLL
 0002:000006c0       __imp_??4?$CStringT@DV?$StrTraitMFC_DLL@DV?$ChTraitsCRT@D@ATL@@@@@ATL@@QAEAAV01@ABV01@@Z 004926c0     mfc71d:MFC71D.DLL
 0002:000006c4       __imp_?PressButton@CToolBarCtrl@@QAEHHH@Z 004926c4     mfc71d:MFC71D.DLL
 0002:000006c8       __imp_?GetToolBarCtrl@CToolBar@@QBEAAVCToolBarCtrl@@XZ 004926c8     mfc71d:MFC71D.DLL
 0002:000006cc       __imp_?CheckMenuItem@CMenu@@QAEIII@Z 004926cc     mfc71d:MFC71D.DLL
 0002:000006d0       __imp_?GetMenu@CWnd@@QBEPAVCMenu@@XZ 004926d0     mfc71d:MFC71D.DLL
 0002:000006d4       __imp_?RecalcLayout@CFrameWnd@@UAEXH@Z 004926d4     mfc71d:MFC71D.DLL
 0002:000006d8       __imp_?StringLength@?$CSimpleStringT@D$00@ATL@@SAHPBD@Z 004926d8     mfc71d:MFC71D.DLL
 0002:000006dc       __imp_??1CObList@@UAE@XZ   004926dc     mfc71d:MFC71D.DLL
 0002:000006e0       __imp_?RemoveAt@CObList@@QAEXPAU__POSITION@@@Z 004926e0     mfc71d:MFC71D.DLL
 0002:000006e4       __imp_?Find@CObList@@QBEPAU__POSITION@@PAVCObject@@PAU2@@Z 004926e4     mfc71d:MFC71D.DLL
 0002:000006e8       __imp_?GetHeadPosition@CObList@@QBEPAU__POSITION@@XZ 004926e8     mfc71d:MFC71D.DLL
 0002:000006ec       __imp_?SetThreadPriority@CWinThread@@QAEHH@Z 004926ec     mfc71d:MFC71D.DLL
 0002:000006f0       __imp_?Dump@CObList@@UBEXAAVCDumpContext@@@Z 004926f0     mfc71d:MFC71D.DLL
 0002:000006f4       __imp_?AssertValid@CObList@@UBEXXZ 004926f4     mfc71d:MFC71D.DLL
 0002:000006f8       __imp_?Serialize@CObList@@UAEXAAVCArchive@@@Z 004926f8     mfc71d:MFC71D.DLL
 0002:000006fc       __imp_?GetRuntimeClass@CObList@@UBEPAUCRuntimeClass@@XZ 004926fc     mfc71d:MFC71D.DLL
 0002:00000700       __imp_?AddTail@CObList@@QAEPAU__POSITION@@PAVCObject@@@Z 00492700     mfc71d:MFC71D.DLL
 0002:00000704       __imp_?GetNext@CObList@@QAEAAPAVCObject@@AAPAU__POSITION@@@Z 00492704     mfc71d:MFC71D.DLL
 0002:00000708       __imp_?GetAt@CObList@@QAEAAPAVCObject@@PAU__POSITION@@@Z 00492708     mfc71d:MFC71D.DLL
 0002:0000070c       __imp_??0CObList@@QAE@H@Z  0049270c     mfc71d:MFC71D.DLL
 0002:00000710       __imp_?GetThisMessageMap@CPropertyPage@@KGPBUAFX_MSGMAP@@XZ 00492710     mfc71d:MFC71D.DLL
 0002:00000714       __imp_?GetThisClass@CPropertyPage@@SGPAUCRuntimeClass@@XZ 00492714     mfc71d:MFC71D.DLL
 0002:00000718       __imp_?OnWizardFinish@CPropertyPage@@UAEHXZ 00492718     mfc71d:MFC71D.DLL
 0002:0000071c       __imp_?OnWizardNext@CPropertyPage@@UAEJXZ 0049271c     mfc71d:MFC71D.DLL
 0002:00000720       __imp_?OnWizardBack@CPropertyPage@@UAEJXZ 00492720     mfc71d:MFC71D.DLL
 0002:00000724       __imp_?OnQueryCancel@CPropertyPage@@UAEHXZ 00492724     mfc71d:MFC71D.DLL
 0002:00000728       __imp_?OnKillActive@CPropertyPage@@UAEHXZ 00492728     mfc71d:MFC71D.DLL
 0002:0000072c       __imp_?OnSetActive@CPropertyPage@@UAEHXZ 0049272c     mfc71d:MFC71D.DLL
 0002:00000730       __imp_?OnReset@CPropertyPage@@UAEXXZ 00492730     mfc71d:MFC71D.DLL
 0002:00000734       __imp_?OnApply@CPropertyPage@@UAEHXZ 00492734     mfc71d:MFC71D.DLL
 0002:00000738       __imp_?OnCancel@CPropertyPage@@UAEXXZ 00492738     mfc71d:MFC71D.DLL
 0002:0000073c       __imp_?OnOK@CPropertyPage@@UAEXXZ 0049273c     mfc71d:MFC71D.DLL
 0002:00000740       __imp_?PreTranslateMessage@CPropertyPage@@MAEHPAUtagMSG@@@Z 00492740     mfc71d:MFC71D.DLL
 0002:00000744       __imp_?OnNotify@CPropertyPage@@MAEHIJPAJ@Z 00492744     mfc71d:MFC71D.DLL
 0002:00000748       __imp_?Dump@CPropertyPage@@UBEXAAVCDumpContext@@@Z 00492748     mfc71d:MFC71D.DLL
 0002:0000074c       __imp_?AssertValid@CPropertyPage@@UBEXXZ 0049274c     mfc71d:MFC71D.DLL
 0002:00000750       __imp_??1CIPAddressCtrl@@UAE@XZ 00492750     mfc71d:MFC71D.DLL
 0002:00000754       __imp_??1CSliderCtrl@@UAE@XZ 00492754     mfc71d:MFC71D.DLL
 0002:00000758       __imp_??1CPropertyPage@@UAE@XZ 00492758     mfc71d:MFC71D.DLL
 0002:0000075c       __imp_??0CIPAddressCtrl@@QAE@XZ 0049275c     mfc71d:MFC71D.DLL
 0002:00000760       __imp_??0CSliderCtrl@@QAE@XZ 00492760     mfc71d:MFC71D.DLL
 0002:00000764       __imp_??0CPropertyPage@@QAE@IIK@Z 00492764     mfc71d:MFC71D.DLL
 0002:00000768       __imp_?DDX_Text@@YGXPAVCDataExchange@@HAAI@Z 00492768     mfc71d:MFC71D.DLL
 0002:0000076c       __imp_?SetTicFreq@CSliderCtrl@@QAEXH@Z 0049276c     mfc71d:MFC71D.DLL
 0002:00000770       __imp_?SetRange@CSliderCtrl@@QAEXHHH@Z 00492770     mfc71d:MFC71D.DLL
 0002:00000774       __imp_?SetPos@CSliderCtrl@@QAEXH@Z 00492774     mfc71d:MFC71D.DLL
 0002:00000778       __imp_?SetWindowTextA@CWnd@@QAEXPBD@Z 00492778     mfc71d:MFC71D.DLL
 0002:0000077c       __imp_?GetPos@CSliderCtrl@@QBEHXZ 0049277c     mfc71d:MFC71D.DLL
 0002:00000780       __imp_?GetWindowTextA@CWnd@@QBEHPADH@Z 00492780     mfc71d:MFC71D.DLL
 0002:00000784       __imp_?OnHScroll@CWnd@@IAEXIIPAVCScrollBar@@@Z 00492784     mfc71d:MFC71D.DLL
 0002:00000788       __imp_??1CSpinButtonCtrl@@UAE@XZ 00492788     mfc71d:MFC71D.DLL
 0002:0000078c       __imp_??1CListBox@@UAE@XZ  0049278c     mfc71d:MFC71D.DLL
 0002:00000790       __imp_??0CSpinButtonCtrl@@QAE@XZ 00492790     mfc71d:MFC71D.DLL
 0002:00000794       __imp_??0CListBox@@QAE@XZ  00492794     mfc71d:MFC71D.DLL
 0002:00000798       __imp_?DDX_Check@@YGXPAVCDataExchange@@HAAH@Z 00492798     mfc71d:MFC71D.DLL
 0002:0000079c       __imp_?DDV_MinMaxUInt@@YGXPAVCDataExchange@@III@Z 0049279c     mfc71d:MFC71D.DLL
 0002:000007a0       __imp_?InsertString@CListBox@@QAEHHPBD@Z 004927a0     mfc71d:MFC71D.DLL
 0002:000007a4       __imp_?ResetContent@CListBox@@QAEXXZ 004927a4     mfc71d:MFC71D.DLL
 0002:000007a8       __imp_?SetPos@CSpinButtonCtrl@@QAEHH@Z 004927a8     mfc71d:MFC71D.DLL
 0002:000007ac       __imp_?SetRange@CSpinButtonCtrl@@QAEXFF@Z 004927ac     mfc71d:MFC71D.DLL
 0002:000007b0       __imp_?SetBase@CSpinButtonCtrl@@QAEHH@Z 004927b0     mfc71d:MFC71D.DLL
 0002:000007b4       __imp_?GetCurSel@CListBox@@QBEHXZ 004927b4     mfc71d:MFC71D.DLL
 0002:000007b8       __imp_?DeleteString@CListBox@@QAEHI@Z 004927b8     mfc71d:MFC71D.DLL
 0002:000007bc       __imp_?SetCurSel@CListBox@@QAEHH@Z 004927bc     mfc71d:MFC71D.DLL
 0002:000007c0       __imp_?DDX_Text@@YGXPAVCDataExchange@@HAAH@Z 004927c0     mfc71d:MFC71D.DLL
 0002:000007c4       __imp_?SetDlgItemTextA@CWnd@@QAEXHPBD@Z 004927c4     mfc71d:MFC71D.DLL
 0002:000007c8       __imp_?GetBase@CSpinButtonCtrl@@QBEIXZ 004927c8     mfc71d:MFC71D.DLL
 0002:000007cc       __imp_?Connect@CAsyncSocket@@QAEHPBDI@Z 004927cc     mfc71d:MFC71D.DLL
 0002:000007d0       __imp_?GetUpperBound@CStringArray@@QBEHXZ 004927d0     mfc71d:MFC71D.DLL
 0002:000007d4       __imp_?GetThisMessageMap@CWinApp@@KGPBUAFX_MSGMAP@@XZ 004927d4     mfc71d:MFC71D.DLL
 0002:000007d8       __imp_?LoadSysPolicies@CWinApp@@UAEHXZ 004927d8     mfc71d:MFC71D.DLL
 0002:000007dc       __imp_?LoadAppLangResourceDLL@CWinApp@@UAEPAUHINSTANCE__@@XZ 004927dc     mfc71d:MFC71D.DLL
 0002:000007e0       __imp_?WinHelpInternal@CWinApp@@UAEXKI@Z 004927e0     mfc71d:MFC71D.DLL
 0002:000007e4       __imp_?HtmlHelpA@CWinApp@@UAEXKI@Z 004927e4     mfc71d:MFC71D.DLL
 0002:000007e8       __imp_?WinHelpA@CWinApp@@UAEXKI@Z 004927e8     mfc71d:MFC71D.DLL
 0002:000007ec       __imp_?OnDDECommand@CWinApp@@UAEHPAD@Z 004927ec     mfc71d:MFC71D.DLL
 0002:000007f0       __imp_?DoWaitCursor@CWinApp@@UAEXH@Z 004927f0     mfc71d:MFC71D.DLL
 0002:000007f4       __imp_?DoMessageBox@CWinApp@@UAEHPBDII@Z 004927f4     mfc71d:MFC71D.DLL
 0002:000007f8       __imp_?SaveAllModified@CWinApp@@UAEHXZ 004927f8     mfc71d:MFC71D.DLL
 0002:000007fc       __imp_?InitApplication@CWinApp@@UAEHXZ 004927fc     mfc71d:MFC71D.DLL
 0002:00000800       __imp_?AddToRecentFileList@CWinApp@@UAEXPBD@Z 00492800     mfc71d:MFC71D.DLL
 0002:00000804       __imp_?OpenDocumentFile@CWinApp@@UAEPAVCDocument@@PBD@Z 00492804     mfc71d:MFC71D.DLL
 0002:00000808       __imp_?Unregister@CWinApp@@UAEHXZ 00492808     mfc71d:MFC71D.DLL
 0002:0000080c       __imp_?Register@CWinApp@@UAEHXZ 0049280c     mfc71d:MFC71D.DLL
 0002:00000810       __imp_?InitLibId@CWinApp@@UAEXXZ 00492810     mfc71d:MFC71D.DLL
 0002:00000814       __imp_?ProcessWndProcException@CWinApp@@UAEJPAVCException@@PBUtagMSG@@@Z 00492814     mfc71d:MFC71D.DLL
 0002:00000818       __imp_?OnIdle@CWinApp@@UAEHJ@Z 00492818     mfc71d:MFC71D.DLL
 0002:0000081c       __imp_?Run@CWinApp@@UAEHXZ 0049281c     mfc71d:MFC71D.DLL
 0002:00000820       __imp_?Dump@CWinApp@@UBEXAAVCDumpContext@@@Z 00492820     mfc71d:MFC71D.DLL
 0002:00000824       __imp_?AssertValid@CWinApp@@UBEXXZ 00492824     mfc71d:MFC71D.DLL
 0002:00000828       __imp_?GetRuntimeClass@CWinApp@@UBEPAUCRuntimeClass@@XZ 00492828     mfc71d:MFC71D.DLL
 0002:0000082c       __imp_??1CWinApp@@UAE@XZ   0049282c     mfc71d:MFC71D.DLL
 0002:00000830       __imp_??0CWinApp@@QAE@PBD@Z 00492830     mfc71d:MFC71D.DLL
 0002:00000834       __imp_?UpdateWindow@CWnd@@QAEXXZ 00492834     mfc71d:MFC71D.DLL
 0002:00000838       __imp_?ProcessShellCommand@CWinApp@@QAEHAAVCCommandLineInfo@@@Z 00492838     mfc71d:MFC71D.DLL
 0002:0000083c       __imp_?AddDocTemplate@CWinApp@@QAEXPAVCDocTemplate@@@Z 0049283c     mfc71d:MFC71D.DLL
 0002:00000840       __imp_??0CSingleDocTemplate@@QAE@IPAUCRuntimeClass@@00@Z 00492840     mfc71d:MFC71D.DLL
 0002:00000844       __imp_?Enable3dControls@CWinApp@@IAEHXZ 00492844     mfc71d:MFC71D.DLL
 0002:00000848       __imp_?AfxEnableControlContainer@@YAXPAVCOccManager@@@Z 00492848     mfc71d:MFC71D.DLL
 0002:0000084c       __imp_??1CCommandLineInfo@@UAE@XZ 0049284c     mfc71d:MFC71D.DLL
 0002:00000850       __imp_?ParseCommandLine@CWinApp@@QAEXAAVCCommandLineInfo@@@Z 00492850     mfc71d:MFC71D.DLL
 0002:00000854       __imp_??0CCommandLineInfo@@QAE@XZ 00492854     mfc71d:MFC71D.DLL
 0002:00000858       __imp_?LoadCursorA@CWinApp@@QBEPAUHICON__@@I@Z 00492858     mfc71d:MFC71D.DLL
 0002:0000085c       __imp_?AfxGetApp@@YGPAVCWinApp@@XZ 0049285c     mfc71d:MFC71D.DLL
 0002:00000860       __imp_?ExitInstance@CWinApp@@UAEHXZ 00492860     mfc71d:MFC71D.DLL
 0002:00000864       __imp_?GetThisMessageMap@CDocument@@KGPBUAFX_MSGMAP@@XZ 00492864     mfc71d:MFC71D.DLL
 0002:00000868       __imp_?GetThisClass@CDocument@@SGPAUCRuntimeClass@@XZ 00492868     mfc71d:MFC71D.DLL
 0002:0000086c       __imp_?OnIdle@CDocument@@UAEXXZ 0049286c     mfc71d:MFC71D.DLL
 0002:00000870       __imp_?GetDefaultAccelerator@CDocument@@UAEPAUHACCEL__@@XZ 00492870     mfc71d:MFC71D.DLL
 0002:00000874       __imp_?GetDefaultMenu@CDocument@@UAEPAUHMENU__@@XZ 00492874     mfc71d:MFC71D.DLL
 0002:00000878       __imp_?UpdateFrameCounts@CDocument@@UAEXXZ 00492878     mfc71d:MFC71D.DLL
 0002:0000087c       __imp_?DoFileSave@CDocument@@UAEHXZ 0049287c     mfc71d:MFC71D.DLL
 0002:00000880       __imp_?DoSave@CDocument@@UAEHPBDH@Z 00492880     mfc71d:MFC71D.DLL
 0002:00000884       __imp_?PreCloseFrame@CDocument@@UAEXPAVCFrameWnd@@@Z 00492884     mfc71d:MFC71D.DLL
 0002:00000888       __imp_?SaveModified@CDocument@@UAEHXZ 00492888     mfc71d:MFC71D.DLL
 0002:0000088c       __imp_?CanCloseFrame@CDocument@@UAEHPAVCFrameWnd@@@Z 0049288c     mfc71d:MFC71D.DLL
 0002:00000890       __imp_?ReleaseFile@CDocument@@UAEXPAVCFile@@H@Z 00492890     mfc71d:MFC71D.DLL
 0002:00000894       __imp_?GetFile@CDocument@@UAEPAVCFile@@PBDIPAVCFileException@@@Z 00492894     mfc71d:MFC71D.DLL
 0002:00000898       __imp_?ReportSaveLoadException@CDocument@@UAEXPBDPAVCException@@HI@Z 00492898     mfc71d:MFC71D.DLL
 0002:0000089c       __imp_?OnCloseDocument@CDocument@@UAEXXZ 0049289c     mfc71d:MFC71D.DLL
 0002:000008a0       __imp_?OnSaveDocument@CDocument@@UAEHPBD@Z 004928a0     mfc71d:MFC71D.DLL
 0002:000008a4       __imp_?OnOpenDocument@CDocument@@UAEHPBD@Z 004928a4     mfc71d:MFC71D.DLL
 0002:000008a8       __imp_?OnNewDocument@CDocument@@UAEHXZ 004928a8     mfc71d:MFC71D.DLL
 0002:000008ac       __imp_?DeleteContents@CDocument@@UAEXXZ 004928ac     mfc71d:MFC71D.DLL
 0002:000008b0       __imp_?OnChangedViewList@CDocument@@UAEXXZ 004928b0     mfc71d:MFC71D.DLL
 0002:000008b4       __imp_?GetNextView@CDocument@@UBEPAVCView@@AAPAU__POSITION@@@Z 004928b4     mfc71d:MFC71D.DLL
 0002:000008b8       __imp_?GetFirstViewPosition@CDocument@@UBEPAU__POSITION@@XZ 004928b8     mfc71d:MFC71D.DLL
 0002:000008bc       __imp_?SetModifiedFlag@CDocument@@UAEXH@Z 004928bc     mfc71d:MFC71D.DLL
 0002:000008c0       __imp_?IsModified@CDocument@@UAEHXZ 004928c0     mfc71d:MFC71D.DLL
 0002:000008c4       __imp_?SetPathName@CDocument@@UAEXPBDH@Z 004928c4     mfc71d:MFC71D.DLL
 0002:000008c8       __imp_?SetTitle@CDocument@@UAEXPBD@Z 004928c8     mfc71d:MFC71D.DLL
 0002:000008cc       __imp_?OnFinalRelease@CDocument@@UAEXXZ 004928cc     mfc71d:MFC71D.DLL
 0002:000008d0       __imp_?OnCmdMsg@CDocument@@UAEHIHPAXPAUAFX_CMDHANDLERINFO@@@Z 004928d0     mfc71d:MFC71D.DLL
 0002:000008d4       __imp_??0CDocument@@QAE@XZ 004928d4     mfc71d:MFC71D.DLL
 0002:000008d8       __imp_??1CDocument@@UAE@XZ 004928d8     mfc71d:MFC71D.DLL
 0002:000008dc       __imp_?AssertValid@CDocument@@UBEXXZ 004928dc     mfc71d:MFC71D.DLL
 0002:000008e0       __imp_?Dump@CDocument@@UBEXAAVCDumpContext@@@Z 004928e0     mfc71d:MFC71D.DLL
 0002:000008e4       __imp_?OnDraw@CCtrlView@@MAEXPAVCDC@@@Z 004928e4     mfc71d:MFC71D.DLL
 0002:000008e8       __imp_?IsKindOf@CObject@@QBEHPBUCRuntimeClass@@@Z 004928e8     mfc71d:MFC71D.DLL
 0002:000008ec       __imp_?PostMessageA@CWnd@@QAEHIIJ@Z 004928ec     mfc71d:MFC71D.DLL
 0002:000008f0       __imp_?SetItemData@CListCtrl@@QAEHHK@Z 004928f0     mfc71d:MFC71D.DLL
 0002:000008f4       __imp_?GetItemData@CListCtrl@@QBEKH@Z 004928f4     mfc71d:MFC71D.DLL
 0002:000008f8       __imp_??1CFile@@UAE@XZ     004928f8     mfc71d:MFC71D.DLL
 0002:000008fc       __imp_?AfxGetModuleState@@YGPAVAFX_MODULE_STATE@@XZ 004928fc     mfc71d:MFC71D.DLL
 0002:00000900       __imp_?Close@CFile@@UAEXXZ 00492900     mfc71d:MFC71D.DLL
 0002:00000904       __imp_?Read@CFile@@UAEIPAXI@Z 00492904     mfc71d:MFC71D.DLL
 0002:00000908       __imp_?GetErrorMessage@CFileException@@UAEHPADIPAI@Z 00492908     mfc71d:MFC71D.DLL
 0002:0000090c       __imp_?Open@CFile@@UAEHPBDIPAVCFileException@@@Z 0049290c     mfc71d:MFC71D.DLL
 0002:00000910       __imp_??0CFileException@@QAE@HJPBD@Z 00492910     mfc71d:MFC71D.DLL
 0002:00000914       __imp_??0CFile@@QAE@XZ     00492914     mfc71d:MFC71D.DLL
 0002:00000918       __imp_?GetThisMessageMap@CWnd@@KGPBUAFX_MSGMAP@@XZ 00492918     mfc71d:MFC71D.DLL
 0002:0000091c       __imp_?Dump@CWnd@@UBEXAAVCDumpContext@@@Z 0049291c     mfc71d:MFC71D.DLL
 0002:00000920       __imp_?AssertValid@CWnd@@UBEXXZ 00492920     mfc71d:MFC71D.DLL
 0002:00000924       __imp_?GetRuntimeClass@CWnd@@UBEPAUCRuntimeClass@@XZ 00492924     mfc71d:MFC71D.DLL
 0002:00000928       __imp_??1CWnd@@UAE@XZ      00492928     mfc71d:MFC71D.DLL
 0002:0000092c       __imp_??0CBitmap@@QAE@XZ   0049292c     mfc71d:MFC71D.DLL
 0002:00000930       __imp_??0CWnd@@QAE@XZ      00492930     mfc71d:MFC71D.DLL
 0002:00000934       __imp_??1CBitmap@@UAE@XZ   00492934     mfc71d:MFC71D.DLL
 0002:00000938       __imp_?AfxRegisterWndClass@@YGPBDIPAUHICON__@@PAUHBRUSH__@@0@Z 00492938     mfc71d:MFC71D.DLL
 0002:0000093c       __imp_?LoadStandardCursor@CWinApp@@QBEPAUHICON__@@PBD@Z 0049293c     mfc71d:MFC71D.DLL
 0002:00000940       __imp_?GetBitmap@CBitmap@@QAEHPAUtagBITMAP@@@Z 00492940     mfc71d:MFC71D.DLL
 0002:00000944       __imp_?LoadBitmapA@CBitmap@@QAEHI@Z 00492944     mfc71d:MFC71D.DLL
 0002:00000948       __imp_?AfxGetMainWnd@@YGPAVCWnd@@XZ 00492948     mfc71d:MFC71D.DLL
 0002:0000094c       __imp_?CenterWindow@CWnd@@QAEXPAV1@@Z 0049294c     mfc71d:MFC71D.DLL
 0002:00000950       __imp_?OnCreate@CWnd@@IAEHPAUtagCREATESTRUCTA@@@Z 00492950     mfc71d:MFC71D.DLL
 0002:00000954       __imp_?BitBlt@CDC@@QAEHHHHHPAV1@HHK@Z 00492954     mfc71d:MFC71D.DLL
 0002:00000958       __imp_?SelectObject@CDC@@QAEPAVCBitmap@@PAV2@@Z 00492958     mfc71d:MFC71D.DLL
 0002:0000095c       __imp_??1CPaintDC@@UAE@XZ  0049295c     mfc71d:MFC71D.DLL
 0002:00000960       __imp_??1CDC@@UAE@XZ       00492960     mfc71d:MFC71D.DLL
 0002:00000964       __imp_?CreateCompatibleDC@CDC@@QAEHPAV1@@Z 00492964     mfc71d:MFC71D.DLL
 0002:00000968       __imp_??0CDC@@QAE@XZ       00492968     mfc71d:MFC71D.DLL
 0002:0000096c       __imp_??0CPaintDC@@QAE@PAVCWnd@@@Z 0049296c     mfc71d:MFC71D.DLL
 0002:00000970       __imp_?GetFilePath@CFileFind@@UBE?AV?$CStringT@DV?$StrTraitMFC_DLL@DV?$ChTraitsCRT@D@ATL@@@@@ATL@@XZ 00492970     mfc71d:MFC71D.DLL
 0002:00000974       __imp_?ClientToScreen@CWnd@@QBEXPAUtagRECT@@@Z 00492974     mfc71d:MFC71D.DLL
 0002:00000978       __imp_?GetItemRect@CListCtrl@@QBEHHPAUtagRECT@@I@Z 00492978     mfc71d:MFC71D.DLL
 0002:0000097c       __imp_?GetColumnWidth@CListCtrl@@QBEHH@Z 0049297c     mfc71d:MFC71D.DLL
 0002:00000980       __imp_?SetColumnWidth@CListCtrl@@QAEHHH@Z 00492980     mfc71d:MFC71D.DLL
 0002:00000984       __imp_?GetItemCount@CHeaderCtrl@@QBEHXZ 00492984     mfc71d:MFC71D.DLL
 0002:00000988       __imp_?GetHeaderCtrl@CListCtrl@@QAEPAVCHeaderCtrl@@XZ 00492988     mfc71d:MFC71D.DLL
 0002:0000098c       __imp_?Close@CStdioFile@@UAEXXZ 0049298c     mfc71d:MFC71D.DLL
 0002:00000990       __imp_?WriteString@CStdioFile@@UAEXPBD@Z 00492990     mfc71d:MFC71D.DLL
 0002:00000994       __imp_?Open@CStdioFile@@UAEHPBDIPAVCFileException@@@Z 00492994     mfc71d:MFC71D.DLL
 0002:00000998       __imp_??1CStdioFile@@UAE@XZ 00492998     mfc71d:MFC71D.DLL
 0002:0000099c       __imp_??0CStdioFile@@QAE@XZ 0049299c     mfc71d:MFC71D.DLL
 0002:000009a0       __imp_?AfxThrowOleException@@YGXJ@Z 004929a0     mfc71d:MFC71D.DLL
 0002:000009a4       __imp_?AfxThrowMemoryException@@YGXXZ 004929a4     mfc71d:MFC71D.DLL
 0002:000009a8       __imp_?Create@CButton@@UAEHPBDKABUtagRECT@@PAVCWnd@@I@Z 004929a8     mfc71d:MFC71D.DLL
 0002:000009ac       __imp_?OnChildNotify@CButton@@MAEHIIJPAJ@Z 004929ac     mfc71d:MFC71D.DLL
 0002:000009b0       __imp_?GetRuntimeClass@CButton@@UBEPAUCRuntimeClass@@XZ 004929b0     mfc71d:MFC71D.DLL
 0002:000009b4       __imp_??1CToolTipCtrl@@UAE@XZ 004929b4     mfc71d:MFC71D.DLL
 0002:000009b8       __imp_??1CButton@@UAE@XZ   004929b8     mfc71d:MFC71D.DLL
 0002:000009bc       __imp_??0CToolTipCtrl@@QAE@XZ 004929bc     mfc71d:MFC71D.DLL
 0002:000009c0       __imp_??0CButton@@QAE@XZ   004929c0     mfc71d:MFC71D.DLL
 0002:000009c4       __imp_?AfxFindResourceHandle@@YGPAUHINSTANCE__@@PBD0@Z 004929c4     mfc71d:MFC71D.DLL
 0002:000009c8       __imp_?GetClientRect@CWnd@@QBEXPAUtagRECT@@@Z 004929c8     mfc71d:MFC71D.DLL
 0002:000009cc       __imp_?SetCapture@CWnd@@QAEPAV1@XZ 004929cc     mfc71d:MFC71D.DLL
 0002:000009d0       __imp_?GetCapture@CWnd@@SGPAV1@XZ 004929d0     mfc71d:MFC71D.DLL
 0002:000009d4       __imp_?GetOwner@CWnd@@QBEPAV1@XZ 004929d4     mfc71d:MFC71D.DLL
 0002:000009d8       __imp_?GetActiveWindow@CWnd@@SGPAV1@XZ 004929d8     mfc71d:MFC71D.DLL
 0002:000009dc       __imp_?OnMouseMove@CWnd@@IAEXIVCPoint@@@Z 004929dc     mfc71d:MFC71D.DLL
 0002:000009e0       __imp_?OnKillFocus@CWnd@@IAEXPAV1@@Z 004929e0     mfc71d:MFC71D.DLL
 0002:000009e4       __imp_?OnCaptureChanged@CWnd@@IAEXPAV1@@Z 004929e4     mfc71d:MFC71D.DLL
 0002:000009e8       __imp_?DrawFocusRect@CDC@@QAEXPBUtagRECT@@@Z 004929e8     mfc71d:MFC71D.DLL
 0002:000009ec       __imp_?DrawState@CDC@@QAEHVCPoint@@VCSize@@PBDIHHPAVCBrush@@@Z 004929ec     mfc71d:MFC71D.DLL
 0002:000009f0       __imp_?GetFont@CWnd@@QBEPAVCFont@@XZ 004929f0     mfc71d:MFC71D.DLL
 0002:000009f4       __imp_?GetWindowTextA@CWnd@@QBEXAAV?$CStringT@DV?$StrTraitMFC_DLL@DV?$ChTraitsCRT@D@ATL@@@@@ATL@@@Z 004929f4     mfc71d:MFC71D.DLL
 0002:000009f8       __imp_??1CPen@@UAE@XZ      004929f8     mfc71d:MFC71D.DLL
 0002:000009fc       __imp_?SelectObject@CDC@@QAEPAXPAX@Z 004929fc     mfc71d:MFC71D.DLL
 0002:00000a00       __imp_??BCGdiObject@@QBEPAXXZ 00492a00     mfc71d:MFC71D.DLL
 0002:00000a04       __imp_?LineTo@CDC@@QAEHHH@Z 00492a04     mfc71d:MFC71D.DLL
 0002:00000a08       __imp_?MoveTo@CDC@@QAE?AVCPoint@@HH@Z 00492a08     mfc71d:MFC71D.DLL
 0002:00000a0c       __imp_?SelectObject@CDC@@QAEPAVCPen@@PAV2@@Z 00492a0c     mfc71d:MFC71D.DLL
 0002:00000a10       __imp_??0CPen@@QAE@HHK@Z   00492a10     mfc71d:MFC71D.DLL
 0002:00000a14       __imp_?FillRect@CDC@@QAEXPBUtagRECT@@PAVCBrush@@@Z 00492a14     mfc71d:MFC71D.DLL
 0002:00000a18       __imp_??1CBrush@@UAE@XZ    00492a18     mfc71d:MFC71D.DLL
 0002:00000a1c       __imp_?FrameRect@CDC@@QAEXPBUtagRECT@@PAVCBrush@@@Z 00492a1c     mfc71d:MFC71D.DLL
 0002:00000a20       __imp_??0CBrush@@QAE@K@Z   00492a20     mfc71d:MFC71D.DLL
 0002:00000a24       __imp_?FromHandle@CDC@@SGPAV1@PAUHDC__@@@Z 00492a24     mfc71d:MFC71D.DLL
 0002:00000a28       __imp_?Escape@CDC@@UAEHHHPBDPAX@Z 00492a28     mfc71d:MFC71D.DLL
 0002:00000a2c       __imp_?GrayStringA@CDC@@UAEHPAVCBrush@@P6GHPAUHDC__@@JH@ZJHHHHH@Z 00492a2c     mfc71d:MFC71D.DLL
 0002:00000a30       __imp_?DrawTextExA@CDC@@UAEHPADHPAUtagRECT@@IPAUtagDRAWTEXTPARAMS@@@Z 00492a30     mfc71d:MFC71D.DLL
 0002:00000a34       __imp_?DrawTextA@CDC@@UAEHPBDHPAUtagRECT@@I@Z 00492a34     mfc71d:MFC71D.DLL
 0002:00000a38       __imp_?TabbedTextOutA@CDC@@UAE?AVCSize@@HHPBDHHPAHH@Z 00492a38     mfc71d:MFC71D.DLL
 0002:00000a3c       __imp_?ExtTextOutA@CDC@@UAEHHHIPBUtagRECT@@PBDIPAH@Z 00492a3c     mfc71d:MFC71D.DLL
 0002:00000a40       __imp_?TextOutA@CDC@@UAEHHHPBDH@Z 00492a40     mfc71d:MFC71D.DLL
 0002:00000a44       __imp_?RectVisible@CDC@@UBEHPBUtagRECT@@@Z 00492a44     mfc71d:MFC71D.DLL
 0002:00000a48       __imp_?PtVisible@CDC@@UBEHHH@Z 00492a48     mfc71d:MFC71D.DLL
 0002:00000a4c       __imp_?GetClipBox@CDC@@UBEHPAUtagRECT@@@Z 00492a4c     mfc71d:MFC71D.DLL
 0002:00000a50       __imp_?ScaleWindowExt@CDC@@UAE?AVCSize@@HHHH@Z 00492a50     mfc71d:MFC71D.DLL
 0002:00000a54       __imp_?SetWindowExt@CDC@@UAE?AVCSize@@HH@Z 00492a54     mfc71d:MFC71D.DLL
 0002:00000a58       __imp_?ScaleViewportExt@CDC@@UAE?AVCSize@@HHHH@Z 00492a58     mfc71d:MFC71D.DLL
 0002:00000a5c       __imp_?SetViewportExt@CDC@@UAE?AVCSize@@HH@Z 00492a5c     mfc71d:MFC71D.DLL
 0002:00000a60       __imp_?OffsetViewportOrg@CDC@@UAE?AVCPoint@@HH@Z 00492a60     mfc71d:MFC71D.DLL
 0002:00000a64       __imp_?SetViewportOrg@CDC@@UAE?AVCPoint@@HH@Z 00492a64     mfc71d:MFC71D.DLL
 0002:00000a68       __imp_?SetMapMode@CDC@@UAEHH@Z 00492a68     mfc71d:MFC71D.DLL
 0002:00000a6c       __imp_?SetTextColor@CDC@@UAEKK@Z 00492a6c     mfc71d:MFC71D.DLL
 0002:00000a70       __imp_?SetBkColor@CDC@@UAEKK@Z 00492a70     mfc71d:MFC71D.DLL
 0002:00000a74       __imp_?SelectObject@CDC@@UAEPAVCFont@@PAV2@@Z 00492a74     mfc71d:MFC71D.DLL
 0002:00000a78       __imp_?SelectStockObject@CDC@@UAEPAVCGdiObject@@H@Z 00492a78     mfc71d:MFC71D.DLL
 0002:00000a7c       __imp_?RestoreDC@CDC@@UAEHH@Z 00492a7c     mfc71d:MFC71D.DLL
 0002:00000a80       __imp_?SaveDC@CDC@@UAEHXZ  00492a80     mfc71d:MFC71D.DLL
 0002:00000a84       __imp_?ReleaseOutputDC@CDC@@UAEXXZ 00492a84     mfc71d:MFC71D.DLL
 0002:00000a88       __imp_?ReleaseAttribDC@CDC@@UAEXXZ 00492a88     mfc71d:MFC71D.DLL
 0002:00000a8c       __imp_?SetOutputDC@CDC@@UAEXPAUHDC__@@@Z 00492a8c     mfc71d:MFC71D.DLL
 0002:00000a90       __imp_?SetAttribDC@CDC@@UAEXPAUHDC__@@@Z 00492a90     mfc71d:MFC71D.DLL
 0002:00000a94       __imp_?Dump@CDC@@UBEXAAVCDumpContext@@@Z 00492a94     mfc71d:MFC71D.DLL
 0002:00000a98       __imp_?AssertValid@CDC@@UBEXXZ 00492a98     mfc71d:MFC71D.DLL
 0002:00000a9c       __imp_?GetRuntimeClass@CDC@@UBEPAUCRuntimeClass@@XZ 00492a9c     mfc71d:MFC71D.DLL
 0002:00000aa0       __imp_?SetWindowOrg@CDC@@QAE?AVCPoint@@HH@Z 00492aa0     mfc71d:MFC71D.DLL
 0002:00000aa4       __imp_?CreateCompatibleBitmap@CBitmap@@QAEHPAVCDC@@HH@Z 00492aa4     mfc71d:MFC71D.DLL
 0002:00000aa8       __imp_?IsPrinting@CDC@@QBEHXZ 00492aa8     mfc71d:MFC71D.DLL
 0002:00000aac       __imp_?DrawState@CDC@@QAEHVCPoint@@VCSize@@PAUHICON__@@IPAVCBrush@@@Z 00492aac     mfc71d:MFC71D.DLL
 0002:00000ab0       __imp_?AddTool@CToolTipCtrl@@QAEHPAVCWnd@@PBDPBUtagRECT@@I@Z 00492ab0     mfc71d:MFC71D.DLL
 0002:00000ab4       __imp_?SetButtonStyle@CButton@@QAEXIH@Z 00492ab4     mfc71d:MFC71D.DLL
 0002:00000ab8       __imp_?GetButtonStyle@CButton@@QBEIXZ 00492ab8     mfc71d:MFC71D.DLL
 0002:00000abc       __imp_?OnSetCursor@CWnd@@IAEHPAV1@II@Z 00492abc     mfc71d:MFC71D.DLL
 0002:00000ac0       __imp_?RelayEvent@CToolTipCtrl@@QAEXPAUtagMSG@@@Z 00492ac0     mfc71d:MFC71D.DLL
 0002:00000ac4       __imp_?UpdateTipText@CToolTipCtrl@@QAEXPBDPAVCWnd@@I@Z 00492ac4     mfc71d:MFC71D.DLL
 0002:00000ac8       __imp_?AfxGetInstanceHandle@@YGPAUHINSTANCE__@@XZ 00492ac8     mfc71d:MFC71D.DLL
 0002:00000acc       __imp_?GetThisClass@CButton@@SGPAUCRuntimeClass@@XZ 00492acc     mfc71d:MFC71D.DLL
 0002:00000ad0       __imp_?DrawItem@CButton@@UAEXPAUtagDRAWITEMSTRUCT@@@Z 00492ad0     mfc71d:MFC71D.DLL
 0002:00000ad4       __imp_??1CClientDC@@UAE@XZ 00492ad4     mfc71d:MFC71D.DLL
 0002:00000ad8       __imp_?SetFont@CWnd@@QAEXPAVCFont@@H@Z 00492ad8     mfc71d:MFC71D.DLL
 0002:00000adc       __imp_?GetTextExtent@CDC@@QBE?AVCSize@@ABV?$CStringT@DV?$StrTraitMFC_DLL@DV?$ChTraitsCRT@D@ATL@@@@@ATL@@@Z 00492adc     mfc71d:MFC71D.DLL
 0002:00000ae0       __imp_??0CClientDC@@QAE@PAVCWnd@@@Z 00492ae0     mfc71d:MFC71D.DLL
 0002:00000ae4       __imp_?IsWindowEnabled@CWnd@@QBEHXZ 00492ae4     mfc71d:MFC71D.DLL
 0002:00000ae8       __imp_?GetWindow@CWnd@@QBEPAV1@I@Z 00492ae8     mfc71d:MFC71D.DLL
 0002:00000aec       __imp_?GetCheck@CButton@@QBEHXZ 00492aec     mfc71d:MFC71D.DLL
 0002:00000af0       __imp_?SetCheck@CButton@@QAEXH@Z 00492af0     mfc71d:MFC71D.DLL
 0002:00000af4       __imp_?OnEnable@CWnd@@IAEXH@Z 00492af4     mfc71d:MFC71D.DLL
 0002:00000af8       __imp_?OnSetFocus@CWnd@@IAEXPAV1@@Z 00492af8     mfc71d:MFC71D.DLL
 0002:00000afc       __imp_?GetThisMessageMap@CTreeCtrl@@KGPBUAFX_MSGMAP@@XZ 00492afc     mfc71d:MFC71D.DLL
 0002:00000b00       __imp_?CreateEx@CTreeCtrl@@UAEHKKABUtagRECT@@PAVCWnd@@I@Z 00492b00     mfc71d:MFC71D.DLL
 0002:00000b04       __imp_?Create@CTreeCtrl@@UAEHKABUtagRECT@@PAVCWnd@@I@Z 00492b04     mfc71d:MFC71D.DLL
 0002:00000b08       __imp_??1CImageList@@UAE@XZ 00492b08     mfc71d:MFC71D.DLL
 0002:00000b0c       __imp_??1CDWordArray@@UAE@XZ 00492b0c     mfc71d:MFC71D.DLL
 0002:00000b10       __imp_??0CDWordArray@@QAE@XZ 00492b10     mfc71d:MFC71D.DLL
 0002:00000b14       __imp_?Detach@CImageList@@QAEPAU_IMAGELIST@@XZ 00492b14     mfc71d:MFC71D.DLL
 0002:00000b18       __imp_?GetThisClass@CTreeCtrl@@SGPAUCRuntimeClass@@XZ 00492b18     mfc71d:MFC71D.DLL
 0002:00000b1c       __imp_?Attach@CImageList@@QAEHPAU_IMAGELIST@@@Z 00492b1c     mfc71d:MFC71D.DLL
 0002:00000b20       __imp_?GetImageList@CTreeCtrl@@QBEPAVCImageList@@I@Z 00492b20     mfc71d:MFC71D.DLL
 0002:00000b24       __imp_??1CWaitCursor@@QAE@XZ 00492b24     mfc71d:MFC71D.DLL
 0002:00000b28       __imp_??0CWaitCursor@@QAE@XZ 00492b28     mfc71d:MFC71D.DLL
 0002:00000b2c       __imp_?GetLastWriteTime@CFileFind@@UBEHAAVCTime@ATL@@@Z 00492b2c     mfc71d:MFC71D.DLL
 0002:00000b30       __imp_?Add@CDWordArray@@QAEHK@Z 00492b30     mfc71d:MFC71D.DLL
 0002:00000b34       __imp_?GetLength@CFileFind@@QBE_KXZ 00492b34     mfc71d:MFC71D.DLL
 0002:00000b38       __imp_?IsDots@CFileFind@@UBEHXZ 00492b38     mfc71d:MFC71D.DLL
 0002:00000b3c       __imp_?RemoveAll@CDWordArray@@QAEXXZ 00492b3c     mfc71d:MFC71D.DLL
 0002:00000b40       __imp_?SetAt@?$CSimpleStringT@D$00@ATL@@QAEXHD@Z 00492b40     mfc71d:MFC71D.DLL
 0002:00000b44       __imp_?IsHidden@CFileFind@@QBEHXZ 00492b44     mfc71d:MFC71D.DLL
 0002:00000b48       __imp_?GetParentItem@CTreeCtrl@@QBEPAU_TREEITEM@@PAU2@@Z 00492b48     mfc71d:MFC71D.DLL
 0002:00000b4c       __imp_?GetItemText@CTreeCtrl@@QBE?AV?$CStringT@DV?$StrTraitMFC_DLL@DV?$ChTraitsCRT@D@ATL@@@@@ATL@@PAU_TREEITEM@@@Z 00492b4c     mfc71d:MFC71D.DLL
 0002:00000b50       __imp_?Expand@CTreeCtrl@@QAEHPAU_TREEITEM@@I@Z 00492b50     mfc71d:MFC71D.DLL
 0002:00000b54       __imp_?DeleteItem@CTreeCtrl@@QAEHPAU_TREEITEM@@@Z 00492b54     mfc71d:MFC71D.DLL
 0002:00000b58       __imp_?GetChildItem@CTreeCtrl@@QBEPAU_TREEITEM@@PAU2@@Z 00492b58     mfc71d:MFC71D.DLL
 0002:00000b5c       __imp_?GetNextItem@CTreeCtrl@@QBEPAU_TREEITEM@@PAU2@I@Z 00492b5c     mfc71d:MFC71D.DLL
 0002:00000b60       __imp_?GetItemRect@CTreeCtrl@@QBEHPAU_TREEITEM@@PAUtagRECT@@H@Z 00492b60     mfc71d:MFC71D.DLL
 0002:00000b64       __imp_?DrawItem@CStatic@@UAEXPAUtagDRAWITEMSTRUCT@@@Z 00492b64     mfc71d:MFC71D.DLL
 0002:00000b68       __imp_?Create@CStatic@@UAEHPBDKABUtagRECT@@PAVCWnd@@I@Z 00492b68     mfc71d:MFC71D.DLL
 0002:00000b6c       __imp_?OnChildNotify@CStatic@@MAEHIIJPAJ@Z 00492b6c     mfc71d:MFC71D.DLL
 0002:00000b70       __imp_?GetRuntimeClass@CStatic@@UBEPAUCRuntimeClass@@XZ 00492b70     mfc71d:MFC71D.DLL
 0002:00000b74       __imp_??1CFont@@UAE@XZ     00492b74     mfc71d:MFC71D.DLL
 0002:00000b78       __imp_??0CFont@@QAE@XZ     00492b78     mfc71d:MFC71D.DLL
 0002:00000b7c       __imp_?DeleteObject@CGdiObject@@QAEHXZ 00492b7c     mfc71d:MFC71D.DLL
 0002:00000b80       __imp_??BCFont@@QBEPAUHFONT__@@XZ 00492b80     mfc71d:MFC71D.DLL
 0002:00000b84       __imp_?SetBkMode@CDC@@QAEHH@Z 00492b84     mfc71d:MFC71D.DLL
 0002:00000b88       __imp_?CreateFontIndirectA@CFont@@QAEHPBUtagLOGFONTA@@@Z 00492b88     mfc71d:MFC71D.DLL
 0002:00000b8c       __imp_?GetLogFont@CFont@@QAEHPAUtagLOGFONTA@@@Z 00492b8c     mfc71d:MFC71D.DLL
 0002:00000b90       __imp_?GetStyle@CWnd@@QBEKXZ 00492b90     mfc71d:MFC71D.DLL
 0002:00000b94       __imp_?ReleaseDC@CWnd@@QAEHPAVCDC@@@Z 00492b94     mfc71d:MFC71D.DLL
 0002:00000b98       __imp_?GetDC@CWnd@@QAEPAVCDC@@XZ 00492b98     mfc71d:MFC71D.DLL
 0002:00000b9c       __imp_?CollateNoCase@?$CStringT@DV?$StrTraitMFC_DLL@DV?$ChTraitsCRT@D@ATL@@@@@ATL@@QBEHPBD@Z 00492b9c     mfc71d:MFC71D.DLL
 0002:00000ba0       __imp_?AfxBeginThread@@YGPAVCWinThread@@P6AIPAX@Z0HIKPAU_SECURITY_ATTRIBUTES@@@Z 00492ba0     mfc71d:MFC71D.DLL
 0002:00000ba4       __imp_?GetThisClass@CWnd@@SGPAUCRuntimeClass@@XZ 00492ba4     mfc71d:MFC71D.DLL
 0002:00000ba8       __imp_?AfxGetThreadState@@YGPAV_AFX_THREAD_STATE@@XZ 00492ba8     mfc71d:MFC71D.DLL
 0002:00000bac       __imp_?Dump@CMapPtrToPtr@@UBEXAAVCDumpContext@@@Z 00492bac     mfc71d:MFC71D.DLL
 0002:00000bb0       __imp_?AssertValid@CMapPtrToPtr@@UBEXXZ 00492bb0     mfc71d:MFC71D.DLL
 0002:00000bb4       __imp_?GetRuntimeClass@CMapPtrToPtr@@UBEPAUCRuntimeClass@@XZ 00492bb4     mfc71d:MFC71D.DLL
 0002:00000bb8       __imp_??0CMapPtrToPtr@@QAE@H@Z 00492bb8     mfc71d:MFC71D.DLL
 0002:00000bbc       __imp_??1CMapPtrToPtr@@UAE@XZ 00492bbc     mfc71d:MFC71D.DLL
 0002:00000bc0       __imp_?SetAt@CMapPtrToPtr@@QAEXPAX0@Z 00492bc0     mfc71d:MFC71D.DLL
 0002:00000bc4       __imp_?RemoveKey@CMapPtrToPtr@@QAEHPAX@Z 00492bc4     mfc71d:MFC71D.DLL
 0002:00000bc8       __imp_?Lookup@CMapPtrToPtr@@QBEHPAXAAPAX@Z 00492bc8     mfc71d:MFC71D.DLL
 0002:00000bcc       __imp_?GetThisClass@CCmdTarget@@SGPAUCRuntimeClass@@XZ 00492bcc     mfc71d:MFC71D.DLL
 0002:00000bd0       __imp_?GetMessageMap@CCmdTarget@@MBEPBUAFX_MSGMAP@@XZ 00492bd0     mfc71d:MFC71D.DLL
 0002:00000bd4       __imp_?Dump@CCmdTarget@@UBEXAAVCDumpContext@@@Z 00492bd4     mfc71d:MFC71D.DLL
 0002:00000bd8       __imp_?AssertValid@CCmdTarget@@UBEXXZ 00492bd8     mfc71d:MFC71D.DLL
 0002:00000bdc       __imp_??1CCmdTarget@@UAE@XZ 00492bdc     mfc71d:MFC71D.DLL
 0002:00000be0       __imp_?AfxLoadString@@YGHIPADI@Z 00492be0     mfc71d:MFC71D.DLL
 0002:00000be4       __imp_??0CCmdTarget@@QAE@XZ 00492be4     mfc71d:MFC71D.DLL
 0002:00000be8       __imp_?GetTopLevelParent@CWnd@@QBEPAV1@XZ 00492be8     mfc71d:MFC71D.DLL
 0002:00000bec       __imp_?GetMenuItemID@CMenu@@QBEIH@Z 00492bec     mfc71d:MFC71D.DLL
 0002:00000bf0       __imp_?GetSubMenu@CMenu@@QBEPAV1@H@Z 00492bf0     mfc71d:MFC71D.DLL
 0002:00000bf4       __imp_??1CMenu@@UAE@XZ     00492bf4     mfc71d:MFC71D.DLL
 0002:00000bf8       __imp_?LoadMenuA@CMenu@@QAEHI@Z 00492bf8     mfc71d:MFC71D.DLL
 0002:00000bfc       __imp_??0CMenu@@QAE@XZ     00492bfc     mfc71d:MFC71D.DLL
 0002:00000c00       __imp_?AppendFormat@?$CStringT@DV?$StrTraitMFC_DLL@DV?$ChTraitsCRT@D@ATL@@@@@ATL@@QAAXPBDZZ 00492c00     mfc71d:MFC71D.DLL
 0002:00000c04       __imp_?Trim@?$CStringT@DV?$StrTraitMFC_DLL@DV?$ChTraitsCRT@D@ATL@@@@@ATL@@QAEAAV12@XZ 00492c04     mfc71d:MFC71D.DLL
 0002:00000c08       __imp_?put_accValue@CWnd@@UAEJUtagVARIANT@@PA_W@Z 00492c08     mfc71d:MFC71D.DLL
 0002:00000c0c       __imp_?put_accName@CWnd@@UAEJUtagVARIANT@@PA_W@Z 00492c0c     mfc71d:MFC71D.DLL
 0002:00000c10       __imp_?get_accDefaultAction@CWnd@@UAEJUtagVARIANT@@PAPA_W@Z 00492c10     mfc71d:MFC71D.DLL
 0002:00000c14       __imp_?get_accKeyboardShortcut@CWnd@@UAEJUtagVARIANT@@PAPA_W@Z 00492c14     mfc71d:MFC71D.DLL
 0002:00000c18       __imp_?get_accHelpTopic@CWnd@@UAEJPAPA_WUtagVARIANT@@PAJ@Z 00492c18     mfc71d:MFC71D.DLL
 0002:00000c1c       __imp_?get_accHelp@CWnd@@UAEJUtagVARIANT@@PAPA_W@Z 00492c1c     mfc71d:MFC71D.DLL
 0002:00000c20       __imp_?get_accDescription@CWnd@@UAEJUtagVARIANT@@PAPA_W@Z 00492c20     mfc71d:MFC71D.DLL
 0002:00000c24       __imp_?get_accValue@CWnd@@UAEJUtagVARIANT@@PAPA_W@Z 00492c24     mfc71d:MFC71D.DLL
 0002:00000c28       __imp_?get_accName@CWnd@@UAEJUtagVARIANT@@PAPA_W@Z 00492c28     mfc71d:MFC71D.DLL
 0002:00000c2c       __imp_??4?$CStringT@DV?$StrTraitMFC_DLL@DV?$ChTraitsCRT@D@ATL@@@@@ATL@@QAEAAV01@PBG@Z 00492c2c     mfc71d:MFC71D.DLL
 0002:00000c2c       __imp_??4?$CStringT@DV?$StrTraitMFC_DLL@DV?$ChTraitsCRT@D@ATL@@@@@ATL@@QAEAAV01@PB_W@Z 00492c2c     mfc71d:MFC71D.DLL
 0002:00000c30       __imp_?GetFirstSelectedItemPosition@CListCtrl@@QBEPAU__POSITION@@XZ 00492c30     mfc71d:MFC71D.DLL
 0002:00000c34       __imp_?GetNextSelectedItem@CListCtrl@@QBEHAAPAU__POSITION@@@Z 00492c34     mfc71d:MFC71D.DLL
 0002:00000c38       __imp_?GetItemText@CListCtrl@@QBE?AV?$CStringT@DV?$StrTraitMFC_DLL@DV?$ChTraitsCRT@D@ATL@@@@@ATL@@HH@Z 00492c38     mfc71d:MFC71D.DLL
 0002:00000c3c       __imp_?OnOK@CDialog@@MAEXXZ 00492c3c     mfc71d:MFC71D.DLL
 0002:00000c40       __imp_?DoDataExchange@CWnd@@MAEXPAVCDataExchange@@@Z 00492c40     mfc71d:MFC71D.DLL
 0002:00000c44       __imp_?DDX_Control@@YGXPAVCDataExchange@@HAAVCWnd@@@Z 00492c44     mfc71d:MFC71D.DLL
 0002:00000c48       __imp_??3CObject@@SGXPAX@Z 00492c48     mfc71d:MFC71D.DLL
 0002:00000c4c       __imp_??0CDialog@@QAE@IPAVCWnd@@@Z 00492c4c     mfc71d:MFC71D.DLL
 0002:00000c50       __imp_??0CListCtrl@@QAE@XZ 00492c50     mfc71d:MFC71D.DLL
 0002:00000c54       __imp_??0CComboBox@@QAE@XZ 00492c54     mfc71d:MFC71D.DLL
 0002:00000c58       __imp_??4?$CStringT@DV?$StrTraitMFC_DLL@DV?$ChTraitsCRT@D@ATL@@@@@ATL@@QAEAAV01@PBD@Z 00492c58     mfc71d:MFC71D.DLL
 0002:00000c5c       __imp_??1CDialog@@UAE@XZ   00492c5c     mfc71d:MFC71D.DLL
 0002:00000c60       __imp_??1CListCtrl@@UAE@XZ 00492c60     mfc71d:MFC71D.DLL
 0002:00000c64       __imp_??1CComboBox@@UAE@XZ 00492c64     mfc71d:MFC71D.DLL
 0002:00000c68       __imp_?GetRuntimeClass@CDialog@@UBEPAUCRuntimeClass@@XZ 00492c68     mfc71d:MFC71D.DLL
 0002:00000c6c       __imp_?Serialize@CObject@@UAEXAAVCArchive@@@Z 00492c6c     mfc71d:MFC71D.DLL
 0002:00000c70       __imp_?AssertValid@CDialog@@UBEXXZ 00492c70     mfc71d:MFC71D.DLL
 0002:00000c74       __imp_?Dump@CDialog@@UBEXAAVCDumpContext@@@Z 00492c74     mfc71d:MFC71D.DLL
 0002:00000c78       __imp_?OnCmdMsg@CDialog@@UAEHIHPAXPAUAFX_CMDHANDLERINFO@@@Z 00492c78     mfc71d:MFC71D.DLL
 0002:00000c7c       __imp_?OnFinalRelease@CWnd@@UAEXXZ 00492c7c     mfc71d:MFC71D.DLL
 0002:00000c80       __imp_?IsInvokeAllowed@CCmdTarget@@UAEHJ@Z 00492c80     mfc71d:MFC71D.DLL
 0002:00000c84       __imp_?GetDispatchIID@CCmdTarget@@UAEHPAU_GUID@@@Z 00492c84     mfc71d:MFC71D.DLL
 0002:00000c88       __imp_?GetTypeInfoCount@CCmdTarget@@UAEIXZ 00492c88     mfc71d:MFC71D.DLL
 0002:00000c8c       __imp_?GetTypeLibCache@CCmdTarget@@UAEPAVCTypeLibCache@@XZ 00492c8c     mfc71d:MFC71D.DLL
 0002:00000c90       __imp_?GetTypeLib@CCmdTarget@@UAEJKPAPAUITypeLib@@@Z 00492c90     mfc71d:MFC71D.DLL
 0002:00000c94       __imp_?GetCommandMap@CCmdTarget@@MBEPBUAFX_OLECMDMAP@@XZ 00492c94     mfc71d:MFC71D.DLL
 0002:00000c98       __imp_?GetDispatchMap@CCmdTarget@@MBEPBUAFX_DISPMAP@@XZ 00492c98     mfc71d:MFC71D.DLL
 0002:00000c9c       __imp_?GetConnectionMap@CCmdTarget@@MBEPBUAFX_CONNECTIONMAP@@XZ 00492c9c     mfc71d:MFC71D.DLL
 0002:00000ca0       __imp_?GetInterfaceMap@CWnd@@MBEPBUAFX_INTERFACEMAP@@XZ 00492ca0     mfc71d:MFC71D.DLL
 0002:00000ca4       __imp_?GetEventSinkMap@CCmdTarget@@MBEPBUAFX_EVENTSINKMAP@@XZ 00492ca4     mfc71d:MFC71D.DLL
 0002:00000ca8       __imp_?OnCreateAggregates@CCmdTarget@@UAEHXZ 00492ca8     mfc71d:MFC71D.DLL
 0002:00000cac       __imp_?GetInterfaceHook@CCmdTarget@@UAEPAUIUnknown@@PBX@Z 00492cac     mfc71d:MFC71D.DLL
 0002:00000cb0       __imp_?GetExtraConnectionPoints@CCmdTarget@@MAEHPAVCPtrArray@@@Z 00492cb0     mfc71d:MFC71D.DLL
 0002:00000cb4       __imp_?GetConnectionHook@CCmdTarget@@MAEPAUIConnectionPoint@@ABU_GUID@@@Z 00492cb4     mfc71d:MFC71D.DLL
 0002:00000cb8       __imp_?PreSubclassWindow@CWnd@@UAEXXZ 00492cb8     mfc71d:MFC71D.DLL
 0002:00000cbc       __imp_?Create@CWnd@@UAEHPBD0KABUtagRECT@@PAV1@IPAUCCreateContext@@@Z 00492cbc     mfc71d:MFC71D.DLL
 0002:00000cc0       __imp_?CreateEx@CWnd@@UAEHKPBD0KABUtagRECT@@PAV1@IPAX@Z 00492cc0     mfc71d:MFC71D.DLL
 0002:00000cc4       __imp_?CreateEx@CWnd@@UAEHKPBD0KHHHHPAUHWND__@@PAUHMENU__@@PAX@Z 00492cc4     mfc71d:MFC71D.DLL
 0002:00000cc8       __imp_?DestroyWindow@CWnd@@UAEHXZ 00492cc8     mfc71d:MFC71D.DLL
 0002:00000ccc       __imp_?PreCreateWindow@CWnd@@UAEHAAUtagCREATESTRUCTA@@@Z 00492ccc     mfc71d:MFC71D.DLL
 0002:00000cd0       __imp_?CalcWindowRect@CWnd@@UAEXPAUtagRECT@@I@Z 00492cd0     mfc71d:MFC71D.DLL
 0002:00000cd4       __imp_?OnToolHitTest@CWnd@@UBEHVCPoint@@PAUtagTOOLINFOA@@@Z 00492cd4     mfc71d:MFC71D.DLL
 0002:00000cd8       __imp_?GetScrollBarCtrl@CWnd@@UBEPAVCScrollBar@@H@Z 00492cd8     mfc71d:MFC71D.DLL
 0002:00000cdc       __imp_?WinHelpA@CWnd@@UAEXKI@Z 00492cdc     mfc71d:MFC71D.DLL
 0002:00000ce0       __imp_?HtmlHelpA@CWnd@@UAEXKI@Z 00492ce0     mfc71d:MFC71D.DLL
 0002:00000ce4       __imp_?WinHelpInternal@CWnd@@UAEXKI@Z 00492ce4     mfc71d:MFC71D.DLL
 0002:00000ce8       __imp_?ContinueModal@CWnd@@UAEHXZ 00492ce8     mfc71d:MFC71D.DLL
 0002:00000cec       __imp_?EndModalLoop@CWnd@@UAEXH@Z 00492cec     mfc71d:MFC71D.DLL
 0002:00000cf0       __imp_?EnsureStdObj@CWnd@@UAEJXZ 00492cf0     mfc71d:MFC71D.DLL
 0002:00000cf4       __imp_?get_accParent@CWnd@@UAEJPAPAUIDispatch@@@Z 00492cf4     mfc71d:MFC71D.DLL
 0002:00000cf8       __imp_?get_accChildCount@CWnd@@UAEJPAJ@Z 00492cf8     mfc71d:MFC71D.DLL
 0002:00000cfc       __imp_?get_accChild@CWnd@@UAEJUtagVARIANT@@PAPAUIDispatch@@@Z 00492cfc     mfc71d:MFC71D.DLL
 0002:00000d00       __imp_?get_accRole@CWnd@@UAEJUtagVARIANT@@PAU2@@Z 00492d00     mfc71d:MFC71D.DLL
 0002:00000d04       __imp_?get_accState@CWnd@@UAEJUtagVARIANT@@PAU2@@Z 00492d04     mfc71d:MFC71D.DLL
 0002:00000d08       __imp_?get_accFocus@CWnd@@UAEJPAUtagVARIANT@@@Z 00492d08     mfc71d:MFC71D.DLL
 0002:00000d0c       __imp_?get_accSelection@CWnd@@UAEJPAUtagVARIANT@@@Z 00492d0c     mfc71d:MFC71D.DLL
 0002:00000d10       __imp_?accSelect@CWnd@@UAEJJUtagVARIANT@@@Z 00492d10     mfc71d:MFC71D.DLL
 0002:00000d14       __imp_?accLocation@CWnd@@UAEJPAJ000UtagVARIANT@@@Z 00492d14     mfc71d:MFC71D.DLL
 0002:00000d18       __imp_?accNavigate@CWnd@@UAEJJUtagVARIANT@@PAU2@@Z 00492d18     mfc71d:MFC71D.DLL
 0002:00000d1c       __imp_?accHitTest@CWnd@@UAEJJJPAUtagVARIANT@@@Z 00492d1c     mfc71d:MFC71D.DLL
 0002:00000d20       __imp_?accDoDefaultAction@CWnd@@UAEJUtagVARIANT@@@Z 00492d20     mfc71d:MFC71D.DLL
 0002:00000d24       __imp_?SetProxy@CWnd@@UAEJPAUIAccessibleProxy@@@Z 00492d24     mfc71d:MFC71D.DLL
 0002:00000d28       __imp_?CreateAccessibleProxy@CWnd@@UAEJIJPAJ@Z 00492d28     mfc71d:MFC71D.DLL
 0002:00000d2c       __imp_?OnCommand@CWnd@@MAEHIJ@Z 00492d2c     mfc71d:MFC71D.DLL
 0002:00000d30       __imp_?OnNotify@CWnd@@MAEHIJPAJ@Z 00492d30     mfc71d:MFC71D.DLL
 0002:00000d34       __imp_?GetSuperWndProcAddr@CWnd@@MAEPAP6GJPAUHWND__@@IIJ@ZXZ 00492d34     mfc71d:MFC71D.DLL
 0002:00000d38       __imp_?BeginModalState@CWnd@@UAEXXZ 00492d38     mfc71d:MFC71D.DLL
 0002:00000d3c       __imp_?EndModalState@CWnd@@UAEXXZ 00492d3c     mfc71d:MFC71D.DLL
 0002:00000d40       __imp_?PreTranslateMessage@CDialog@@UAEHPAUtagMSG@@@Z 00492d40     mfc71d:MFC71D.DLL
 0002:00000d44       __imp_?OnAmbientProperty@CWnd@@UAEHPAVCOleControlSite@@JPAUtagVARIANT@@@Z 00492d44     mfc71d:MFC71D.DLL
 0002:00000d48       __imp_?WindowProc@CWnd@@MAEJIIJ@Z 00492d48     mfc71d:MFC71D.DLL
 0002:00000d4c       __imp_?OnWndMsg@CWnd@@MAEHIIJPAJ@Z 00492d4c     mfc71d:MFC71D.DLL
 0002:00000d50       __imp_?DefWindowProcA@CWnd@@MAEJIIJ@Z 00492d50     mfc71d:MFC71D.DLL
 0002:00000d54       __imp_?PostNcDestroy@CWnd@@MAEXXZ 00492d54     mfc71d:MFC71D.DLL
 0002:00000d58       __imp_?OnChildNotify@CWnd@@MAEHIIJPAJ@Z 00492d58     mfc71d:MFC71D.DLL
 0002:00000d5c       __imp_?CheckAutoCenter@CDialog@@UAEHXZ 00492d5c     mfc71d:MFC71D.DLL
 0002:00000d60       __imp_?IsFrameWnd@CWnd@@UBEHXZ 00492d60     mfc71d:MFC71D.DLL
 0002:00000d64       __imp_?CreateControlContainer@CWnd@@MAEHPAPAVCOleControlContainer@@@Z 00492d64     mfc71d:MFC71D.DLL
 0002:00000d68       __imp_?CreateControlSite@CWnd@@MAEHPAVCOleControlContainer@@PAPAVCOleControlSite@@IABU_GUID@@@Z 00492d68     mfc71d:MFC71D.DLL
 0002:00000d6c       __imp_?SetOccDialogInfo@CDialog@@MAEHPAU_AFX_OCC_DIALOG_INFO@@@Z 00492d6c     mfc71d:MFC71D.DLL
 0002:00000d70       __imp_?Create@CDialog@@UAEHIPAVCWnd@@@Z 00492d70     mfc71d:MFC71D.DLL
 0002:00000d74       __imp_?Create@CDialog@@UAEHPBDPAVCWnd@@@Z 00492d74     mfc71d:MFC71D.DLL
 0002:00000d78       __imp_?CreateIndirect@CDialog@@UAEHPAXPAVCWnd@@@Z 00492d78     mfc71d:MFC71D.DLL
 0002:00000d7c       __imp_?CreateIndirect@CDialog@@UAEHPBUDLGTEMPLATE@@PAVCWnd@@PAX@Z 00492d7c     mfc71d:MFC71D.DLL
 0002:00000d80       __imp_?DoModal@CDialog@@UAEHXZ 00492d80     mfc71d:MFC71D.DLL
 0002:00000d84       __imp_?OnSetFont@CDialog@@UAEXPAVCFont@@@Z 00492d84     mfc71d:MFC71D.DLL
 0002:00000d88       __imp_?OnCancel@CDialog@@MAEXXZ 00492d88     mfc71d:MFC71D.DLL
 0002:00000d8c       __imp_?PreInitDialog@CDialog@@MAEXXZ 00492d8c     mfc71d:MFC71D.DLL
 0002:00000d90       __imp_?GetThisMessageMap@CDialog@@KGPBUAFX_MSGMAP@@XZ 00492d90     mfc71d:MFC71D.DLL
 0002:00000d94       __imp_??1?$CStringT@DV?$StrTraitMFC_DLL@DV?$ChTraitsCRT@D@ATL@@@@@ATL@@QAE@XZ 00492d94     mfc71d:MFC71D.DLL
 0002:00000d98       __imp_??0?$CStringT@DV?$StrTraitMFC_DLL@DV?$ChTraitsCRT@D@ATL@@@@@ATL@@QAE@XZ 00492d98     mfc71d:MFC71D.DLL
 0002:00000d9c       __imp_??_V@YAXPAX@Z        00492d9c     mfc71d:MFC71D.DLL
 0002:00000da0       __imp_??3@YAXPAX@Z         00492da0     mfc71d:MFC71D.DLL
 0002:00000da4       __imp_?_AfxSocketInit@@YGHPAUWSAData@@@Z 00492da4     mfc71d:MFC71D.DLL
 0002:00000da8       __imp_?AfxWinMain@@YGHPAUHINSTANCE__@@0PADH@Z 00492da8     mfc71d:MFC71D.DLL
 0002:00000dac       __imp_?KillTimer@CWnd@@QAEHI@Z 00492dac     mfc71d:MFC71D.DLL
 0002:00000db0       __imp_??1CFileException@@UAE@XZ 00492db0     mfc71d:MFC71D.DLL
 0002:00000db4       \177MFC71D_NULL_THUNK_DATA 00492db4     mfc71d:MFC71D.DLL
 0002:00000db8       __imp_??Y?$basic_string@DU?$char_traits@D@std@@V?$allocator@D@2@@std@@QAEAAV01@PBD@Z 00492db8     msvcprtd:MSVCP71D.dll
 0002:00000dbc       __imp_??0?$basic_string@DU?$char_traits@D@std@@V?$allocator@D@2@@std@@QAE@PBD@Z 00492dbc     msvcprtd:MSVCP71D.dll
 0002:00000dc0       __imp_??0?$basic_string@DU?$char_traits@D@std@@V?$allocator@D@2@@std@@QAE@ABV01@@Z 00492dc0     msvcprtd:MSVCP71D.dll
 0002:00000dc4       __imp_??Y?$basic_string@DU?$char_traits@D@std@@V?$allocator@D@2@@std@@QAEAAV01@ABV01@@Z 00492dc4     msvcprtd:MSVCP71D.dll
 0002:00000dc8       __imp_??1?$basic_string@DU?$char_traits@D@std@@V?$allocator@D@2@@std@@QAE@XZ 00492dc8     msvcprtd:MSVCP71D.dll
 0002:00000dcc       __imp_?uncaught_exception@std@@YA_NXZ 00492dcc     msvcprtd:MSVCP71D.dll
 0002:00000dd0       __imp_?c_str@?$basic_string@DU?$char_traits@D@std@@V?$allocator@D@2@@std@@QBEPBDXZ 00492dd0     msvcprtd:MSVCP71D.dll
 0002:00000dd4       __imp_??4?$basic_string@DU?$char_traits@D@std@@V?$allocator@D@2@@std@@QAEAAV01@PBD@Z 00492dd4     msvcprtd:MSVCP71D.dll
 0002:00000dd8       __imp_??0?$basic_string@DU?$char_traits@D@std@@V?$allocator@D@2@@std@@QAE@XZ 00492dd8     msvcprtd:MSVCP71D.dll
 0002:00000ddc       __imp_?data@?$basic_string@DU?$char_traits@D@std@@V?$allocator@D@2@@std@@QBEPBDXZ 00492ddc     msvcprtd:MSVCP71D.dll
 0002:00000de0       \177MSVCP71D_NULL_THUNK_DATA 00492de0     msvcprtd:MSVCP71D.dll
 0002:00000de4       __imp___itoa               00492de4     msvcrtd:MSVCR71D.dll
 0002:00000de4       __imp__itoa                00492de4     msvcrtd:MSVCR71D.dll
 0002:00000de8       __imp___stricmp            00492de8     msvcrtd:MSVCR71D.dll
 0002:00000de8       __imp__stricmp             00492de8     msvcrtd:MSVCR71D.dll
 0002:00000dec       __imp___vsnwprintf         00492dec     msvcrtd:MSVCR71D.dll
 0002:00000df0       __imp___snwprintf          00492df0     msvcrtd:MSVCR71D.dll
 0002:00000df4       __imp___time64             00492df4     msvcrtd:MSVCR71D.dll
 0002:00000df8       __imp___mktime64           00492df8     msvcrtd:MSVCR71D.dll
 0002:00000dfc       __imp___gmtime64           00492dfc     msvcrtd:MSVCR71D.dll
 0002:00000e00       __imp__realloc             00492e00     msvcrtd:MSVCR71D.dll
 0002:00000e04       __imp__memcmp              00492e04     msvcrtd:MSVCR71D.dll
 0002:00000e08       __imp__wcscmp              00492e08     msvcrtd:MSVCR71D.dll
 0002:00000e0c       __imp__wcsncpy             00492e0c     msvcrtd:MSVCR71D.dll
 0002:00000e10       __imp___setmbcp            00492e10     msvcrtd:MSVCR71D.dll
 0002:00000e14       __imp__strcpy              00492e14     msvcrtd:MSVCR71D.dll
 0002:00000e18       __imp__memcpy              00492e18     msvcrtd:MSVCR71D.dll
 0002:00000e1c       __imp__sprintf             00492e1c     msvcrtd:MSVCR71D.dll
 0002:00000e20       __imp__strrchr             00492e20     msvcrtd:MSVCR71D.dll
 0002:00000e24       __imp__strncpy             00492e24     msvcrtd:MSVCR71D.dll
 0002:00000e28       __imp__memset              00492e28     msvcrtd:MSVCR71D.dll
 0002:00000e2c       __imp___localtime64        00492e2c     msvcrtd:MSVCR71D.dll
 0002:00000e30       __imp__strftime            00492e30     msvcrtd:MSVCR71D.dll
 0002:00000e34       __imp__strlen              00492e34     msvcrtd:MSVCR71D.dll
 0002:00000e38       __imp___splitpath          00492e38     msvcrtd:MSVCR71D.dll
 0002:00000e3c       __imp____CxxFrameHandler   00492e3c     msvcrtd:MSVCR71D.dll
 0002:00000e40       __imp__tolower             00492e40     msvcrtd:MSVCR71D.dll
 0002:00000e44       __imp__isupper             00492e44     msvcrtd:MSVCR71D.dll
 0002:00000e48       __imp__fabs                00492e48     msvcrtd:MSVCR71D.dll
 0002:00000e4c       __imp___mbsnbcmp           00492e4c     msvcrtd:MSVCR71D.dll
 0002:00000e50       __imp__strstr              00492e50     msvcrtd:MSVCR71D.dll
 0002:00000e54       __imp__toupper             00492e54     msvcrtd:MSVCR71D.dll
 0002:00000e58       __imp__rename              00492e58     msvcrtd:MSVCR71D.dll
 0002:00000e5c       __imp__strcat              00492e5c     msvcrtd:MSVCR71D.dll
 0002:00000e60       __imp__atol                00492e60     msvcrtd:MSVCR71D.dll
 0002:00000e64       __imp__atoi                00492e64     msvcrtd:MSVCR71D.dll
 0002:00000e68       __imp__atof                00492e68     msvcrtd:MSVCR71D.dll
 0002:00000e6c       __imp__mbstowcs            00492e6c     msvcrtd:MSVCR71D.dll
 0002:00000e70       __imp__fclose              00492e70     msvcrtd:MSVCR71D.dll
 0002:00000e74       __imp__fread               00492e74     msvcrtd:MSVCR71D.dll
 0002:00000e78       __imp__fopen               00492e78     msvcrtd:MSVCR71D.dll
 0002:00000e7c       __imp__fgets               00492e7c     msvcrtd:MSVCR71D.dll
 0002:00000e80       __imp__fscanf              00492e80     msvcrtd:MSVCR71D.dll
 0002:00000e84       __imp__strtok              00492e84     msvcrtd:MSVCR71D.dll
 0002:00000e88       __imp__vsprintf            00492e88     msvcrtd:MSVCR71D.dll
 0002:00000e8c       __imp__strcmp              00492e8c     msvcrtd:MSVCR71D.dll
 0002:00000e90       __imp___strdup             00492e90     msvcrtd:MSVCR71D.dll
 0002:00000e94       __imp__free                00492e94     msvcrtd:MSVCR71D.dll
 0002:00000e98       __imp___CrtDbgReport       00492e98     msvcrtd:MSVCR71D.dll
 0002:00000e9c       __imp___except_handler3    00492e9c     msvcrtd:MSVCR71D.dll
 0002:00000ea0       __imp__wcscpy              00492ea0     msvcrtd:MSVCR71D.dll
 0002:00000ea4       __imp__malloc              00492ea4     msvcrtd:MSVCR71D.dll
 0002:00000ea8       __imp_??0exception@@QAE@ABV0@@Z 00492ea8     msvcrtd:MSVCR71D.dll
 0002:00000eac       __imp___CxxThrowException@8 00492eac     msvcrtd:MSVCR71D.dll
 0002:00000eb0       __imp__memmove             00492eb0     msvcrtd:MSVCR71D.dll
 0002:00000eb4       __imp___controlfp          00492eb4     msvcrtd:MSVCR71D.dll
 0002:00000eb8       __imp_??1exception@@UAE@XZ 00492eb8     msvcrtd:MSVCR71D.dll
 0002:00000ebc       __imp_??0exception@@QAE@XZ 00492ebc     msvcrtd:MSVCR71D.dll
 0002:00000ec0       __imp___mbsstr             00492ec0     msvcrtd:MSVCR71D.dll
 0002:00000ec4       __imp___snprintf           00492ec4     msvcrtd:MSVCR71D.dll
 0002:00000ec8       __imp___purecall           00492ec8     msvcrtd:MSVCR71D.dll
 0002:00000ecc       __imp___mbsnbcpy           00492ecc     msvcrtd:MSVCR71D.dll
 0002:00000ed0       __imp___vsnprintf          00492ed0     msvcrtd:MSVCR71D.dll
 0002:00000ed4       __imp___mbscmp             00492ed4     msvcrtd:MSVCR71D.dll
 0002:00000ed8       __imp__abs                 00492ed8     msvcrtd:MSVCR71D.dll
 0002:00000edc       __imp___CrtSetDbgFlag      00492edc     msvcrtd:MSVCR71D.dll
 0002:00000ee0       __imp____dllonexit         00492ee0     msvcrtd:MSVCR71D.dll
 0002:00000ee4       __imp___onexit             00492ee4     msvcrtd:MSVCR71D.dll
 0002:00000ee8       __imp___CRT_RTC_INIT       00492ee8     msvcrtd:MSVCR71D.dll
 0002:00000eec       __imp_?terminate@@YAXXZ    00492eec     msvcrtd:MSVCR71D.dll
 0002:00000ef0       __imp____security_error_handler 00492ef0     msvcrtd:MSVCR71D.dll
 0002:00000ef4       __imp_??1type_info@@UAE@XZ 00492ef4     msvcrtd:MSVCR71D.dll
 0002:00000ef8       __imp___c_exit             00492ef8     msvcrtd:MSVCR71D.dll
 0002:00000efc       __imp___exit               00492efc     msvcrtd:MSVCR71D.dll
 0002:00000f00       __imp___XcptFilter         00492f00     msvcrtd:MSVCR71D.dll
 0002:00000f04       __imp___cexit              00492f04     msvcrtd:MSVCR71D.dll
 0002:00000f08       __imp__exit                00492f08     msvcrtd:MSVCR71D.dll
 0002:00000f0c       __imp___ismbblead          00492f0c     msvcrtd:MSVCR71D.dll
 0002:00000f10       __imp___acmdln             00492f10     msvcrtd:MSVCR71D.dll
 0002:00000f14       __imp___amsg_exit          00492f14     msvcrtd:MSVCR71D.dll
 0002:00000f18       __imp____getmainargs       00492f18     msvcrtd:MSVCR71D.dll
 0002:00000f1c       __imp___initterm           00492f1c     msvcrtd:MSVCR71D.dll
 0002:00000f20       __imp____setusermatherr    00492f20     msvcrtd:MSVCR71D.dll
 0002:00000f24       __imp___adjust_fdiv        00492f24     msvcrtd:MSVCR71D.dll
 0002:00000f28       __imp____p__commode        00492f28     msvcrtd:MSVCR71D.dll
 0002:00000f2c       __imp____p__fmode          00492f2c     msvcrtd:MSVCR71D.dll
 0002:00000f30       __imp____set_app_type      00492f30     msvcrtd:MSVCR71D.dll
 0002:00000f34       __imp__wcslen              00492f34     msvcrtd:MSVCR71D.dll
 0002:00000f38       \177MSVCR71D_NULL_THUNK_DATA 00492f38     msvcrtd:MSVCR71D.dll
 0002:00000f3c       __imp__Netbios@4           00492f3c     Netapi32:NETAPI32.dll
 0002:00000f40       \177NETAPI32_NULL_THUNK_DATA 00492f40     Netapi32:NETAPI32.dll
 0002:00000f44       __imp__SysAllocString@4    00492f44     oleaut32:OLEAUT32.dll
 0002:00000f48       __imp__VariantCopy@8       00492f48     oleaut32:OLEAUT32.dll
 0002:00000f4c       __imp__VariantInit@4       00492f4c     oleaut32:OLEAUT32.dll
 0002:00000f50       __imp__VariantClear@4      00492f50     oleaut32:OLEAUT32.dll
 0002:00000f54       __imp__SysStringByteLen@4  00492f54     oleaut32:OLEAUT32.dll
 0002:00000f58       __imp__SysAllocStringByteLen@8 00492f58     oleaut32:OLEAUT32.dll
 0002:00000f5c       __imp__SysStringLen@4      00492f5c     oleaut32:OLEAUT32.dll
 0002:00000f60       __imp__SysFreeString@4     00492f60     oleaut32:OLEAUT32.dll
 0002:00000f64       __imp__GetErrorInfo@8      00492f64     oleaut32:OLEAUT32.dll
 0002:00000f68       \177OLEAUT32_NULL_THUNK_DATA 00492f68     oleaut32:OLEAUT32.dll
 0002:00000f6c       __imp__SHGetPathFromIDListA@8 00492f6c     shell32:SHELL32.dll
 0002:00000f70       __imp__SHBrowseForFolderA@4 00492f70     shell32:SHELL32.dll
 0002:00000f74       __imp__SHGetMalloc@4       00492f74     shell32:SHELL32.dll
 0002:00000f78       __imp__SHGetFileInfoA@20   00492f78     shell32:SHELL32.dll
 0002:00000f7c       __imp__Shell_NotifyIconA@8 00492f7c     shell32:SHELL32.dll
 0002:00000f80       __imp__ShellExecuteA@24    00492f80     shell32:SHELL32.dll
 0002:00000f84       \177SHELL32_NULL_THUNK_DATA 00492f84     shell32:SHELL32.dll
 0002:00000f88       __imp__GetMessageW@16      00492f88     user32:USER32.dll
 0002:00000f8c       __imp__IsWindowUnicode@4   00492f8c     user32:USER32.dll
 0002:00000f90       __imp__SetRect@20          00492f90     user32:USER32.dll
 0002:00000f94       __imp__PtInRect@12         00492f94     user32:USER32.dll
 0002:00000f98       __imp__GetMessageA@16      00492f98     user32:USER32.dll
 0002:00000f9c       __imp__RegisterWindowMessageA@4 00492f9c     user32:USER32.dll
 0002:00000fa0       __imp__SetMenuDefaultItem@12 00492fa0     user32:USER32.dll
 0002:00000fa4       __imp__GetCursorPos@4      00492fa4     user32:USER32.dll
 0002:00000fa8       __imp__SetForegroundWindow@4 00492fa8     user32:USER32.dll
 0002:00000fac       __imp__TrackPopupMenu@28   00492fac     user32:USER32.dll
 0002:00000fb0       __imp__CallWindowProcA@20  00492fb0     user32:USER32.dll
 0002:00000fb4       __imp__MessageBeep@4       00492fb4     user32:USER32.dll
 0002:00000fb8       __imp__SetWindowLongA@12   00492fb8     user32:USER32.dll
 0002:00000fbc       __imp__GetDlgCtrlID@4      00492fbc     user32:USER32.dll
 0002:00000fc0       __imp__SendMessageA@16     00492fc0     user32:USER32.dll
 0002:00000fc4       __imp__IsWindow@4          00492fc4     user32:USER32.dll
 0002:00000fc8       __imp__LoadStringA@16      00492fc8     user32:USER32.dll
 0002:00000fcc       __imp__GetSysColor@4       00492fcc     user32:USER32.dll
 0002:00000fd0       __imp__ReleaseCapture@0    00492fd0     user32:USER32.dll
 0002:00000fd4       __imp__LoadImageA@24       00492fd4     user32:USER32.dll
 0002:00000fd8       __imp__DestroyCursor@4     00492fd8     user32:USER32.dll
 0002:00000fdc       __imp__IsRectEmpty@4       00492fdc     user32:USER32.dll
 0002:00000fe0       __imp__DispatchMessageA@4  00492fe0     user32:USER32.dll
 0002:00000fe4       __imp__DispatchMessageW@4  00492fe4     user32:USER32.dll
 0002:00000fe8       __imp__PeekMessageA@20     00492fe8     user32:USER32.dll
 0002:00000fec       __imp__TranslateMessage@4  00492fec     user32:USER32.dll
 0002:00000ff0       __imp__SetRectEmpty@4      00492ff0     user32:USER32.dll
 0002:00000ff4       __imp__MsgWaitForMultipleObjects@20 00492ff4     user32:USER32.dll
 0002:00000ff8       __imp__UnregisterHotKey@8  00492ff8     user32:USER32.dll
 0002:00000ffc       __imp__RegisterHotKey@16   00492ffc     user32:USER32.dll
 0002:00001000       __imp__wsprintfA           00493000     user32:USER32.dll
 0002:00001004       __imp__PostMessageA@16     00493004     user32:USER32.dll
 0002:00001008       __imp__LoadCursorA@8       00493008     user32:USER32.dll
 0002:0000100c       __imp__SetCursor@4         0049300c     user32:USER32.dll
 0002:00001010       __imp__SubtractRect@12     00493010     user32:USER32.dll
 0002:00001014       __imp__UnionRect@12        00493014     user32:USER32.dll
 0002:00001018       __imp__IntersectRect@12    00493018     user32:USER32.dll
 0002:0000101c       __imp__OffsetRect@12       0049301c     user32:USER32.dll
 0002:00001020       __imp__InflateRect@12      00493020     user32:USER32.dll
 0002:00001024       __imp__EqualRect@8         00493024     user32:USER32.dll
 0002:00001028       __imp__CopyRect@8          00493028     user32:USER32.dll
 0002:0000102c       \177USER32_NULL_THUNK_DATA 0049302c     user32:USER32.dll
 0002:00001030       __imp__GetFileVersionInfoSizeA@8 00493030     version:VERSION.dll
 0002:00001034       __imp__GetFileVersionInfoA@16 00493034     version:VERSION.dll
 0002:00001038       __imp__VerQueryValueA@16   00493038     version:VERSION.dll
 0002:0000103c       \177VERSION_NULL_THUNK_DATA 0049303c     version:VERSION.dll
 0002:00001040       __imp__WSAStartup@8        00493040     ws2_32:WS2_32.dll
 0002:00001044       __imp__setsockopt@20       00493044     ws2_32:WS2_32.dll
 0002:00001048       \177WS2_32_NULL_THUNK_DATA 00493048     ws2_32:WS2_32.dll
 0002:0000104c       __imp__jASR_Quit@4         0049304c     jASR:jASR.dll
 0002:00001050       __imp__jASR_ActiveEngine@4 00493050     jASR:jASR.dll
 0002:00001054       __imp__jASR_SetDeActiveMultiGramma@8 00493054     jASR:jASR.dll
 0002:00001058       __imp__jASR_CreateInstance@0 00493058     jASR:jASR.dll
 0002:0000105c       __imp__jASR_SetActiveMultiGramma@16 0049305c     jASR:jASR.dll
 0002:00001060       __imp__jASR_SetParams@4    00493060     jASR:jASR.dll
 0002:00001064       __imp__jASR_Init@4         00493064     jASR:jASR.dll
 0002:00001068       __imp__jASR_LoadMultiGrammar@8 00493068     jASR:jASR.dll
 0002:0000106c       \177jASR_NULL_THUNK_DATA   0049306c     jASR:jASR.dll
 0002:00001070       __imp__jTTS_SessionStart@28 00493070     jTTS_ML:jTTS_ML.dll
 0002:00001074       __imp__jTTS_End@0          00493074     jTTS_ML:jTTS_ML.dll
 0002:00001078       __imp__jTTS_Init@8         00493078     jTTS_ML:jTTS_ML.dll
 0002:0000107c       __imp__jTTS_SessionExec@12 0049307c     jTTS_ML:jTTS_ML.dll
 0002:00001080       __imp__jTTS_SessionStop@4  00493080     jTTS_ML:jTTS_ML.dll
 0002:00001084       __imp__jTTS_SetParam@8     00493084     jTTS_ML:jTTS_ML.dll
 0002:00001088       __imp__jTTS_GetVoiceAttribute@8 00493088     jTTS_ML:jTTS_ML.dll
 0002:0000108c       \177jTTS_ML_NULL_THUNK_DATA 0049308c     jTTS_ML:jTTS_ML.dll
 0002:00001090       __imp__CoCreateInstance@20 00493090     ole32:ole32.dll
 0002:00001094       __imp__CoReleaseMarshalData@4 00493094     ole32:ole32.dll
 0002:00001098       __imp__OleRun@4            00493098     ole32:ole32.dll
 0002:0000109c       __imp__CreateStreamOnHGlobal@12 0049309c     ole32:ole32.dll
 0002:000010a0       __imp__CoUnmarshalInterface@12 004930a0     ole32:ole32.dll
 0002:000010a4       __imp__CoRevokeClassObject@4 004930a4     ole32:ole32.dll
 0002:000010a8       __imp__CoRegisterClassObject@20 004930a8     ole32:ole32.dll
 0002:000010ac       __imp__CoInitializeEx@8    004930ac     ole32:ole32.dll
 0002:000010b0       __imp__CLSIDFromProgID@8   004930b0     ole32:ole32.dll
 0002:000010b4       __imp__CoUninitialize@0    004930b4     ole32:ole32.dll
 0002:000010b8       __imp__CoInitialize@4      004930b8     ole32:ole32.dll
 0002:000010bc       __imp__CoMarshalInterface@24 004930bc     ole32:ole32.dll
 0002:000010c0       \177ole32_NULL_THUNK_DATA  004930c0     ole32:ole32.dll
 0002:000037f4       ?messageMap@CBrowsePath@@1UAFX_MSGMAP@@B 004957f4     BrowsePath.obj
 0002:00003800       ?_messageEntries@CBrowsePath@@0QBUAFX_MSGMAP_ENTRY@@B 00495800     BrowsePath.obj
 0002:00003860       ??_7CBrowsePath@@6B@       00495860     BrowsePath.obj
 0002:000039c0       ??_C@_0FB@ICGCDCIL@C?3?2Program?5Files?2Microsoft?5Visua@ 004959c0     BrowsePath.obj
 0002:000054d4       ??_7Cchannelcontrol@@6B@   004974d4     channelcontrol.obj
 0002:000054d8       __real@0000000000000000    004974d8     channelcontrol.obj
 0002:000054e0       __real@4059000000000000    004974e0     channelcontrol.obj
 0002:000054e8       __real@3f847ae147ae147b    004974e8     channelcontrol.obj
 0002:0000675c       ??_7CClientSocket@@6BCFastMessageQ@@@ 0049875c     ClientSocket.obj
 0002:00006760       ??_7CClientSocket@@6BCSocket@@@ 00498760     ClientSocket.obj
 0002:000070c4       ?messageMap@CClientThread@@1UAFX_MSGMAP@@B 004990c4     ClientThread.obj
 0002:000070cc       ?classCClientThread@CClientThread@@2UCRuntimeClass@@B 004990cc     ClientThread.obj
 0002:000070e8       ??_7CClientThread@@6B@     004990e8     ClientThread.obj
 0002:0000817c       ?messageMap@CConfigBox@@1UAFX_MSGMAP@@B 0049a17c     ConfigBox.obj
 0002:00008188       ?_messageEntries@CConfigBox@@0QBUAFX_MSGMAP_ENTRY@@B 0049a188     ConfigBox.obj
 0002:000081e8       ??_7CConfigBox@@6B@        0049a1e8     ConfigBox.obj
 0002:00008348       ?messageMap@CConfigSheet@@1UAFX_MSGMAP@@B 0049a348     ConfigSheet.obj
 0002:00008350       ?classCConfigSheet@CConfigSheet@@2UCRuntimeClass@@B 0049a350     ConfigSheet.obj
 0002:00008380       ??_7CConfigSheet@@6B@      0049a380     ConfigSheet.obj
 0002:000095b4       ?messageMap@CDlgAutoLoadCallFlow@@1UAFX_MSGMAP@@B 0049b5b4     DlgAutoLoadCallFlow.obj
 0002:000095c0       ?_messageEntries@CDlgAutoLoadCallFlow@@0QBUAFX_MSGMAP_ENTRY@@B 0049b5c0     DlgAutoLoadCallFlow.obj
 0002:00009638       ??_7CDlgAutoLoadCallFlow@@6B@ 0049b638     DlgAutoLoadCallFlow.obj
 0002:00009798       __GUID_00000535_0000_0010_8000_00aa006d2ea4 0049b798     DlgAutoLoadCallFlow.obj
 0002:000097a8       __GUID_00000000_0000_0000_c000_000000000046 0049b7a8     DlgAutoLoadCallFlow.obj
 0002:000097a8       _IID_IUnknown              0049b7a8     uuid:unknwn_i.obj
 0002:000097b8       __GUID_00000556_0000_0010_8000_00aa006d2ea4 0049b7b8     DlgAutoLoadCallFlow.obj
 0002:000097c8       __GUID_0000054c_0000_0010_8000_00aa006d2ea4 0049b7c8     DlgAutoLoadCallFlow.obj
 0002:000097d8       __GUID_00000506_0000_0010_8000_00aa006d2ea4 0049b7d8     DlgAutoLoadCallFlow.obj
 0002:000097e8       __GUID_0000050e_0000_0010_8000_00aa006d2ea4 0049b7e8     DlgAutoLoadCallFlow.obj
 0002:0000a8cc       ?messageMap@CAboutDlg@@1UAFX_MSGMAP@@B 0049c8cc     PowerVoice.obj
 0002:0000a8cc       ?messageMap@CDlgGetPassword@@1UAFX_MSGMAP@@B 0049c8cc     DlgGetPassword.obj
 0002:0000a8cc       ?messageMap@CDlgAutoLoadResource@@1UAFX_MSGMAP@@B 0049c8cc     DlgAutoLoadResource.obj
 0002:0000a8cc       ?messageMap@CDlgViewLicense@@1UAFX_MSGMAP@@B 0049c8cc     DlgViewLicense.obj
 0002:0000a8d4       ?_messageEntries@CDlgGetPassword@@0QBUAFX_MSGMAP_ENTRY@@B 0049c8d4     DlgGetPassword.obj
 0002:0000a8d4       ?_messageEntries@CDlgAutoLoadResource@@0QBUAFX_MSGMAP_ENTRY@@B 0049c8d4     DlgAutoLoadResource.obj
 0002:0000a8d4       ?_messageEntries@CConfigSheet@@0QBUAFX_MSGMAP_ENTRY@@B 0049c8d4     ConfigSheet.obj
 0002:0000a8d4       ?_messageEntries@CPowerVoiceDoc@@0QBUAFX_MSGMAP_ENTRY@@B 0049c8d4     PowerVoiceDoc.obj
 0002:0000a8d4       ?_messageEntries@CClientThread@@0QBUAFX_MSGMAP_ENTRY@@B 0049c8d4     ClientThread.obj
 0002:0000a8d4       ?_messageEntries@CAboutDlg@@0QBUAFX_MSGMAP_ENTRY@@B 0049c8d4     PowerVoice.obj
 0002:0000a8d4       ?_messageEntries@CDirTreeControl@@0QBUAFX_MSGMAP_ENTRY@@B 0049c8d4     DirTreeControl.obj
 0002:0000a8d4       ?_messageEntries@CDlgViewLicense@@0QBUAFX_MSGMAP_ENTRY@@B 0049c8d4     DlgViewLicense.obj
 0002:0000a8f0       ??_7CDlgAutoLoadResource@@6B@ 0049c8f0     DlgAutoLoadResource.obj
 0002:0000ba88       ??_7CDlgGetPassword@@6B@   0049da88     DlgGetPassword.obj
 0002:0000cc9c       ?messageMap@CDlgSeleCallFlowTable@@1UAFX_MSGMAP@@B 0049ec9c     DlgSeleCallFlowTable.obj
 0002:0000cca8       ?_messageEntries@CDlgSeleCallFlowTable@@0QBUAFX_MSGMAP_ENTRY@@B 0049eca8     DlgSeleCallFlowTable.obj
 0002:0000ccf0       ??_7CDlgSeleCallFlowTable@@6B@ 0049ecf0     DlgSeleCallFlowTable.obj
 0002:0000df24       ?messageMap@CDLGSELERESOURCE@@1UAFX_MSGMAP@@B 0049ff24     DLGSELERESOURCE.obj
 0002:0000df2c       ?_messageEntries@CDLGSELERESOURCE@@0QBUAFX_MSGMAP_ENTRY@@B 0049ff2c     DLGSELERESOURCE.obj
 0002:0000df60       ??_7CDLGSELERESOURCE@@6B@  0049ff60     DLGSELERESOURCE.obj
 0002:0000f120       ??_7CDlgViewLicense@@6B@   004a1120     DlgViewLicense.obj
 0002:00010544       ??_7CFaxManager@@6B@       004a2544     FaxManager.obj
 0002:00010558       ??_7?$CMap@JJPAVCFaxResource@@PAV1@@@6B@ 004a2558     FaxManager.obj
 0002:00011684       ??_7CFaxResource@@6B@      004a3684     FaxResource.obj
 0002:000152fc       ??_7CIVRCH_Collection@@6B@ 004a72fc     IVRChannel.obj
 0002:00015310       ??_7CIVRChannel@@6BCMyThread@@@ 004a7310     IVRChannel.obj
 0002:00015318       ??_7CIVRChannel@@6BCIVRObject@@@ 004a7318     IVRChannel.obj
 0002:00015320       __real@3ee4f8b588e368f1    004a7320     IVRChannel.obj
 0002:00015328       ??_C@_0BF@IPPGFENJ@Unknown?5error?50x?$CF0lX?$AA@ 004a7328     IVRChannel.obj
 0002:00015340       ??_C@_0BE@NNIJINN@IDispatch?5error?5?$CD?$CFd?$AA@ 004a7340     IVRChannel.obj
 0002:00015354       ??_7?$CMap@KKPAVCIVRChannel@@PAV1@@@6B@ 004a7354     IVRChannel.obj
 0002:00016744       ??_7CIVRClient_Admin@@6B@  004a8744     IVRClient_Admin.obj
 0002:00017754       ??_7CIVRClient_MSI@@6B@    004a9754     IVRClient_MSI.obj
 0002:00019024       ??_7CIVRObject@@6B@        004ab024     IVRGroup.obj
 0002:00019028       ??_7CIVRGroup@@6B@         004ab028     IVRGroup.obj
 0002:000198b0       ??_7CListenSocket@@6B@     004ab8b0     ListenSocket.obj
 0002:0001c59c       ?messageMap@CMainFrame@@1UAFX_MSGMAP@@B 004ae59c     MainFrm.obj
 0002:0001c5a8       ?_messageEntries@CMainFrame@@0QBUAFX_MSGMAP_ENTRY@@B 004ae5a8     MainFrm.obj
 0002:0001c9c8       ?classCMainFrame@CMainFrame@@2UCRuntimeClass@@B 004ae9c8     MainFrm.obj
 0002:0001c9e4       ?messageMap@CIVRGroupView@@1UAFX_MSGMAP@@B 004ae9e4     MainFrm.obj
 0002:0001c9ec       ?_messageEntries@CIVRGroupView@@0QBUAFX_MSGMAP_ENTRY@@B 004ae9ec     MainFrm.obj
 0002:0001ca1c       ?classCIVRGroupView@CIVRGroupView@@2UCRuntimeClass@@B 004aea1c     MainFrm.obj
 0002:0001ca38       ??_7CIVRGroupView@@6B@     004aea38     MainFrm.obj
 0002:0001cbc8       ??_7CMainFrame@@6B@        004aebc8     MainFrm.obj
 0002:0001cd40       ??_7CCMEIVRServerInfo@@6B@ 004aed40     MainFrm.obj
 0002:0001cd44       ??_7CTTSServerInfo@@6B@    004aed44     MainFrm.obj
 0002:0001d5e4       ??_7CMyDBReader@@6B@       004af5e4     MyDBReader.obj
 0002:0001d64c       ??_7CMyThreadList@@6B@     004af64c     MyThreadList.obj
 0002:0001d650       ??_7?$CTypedPtrList@VCObList@@PAVCClientThread@@@@6B@ 004af650     MyThreadList.obj
 0002:0001d664       ??_7?$_CTypedPtrList@VCObList@@PAVCClientThread@@@@6B@ 004af664     MyThreadList.obj
 0002:0001e794       ?messageMap@CPageExternal@@1UAFX_MSGMAP@@B 004b0794     PageExternal.obj
 0002:0001e7a0       ?_messageEntries@CPageExternal@@0QBUAFX_MSGMAP_ENTRY@@B 004b07a0     PageExternal.obj
 0002:0001e908       ?classCPageExternal@CPageExternal@@2UCRuntimeClass@@B 004b0908     PageExternal.obj
 0002:0001e928       ??_7CPageExternal@@6B@     004b0928     PageExternal.obj
 0002:0001fc64       ?messageMap@CPageGroup@@1UAFX_MSGMAP@@B 004b1c64     PageGroup.obj
 0002:0001fc70       ?_messageEntries@CPageGroup@@0QBUAFX_MSGMAP_ENTRY@@B 004b1c70     PageGroup.obj
 0002:0001fd60       ?classCPageGroup@CPageGroup@@2UCRuntimeClass@@B 004b1d60     PageGroup.obj
 0002:0001fd80       ??_7CPageGroup@@6B@        004b1d80     PageGroup.obj
 0002:00020ff4       ?messageMap@CPagePBX@@1UAFX_MSGMAP@@B 004b2ff4     PagePBX.obj
 0002:00021000       ?_messageEntries@CPagePBX@@0QBUAFX_MSGMAP_ENTRY@@B 004b3000     PagePBX.obj
 0002:00021198       ?classCPagePBX@CPagePBX@@2UCRuntimeClass@@B 004b3198     PagePBX.obj
 0002:000211b8       ??_7CPagePBX@@6B@          004b31b8     PagePBX.obj
 0002:00022b1c       ?messageMap@CPageSystem@@1UAFX_MSGMAP@@B 004b4b1c     PageSystem.obj
 0002:00022b28       ?_messageEntries@CPageSystem@@0QBUAFX_MSGMAP_ENTRY@@B 004b4b28     PageSystem.obj
 0002:00022d68       ?classCPageSystem@CPageSystem@@2UCRuntimeClass@@B 004b4d68     PageSystem.obj
 0002:00022d88       ??_7CPageSystem@@6B@       004b4d88     PageSystem.obj
 0002:00024e14       ??_7CPCSClientSock@@6BCFastMessageQ@@@ 004b6e14     PCSClientSock.obj
 0002:00024e18       ??_7CPCSClientSock@@6BCMyThread@@@ 004b6e18     PCSClientSock.obj
 0002:00024e20       ??_7CPCSClientSock@@6BCAsyncSocket@@@ 004b6e20     PCSClientSock.obj
 0002:000262d4       ??_7CPCSExtClientSock@@6BCFastMessageQ@@@ 004b82d4     PCSExtClientSock.obj
 0002:000262d8       ??_7CPCSExtClientSock@@6BCMyThread@@@ 004b82d8     PCSExtClientSock.obj
 0002:000262e0       ??_7CPCSExtClientSock@@6BCAsyncSocket@@@ 004b82e0     PCSExtClientSock.obj
 0002:00027494       ?messageMap@CPowerVoiceApp@@1UAFX_MSGMAP@@B 004b9494     PowerVoice.obj
 0002:0002749c       ?_messageEntries@CPowerVoiceApp@@0QBUAFX_MSGMAP_ENTRY@@B 004b949c     PowerVoice.obj
 0002:000274d0       ??_7CPowerVoiceApp@@6B@    004b94d0     PowerVoice.obj
 0002:00027590       ??_7CAboutDlg@@6B@         004b9590     PowerVoice.obj
 0002:0002870c       ?messageMap@CPowerVoiceDoc@@1UAFX_MSGMAP@@B 004ba70c     PowerVoiceDoc.obj
 0002:00028714       ?classCPowerVoiceDoc@CPowerVoiceDoc@@2UCRuntimeClass@@B 004ba714     PowerVoiceDoc.obj
 0002:00028730       ??_7CPowerVoiceDoc@@6B@    004ba730     PowerVoiceDoc.obj
 0002:0002990c       ?messageMap@CPowerVoiceView@@1UAFX_MSGMAP@@B 004bb90c     PowerVoiceView.obj
 0002:00029918       ?_messageEntries@CPowerVoiceView@@0QBUAFX_MSGMAP_ENTRY@@B 004bb918     PowerVoiceView.obj
 0002:00029960       ?classCPowerVoiceView@CPowerVoiceView@@2UCRuntimeClass@@B 004bb960     PowerVoiceView.obj
 0002:00029980       ??_7CPowerVoiceView@@6B@   004bb980     PowerVoiceView.obj
 0002:00029bec       ??_7CProductLicense@@6B@   004bbbec     ProductLicense.obj
 0002:00029bf0       ?messageMap@CSplashWnd@@1UAFX_MSGMAP@@B 004bbbf0     Splash.obj
 0002:00029bf8       ?_messageEntries@CSplashWnd@@0QBUAFX_MSGMAP_ENTRY@@B 004bbbf8     Splash.obj
 0002:00029c58       ??_7CSplashWnd@@6B@        004bbc58     Splash.obj
 0002:00029f34       ??_C@_01GBGANLPD@0?$AA@    004bbf34     StdAfx.obj
 0002:00029f38       ??_C@_08DMHHBMMN@lpa?5?$CB?$DN?50?$AA@ 004bbf38     StdAfx.obj
 0002:00029f48       ??_C@_0FA@OHHMODBN@C?3?2Program?5Files?2Microsoft?5Visua@ 004bbf48     StdAfx.obj
 0002:00029f98       ??_C@_08DIHJLFDJ@lpw?5?$CB?$DN?50?$AA@ 004bbf98     StdAfx.obj
 0002:00029fa8       ??_C@_0FC@CFIFHLCH@C?3?2Program?5Files?2Microsoft?5Visua@ 004bbfa8     StdAfx.obj
 0002:00029ffc       ??_C@_0BF@IAAKIJDJ@AtlThrow?3?5hr?5?$DN?50x?$CFx?6?$AA@ 004bbffc     StdAfx.obj
 0002:0002c104       ??_7CThreadSysMain@@6B@    004be104     ThreadSysMain.obj
 0002:0002c110       ?messageMap@CButtonST@@1UAFX_MSGMAP@@B 004be110     BtnST.obj
 0002:0002c118       ?_messageEntries@CButtonST@@0QBUAFX_MSGMAP_ENTRY@@B 004be118     BtnST.obj
 0002:0002c190       ??_7CButtonST@@6B@         004be190     BtnST.obj
 0002:0002c2d0       ??_C@_0DE@PPFGJHM@d?3?2pcs_works?2newpowercall_mfc?2po@ 004be2d0     BtnST.obj
 0002:0002c308       ??_7CMemDC@@6B@            004be308     BtnST.obj
 0002:0002c398       ?messageMap@CCheckGroupBox@@1UAFX_MSGMAP@@B 004be398     CheckGroupBox.obj
 0002:0002c3a0       ?_messageEntries@CCheckGroupBox@@0QBUAFX_MSGMAP_ENTRY@@B 004be3a0     CheckGroupBox.obj
 0002:0002c430       ?classCCheckGroupBox@CCheckGroupBox@@2UCRuntimeClass@@B 004be430     CheckGroupBox.obj
 0002:0002c450       ??_7CCheckGroupBox@@6B@    004be450     CheckGroupBox.obj
 0002:0002c590       ??_C@_0BB@MOGOBHAF@list?$DMT?$DO?5too?5long?$AA@ 004be590     CheckGroupBox.obj
 0002:0002c5a4       ??_7length_error@std@@6B@  004be5a4     CheckGroupBox.obj
 0002:0002c5ac       ??_7logic_error@std@@6B@   004be5ac     CheckGroupBox.obj
 0002:0002c900       ??_7CDataRecorderConnect@@6BCFastMessageQ@@@ 004be900     DataRecorderConnect.obj
 0002:0002c904       ??_7CDataRecorderConnect@@6BCMyThread@@@ 004be904     DataRecorderConnect.obj
 0002:0002c90c       ??_7CDataRecorderConnect@@6BCMySQLLog@@@ 004be90c     DataRecorderConnect.obj
 0002:0002c910       ??_7CDataRecorderConnect@@6BCAsyncSocket@@@ 004be910     DataRecorderConnect.obj
 0002:0002d11c       ?messageMap@CDirTreeControl@@1UAFX_MSGMAP@@B 004bf11c     DirTreeControl.obj
 0002:0002d124       ?classCDirTreeControl@CDirTreeControl@@2UCRuntimeClass@@B 004bf124     DirTreeControl.obj
 0002:0002d140       ??_7CDirTreeControl@@6B@   004bf140     DirTreeControl.obj
 0002:0002d280       ??_7?$CArray@VCTime@ATL@@AAV12@@@6B@ 004bf280     DirTreeControl.obj
 0002:0002d5e0       ?messageMap@CHyperLink@@1UAFX_MSGMAP@@B 004bf5e0     HyperLink.obj
 0002:0002d5e8       ?_messageEntries@CHyperLink@@0QBUAFX_MSGMAP_ENTRY@@B 004bf5e8     HyperLink.obj
 0002:0002d648       ??_7CHyperLink@@6B@        004bf648     HyperLink.obj
 0002:0002d834       ??_7CManulCallCom@@6B@     004bf834     ManulCallCom.obj
 0002:0002d9ac       ??_7CFastMessageQ@@6B@     004bf9ac     MessageQ.obj
 0002:0002da0c       ??_7CMySQLLog@@6B@         004bfa0c     MySQLLog.obj
 0002:0002da5c       ??_7CMySysInfo@@6B@        004bfa5c     MySysInfo.obj
 0002:0002db2c       ??_7CMyThread@@6B@         004bfb2c     MyThread.obj
 0002:0002db34       ??_7CPCSCommunicationEvent@@6B@ 004bfb34     PCSCommunicationEvent.obj
 0002:0002db38       ?classCSubclassWnd@CSubclassWnd@@2UCRuntimeClass@@B 004bfb38     Subclass.obj
 0002:0002db64       ??_7CSubclassWnd@@6B@      004bfb64     Subclass.obj
 0002:0002db7c       ??_7CSubclassWndMap@@6B@   004bfb7c     Subclass.obj
 0002:0002dc1c       ?classCTrayIcon@CTrayIcon@@2UCRuntimeClass@@B 004bfc1c     TrayIcon.obj
 0002:0002dc38       ??_7CTrayIcon@@6B@         004bfc38     TrayIcon.obj
 0002:0002dc98       ??_7CTrayHook@CTrayIcon@@6B@ 004bfc98     TrayIcon.obj
 0002:0002dcd3       ??_C@_00CNPNBAHC@?$AA@     004bfcd3     XYTrace.obj
 0002:0002dcd4       ??_C@_0CE@EAEACPOL@?$CFs_?$CF04d?$CF02d?$CF02d_?$CF02d?$CF02d?$CF02d_?$CFX?4@ 004bfcd4     XYTrace.obj
 0002:0002dcf8       ??_C@_05ILLBNNOP@Trace?$AA@ 004bfcf8     XYTrace.obj
 0002:0002eccc       ??_7CTTSBuffer@CTTSConnection@CTTSInterface@@6B@ 004c0ccc     TTSInterface.obj
 0002:0002ecd0       ??_7CTTSConnection@CTTSInterface@@6B@ 004c0cd0     TTSInterface.obj
 0002:0002ecd4       ??_7CTTSInterface@@6B@     004c0cd4     TTSInterface.obj
 0002:0002ecd8       ??_7CASRInterface@@6B@     004c0cd8     ASRInterface.obj
 0002:0002ecdc       ??_C@_0DF@MJJNHEJF@jASR?5Error?5?9?5Failed?5to?5Initializ@ 004c0cdc     ASRInterface.obj
 0002:0002ed14       ??_C@_0CA@BHJJLP@jASR?5Info?5?9?5ASR?5is?5initialized?4?$AA@ 004c0d14     ASRInterface.obj
 0002:0002ed34       ??_C@_0DE@EBHHIFGK@jASR?5Error?5?9?5Failed?5to?5ActiveEng@ 004c0d34     ASRInterface.obj
 0002:0002ed68       ??_C@_0DG@LPOAKGLA@jASR?5Error?5?9?5Failed?5to?5CreateIns@ 004c0d68     ASRInterface.obj
 0002:0002eda0       ??_C@_0DK@NFFAMNPA@jASR?5Error?5?9?5Failed?5to?5Set?5ASR?5P@ 004c0da0     ASRInterface.obj
 0002:0002eddc       ??_C@_0DC@MLKLEOHM@jASR?5Warn?5?9?5Please?5initialize?5AS@ 004c0ddc     ASRInterface.obj
 0002:0002ee10       ??_C@_0DK@JPEFILDO@jASR?5Error?5?9?5Failed?5to?5Load?5Gram@ 004c0e10     ASRInterface.obj
 0002:0002ee50       ??_C@_0EF@HMNNJKDD@jASR?5Warn?5?9?5Failed?5to?5Load?5Gramm@ 004c0e50     ASRInterface.obj
 0002:0002ee98       ??_C@_0EC@DBPBKEEG@jASR?5Error?5?9?5Failed?5to?5DeActive?5@ 004c0e98     ASRInterface.obj
 0002:0002eee0       ??_C@_0EA@HKCHCJOD@jASR?5Error?5?9?5Failed?5to?5Active?5Gr@ 004c0ee0     ASRInterface.obj
 0002:0002ef20       ??_C@_0BD@NHLMOFPD@Power?5Voice?5Server?$AA@ 004c0f20     CMEInterface.obj
 0002:0002ef34       ??_C@_0L@GOJEFEGP@PowerVoice?$AA@ 004c0f34     CMEInterface.obj
 0002:0002ef40       ??_C@_08MGAJMCBO@PicaSoft?$AA@ 004c0f40     CMEInterface.obj
 0002:0002ef4c       ??_7CCMEInterface@@6B@     004c0f4c     CMEInterface.obj
 0002:0002ef50       ??_C@_0FM@NONLNHLI@Error?5?9?5CCMEInterface?3?3?$HOCCMEInte@ 004c0f50     CMEInterface.obj
 0002:0002efac       ??_C@_0BH@JOBIHAMB@ReleaseCMEIVRInterface?$AA@ 004c0fac     CMEInterface.obj
 0002:0002efc4       ??_C@_0BE@LDOOINHL@CMEIVRInterface?4dll?$AA@ 004c0fc4     CMEInterface.obj
 0002:0002efd8       ??_C@_08BABJIOEM@filename?$AA@ 004c0fd8     CMEInterface.obj
 0002:0002efe4       ??_C@_0L@IIFEHOOP@recordfile?$AA@ 004c0fe4     CMEInterface.obj
 0002:0002eff0       ??_C@_0BG@JLDEMNI@consulttransfercancel?$AA@ 004c0ff0     CMEInterface.obj
 0002:0002f008       ??_C@_0BI@KMMBEBBA@consulttransfercomplete?$AA@ 004c1008     CMEInterface.obj
 0002:0002f020       ??_C@_0BF@KHOIPEAJ@consulttransfersetup?$AA@ 004c1020     CMEInterface.obj
 0002:0002f038       ??_C@_06JJLAMBGK@target?$AA@ 004c1038     CMEInterface.obj
 0002:0002f040       ??_C@_0O@BHMEOMIE@blindtransfer?$AA@ 004c1040     CMEInterface.obj
 0002:0002f050       ??_C@_04MCJKHKPG@dtmf?$AA@ 004c1050     CMEInterface.obj
 0002:0002f058       ??_C@_08JELKPEDM@playdtmf?$AA@ 004c1058     CMEInterface.obj
 0002:0002f064       ??_C@_06IEHOPII@digits?$AA@ 004c1064     CMEInterface.obj
 0002:0002f06c       ??_C@_0O@JAADCEOB@collectdigits?$AA@ 004c106c     CMEInterface.obj
 0002:0002f07c       ??_C@_06KKGOIHDP@record?$AA@ 004c107c     CMEInterface.obj
 0002:0002f084       ??_C@_06CEHAOENB@reason?$AA@ 004c1084     CMEInterface.obj
 0002:0002f08c       ??_C@_07IPNMCAN@success?$AA@ 004c108c     CMEInterface.obj
 0002:0002f094       ??_C@_06KJFADLGN@result?$AA@ 004c1094     CMEInterface.obj
 0002:0002f09c       ??_C@_09FPMGHLNI@playmedia?$AA@ 004c109c     CMEInterface.obj
 0002:0002f0a8       ??_C@_0DN@FJAMJDHL@CME?5IVR?5Channel?3?5?$CFd?5received?5?8Ca@ 004c10a8     CMEInterface.obj
 0002:0002f0e8       ??_C@_0L@NIHPBNIG@callhangup?$AA@ 004c10e8     CMEInterface.obj
 0002:0002f0f4       ??_C@_0N@GHGDLHIH@channelindex?$AA@ 004c10f4     CMEInterface.obj
 0002:0002f104       ??_C@_09HJKDPKKL@STARTNODE?$AA@ 004c1104     CMEInterface.obj
 0002:0002f110       ??_C@_0M@OOGELDBL@SERVICECODE?$AA@ 004c1110     CMEInterface.obj
 0002:0002f11c       ??_C@_08CEPKCBJ@calleddn?$AA@ 004c111c     CMEInterface.obj
 0002:0002f128       ??_C@_09LNEHFDKJ@callingdn?$AA@ 004c1128     CMEInterface.obj
 0002:0002f134       ??_C@_02DKCKIIND@?$CFs?$AA@ 004c1134     CMEInterface.obj
 0002:0002f138       ??_C@_0N@BNMNAMM@?$CFY?$CFm?$CFd?$CFH?$CFM?$CFS?$AA@ 004c1138     CMEInterface.obj
 0002:0002f148       ??_C@_0CH@PDPCICNG@Ring?4?4?4?5Ring?4?4?4?5on?5CME?5IVR?5Chann@ 004c1148     CMEInterface.obj
 0002:0002f170       ??_C@_0N@GMFLMPJG@routepointid?$AA@ 004c1170     CMEInterface.obj
 0002:0002f180       ??_C@_08BAPHMGPE@callinit?$AA@ 004c1180     CMEInterface.obj
 0002:0002f18c       ??_C@_05GFHEIIDD@event?$AA@ 004c118c     CMEInterface.obj
 0002:0002f194       ??_C@_06BCLEHNCD@CallID?$AA@ 004c1194     CMEInterface.obj
 0002:0002f19c       ??_C@_0BG@ENBAIGDK@CME?5IVREvent?3?7?$CFs?7?$CFs?$AN?6?$AA@ 004c119c     CMEInterface.obj
 0002:0002f1b8       ??_C@_0EP@CABOCLO@Error?5?9?5CCMEInterface?3?3StartupCM@ 004c11b8     CMEInterface.obj
 0002:0002f208       ??_C@_0FK@EGKPIEML@Error?5?9?5CCMEInterface?3?3StartupCM@ 004c1208     CMEInterface.obj
 0002:0002f264       ??_C@_0BG@CONEHFIL@CreateCMEIVRInterface?$AA@ 004c1264     CMEInterface.obj
 0002:0002f27c       ??_7IPCSParam@@6B@         004c127c     PCSParam.obj
 0002:0002f298       ??_C@_0BK@BHIBLKHE@?4?2PicaCommon?2PCSParam?4cpp?$AA@ 004c1298     PCSParam.obj
 0002:0002f2b4       ??_C@_0BD@ENIKIDMO@CPCSParam?3?3SetBOOL?$AA@ 004c12b4     PCSParam.obj
 0002:0002f2c8       ??_C@_05LAPONLG@false?$AA@ 004c12c8     PCSParam.obj
 0002:0002f2d0       ??_C@_04LOAJBDKD@true?$AA@ 004c12d0     PCSParam.obj
 0002:0002f2d8       ??_C@_0BD@LFHLLMBP@CPCSParam?3?3GetBOOL?$AA@ 004c12d8     PCSParam.obj
 0002:0002f2ec       ??_7out_of_range@std@@6B@  004c12ec     PCSParam.obj
 0002:0002f2f8       ??_C@_0EL@KCNNIKCN@d?3?2pcs_works?2newpowercall_mfc?2po@ 004c12f8     PCSParam.obj
 0002:0002f344       ??_C@_02DPKJAMEF@?$CFd?$AA@ 004c1344     PCSParam.obj
 0002:0002f348       ??_C@_0BC@JFLENPDF@CPCSParam?3?3SetInt?$AA@ 004c1348     PCSParam.obj
 0002:0002f35c       ??_C@_0BC@GCFGHOI@CPCSParam?3?3GetInt?$AA@ 004c135c     PCSParam.obj
 0002:0002f370       ??_7?$CPicaSoftIterator@V?$CPicaSoftMap@V?$CStringT@DV?$StrTraitMFC_DLL@DV?$ChTraitsCRT@D@ATL@@@@@ATL@@V12@@PicaSoft@@@PicaSoft@@6B@ 004c1370     PCSParam.obj
 0002:0002f370       ??_7CIterator@?$CPicaSoftMap@V?$CStringT@DV?$StrTraitMFC_DLL@DV?$ChTraitsCRT@D@ATL@@@@@ATL@@V12@@PicaSoft@@6B@ 004c1370     PCSParam.obj
 0002:0002f374       ??_C@_0BE@JONHPENG@map?1set?$DMT?$DO?5too?5long?$AA@ 004c1374     PCSParam.obj
 0002:0002f388       ??_C@_0BM@PAPJHAGI@invalid?5map?1set?$DMT?$DO?5iterator?$AA@ 004c1388     PCSParam.obj
 0002:0002f3a4       ??_C@_0BF@GDBBMCH@CPCSParam?3?3GetString?$AA@ 004c13a4     PCSParam.obj
 0002:0002f3bc       ??_C@_0BF@CIHEDNLF@CPCSParam?3?3SetString?$AA@ 004c13bc     PCSParam.obj
 0002:0002f3d4       ??_C@_0BF@CJKCLGPP@CPCSParam?3?3CPCSParam?$AA@ 004c13d4     PCSParam.obj
 0002:0002f3ec       ??_7CPCSParam@@6B@         004c13ec     PCSParam.obj
 0002:0002f40c       ??_C@_0BG@KJNBAJGM@CPCSParam?3?3?$HOCPCSParam?$AA@ 004c140c     PCSParam.obj
 0002:0002f428       ?classCPicaSoftSyncObject@CPicaSoftSyncObject@PicaSoft@@2UCPicaSoftRuntimeClass@2@B 004c1428     PicaSoftMultiThread.obj
 0002:0002f530       ?classCPicaSoftEvent@CPicaSoftEvent@PicaSoft@@2UCPicaSoftRuntimeClass@2@B 004c1530     PicaSoftMultiThread.obj
 0002:0002f638       ?classCPicaSoftCriticalSection@CPicaSoftCriticalSection@PicaSoft@@2UCPicaSoftRuntimeClass@2@B 004c1638     PicaSoftMultiThread.obj
 0002:0002f740       ?classCPicaSoftMutex@CPicaSoftMutex@PicaSoft@@2UCPicaSoftRuntimeClass@2@B 004c1740     PicaSoftMultiThread.obj
 0002:0002f848       ?classCPicaSoftSemaphore@CPicaSoftSemaphore@PicaSoft@@2UCPicaSoftRuntimeClass@2@B 004c1848     PicaSoftMultiThread.obj
 0002:0002f950       ?classCPicaSoftSingleLock@CPicaSoftSingleLock@PicaSoft@@2UCPicaSoftRuntimeClass@2@B 004c1950     PicaSoftMultiThread.obj
 0002:0002fa58       ?classCPicaSoftMultiLock@CPicaSoftMultiLock@PicaSoft@@2UCPicaSoftRuntimeClass@2@B 004c1a58     PicaSoftMultiThread.obj
 0002:0002fb60       ?classCPicaSoftWorkThread@CPicaSoftWorkThread@PicaSoft@@2UCPicaSoftRuntimeClass@2@B 004c1b60     PicaSoftMultiThread.obj
 0002:0002fc68       ??_C@_0CF@EPGKEJII@?4?2PicaCommon?2PicaSoftMultiThread@ 004c1c68     PicaSoftMultiThread.obj
 0002:0002fc90       ??_C@_0CE@LPCPMJCD@PicaSoft?3?3CPicaSoftSyncObject?3?3L@ 004c1c90     PicaSoftMultiThread.obj
 0002:0002fcb4       ??_C@_0BD@DGPMOMMM@PicaSoft?3?3DoEvents?$AA@ 004c1cb4     PicaSoftMultiThread.obj
 0002:0002fcc8       ??_C@_0BO@IGGPEIOF@PicaSoft?3?3WaitWithMessageLoop?$AA@ 004c1cc8     PicaSoftMultiThread.obj
 0002:0002fce8       ??_C@_0CD@PHHINOCC@PicaSoft?3?3CPicaSoftEvent?3?3SetEve@ 004c1ce8     PicaSoftMultiThread.obj
 0002:0002fd0c       ??_C@_0CB@OLMHLPMK@PicaSoft?3?3CPicaSoftEvent?3?3Unlock@ 004c1d0c     PicaSoftMultiThread.obj
 0002:0002fd30       ??_C@_0CD@NPAAKGJ@PicaSoft?3?3CPicaSoftEvent?3?3IsSign@ 004c1d30     PicaSoftMultiThread.obj
 0002:0002fd54       ??_C@_0CJ@BNKIOHJH@PicaSoft?3?3CPicaSoftCriticalSecti@ 004c1d54     PicaSoftMultiThread.obj
 0002:0002fd80       ??_C@_0CJ@KNDJIEMK@PicaSoft?3?3CPicaSoftCriticalSecti@ 004c1d80     PicaSoftMultiThread.obj
 0002:0002fdac       ??_C@_0CL@CDHABIOP@PicaSoft?3?3CPicaSoftCriticalSecti@ 004c1dac     PicaSoftMultiThread.obj
 0002:0002fdd8       ??_C@_0CE@OGBIEAMI@PicaSoft?3?3CPicaSoftSingleLock?3?3L@ 004c1dd8     PicaSoftMultiThread.obj
 0002:0002fdfc       ??_C@_0CD@PKFAJDFI@PicaSoft?3?3CPicaSoftMultiLock?3?3Lo@ 004c1dfc     PicaSoftMultiThread.obj
 0002:0002fe20       ??_C@_0CF@ODNECCNJ@PicaSoft?3?3CPicaSoftMultiLock?3?3Un@ 004c1e20     PicaSoftMultiThread.obj
 0002:0002fe48       ??_C@_0CC@DELACCDF@PicaSoft?3?3CPicaSoftMultiLock?3?3Ad@ 004c1e48     PicaSoftMultiThread.obj
 0002:0002fe6c       ??_C@_0CG@HFHCNBGK@PicaSoft?3?3CPicaSoftMultiLock?3?3Ge@ 004c1e6c     PicaSoftMultiThread.obj
 0002:0002fe94       ??_C@_0CO@CLBBJFNF@PicaSoft?3?3CPicaSoftWorkThread?3?3W@ 004c1e94     PicaSoftMultiThread.obj
 0002:0002fec4       ??_C@_0CI@BIKIHGLI@PicaSoft?3?3CPicaSoftWorkThread?3?3I@ 004c1ec4     PicaSoftMultiThread.obj
 0002:0002feec       ??_C@_0CG@HFCHMNND@PicaSoft?3?3CPicaSoftWorkThread?3?3D@ 004c1eec     PicaSoftMultiThread.obj
 0002:0002ff14       ??_C@_0CP@OMGJFDKL@PicaSoft?3?3CPicaSoftWorkThread?3?3I@ 004c1f14     PicaSoftMultiThread.obj
 0002:0002ff44       ??_C@_0DB@CCEFFNP@PicaSoft?3?3CPicaSoftWorkThread?3?3S@ 004c1f44     PicaSoftMultiThread.obj
 0002:0002ff78       ??_C@_0CG@EFCLFCNJ@PicaSoft?3?3CPicaSoftWorkThread?3?3U@ 004c1f78     PicaSoftMultiThread.obj
 0002:0002ffa0       ??_7CPicaSoftTattyAutoPtr@PicaSoft@@6B@ 004c1fa0     PicaSoftMultiThread.obj
 0002:0002ffa4       ??_C@_0BA@FHDKHNAF@CPicaSoftObject?$AA@ 004c1fa4     PicaSoftMultiThread.obj
 0002:0002ffb4       ??_7CPicaSoftObject@PicaSoft@@6B@ 004c1fb4     PicaSoftMultiThread.obj
 0002:0002ffc4       ??_C@_0DD@MKNPDOAF@PicaSoft?3?3CPicaSoftSyncObject?3?3C@ 004c1fc4     PicaSoftMultiThread.obj
 0002:0002fff8       ??_7CPicaSoftSyncObject@PicaSoft@@6B@ 004c1ff8     PicaSoftMultiThread.obj
 0002:00030018       ??_C@_0EN@HCMEGHGE@d?3?2pcs_works?2newpowercall_mfc?2po@ 004c2018     PicaSoftMultiThread.obj
 0002:00030068       ??_C@_0CG@KEKBHPHB@PicaSoft?3?3CPicaSoftSyncObject?3?3U@ 004c2068     PicaSoftMultiThread.obj
 0002:00030090       ??_C@_0DE@MGKPIBBG@PicaSoft?3?3CPicaSoftSyncObject?3?3?$HO@ 004c2090     PicaSoftMultiThread.obj
 0002:000300c4       ??_C@_0CH@KAJLMODO@PicaSoft?3?3CPicaSoftSyncObject?3?3M@ 004c20c4     PicaSoftMultiThread.obj
 0002:000300ec       ??_C@_0BD@HKJKFAGO@Resource?5Exception?$AA@ 004c20ec     PicaSoftMultiThread.obj
 0002:00030100       ??_C@_0CJ@PCJGKDEK@PicaSoft?3?3CPicaSoftEvent?3?3CPicaS@ 004c2100     PicaSoftMultiThread.obj
 0002:0003012c       ??_7CPicaSoftEvent@PicaSoft@@6B@ 004c212c     PicaSoftMultiThread.obj
 0002:0003014c       ??_C@_0CK@FOPPLEGI@PicaSoft?3?3CPicaSoftEvent?3?3?$HOCPica@ 004c214c     PicaSoftMultiThread.obj
 0002:00030178       ??_C@_0DN@IECKHGMJ@PicaSoft?3?3CPicaSoftCriticalSecti@ 004c2178     PicaSoftMultiThread.obj
 0002:000301b8       ??_7CPicaSoftCriticalSection@PicaSoft@@6B@ 004c21b8     PicaSoftMultiThread.obj
 0002:000301d8       ??_C@_0DO@PGBFPEKF@PicaSoft?3?3CPicaSoftCriticalSecti@ 004c21d8     PicaSoftMultiThread.obj
 0002:00030218       ??_C@_0BB@PGPHDJDI@Memory?5Exception?$AA@ 004c2218     PicaSoftMultiThread.obj
 0002:0003022c       ??_C@_0DD@ECLNBOBO@PicaSoft?3?3CPicaSoftSingleLock?3?3C@ 004c222c     PicaSoftMultiThread.obj
 0002:00030260       ??_7CPicaSoftSingleLock@PicaSoft@@6B@ 004c2260     PicaSoftMultiThread.obj
 0002:00030270       ??_C@_0DE@CNOLFGBE@PicaSoft?3?3CPicaSoftSingleLock?3?3?$HO@ 004c2270     PicaSoftMultiThread.obj
 0002:000302a4       ??_C@_0DB@DOFGNOLH@PicaSoft?3?3CPicaSoftMultiLock?3?3CP@ 004c22a4     PicaSoftMultiThread.obj
 0002:000302d8       ??_7CPicaSoftMultiLock@PicaSoft@@6B@ 004c22d8     PicaSoftMultiThread.obj
 0002:000302e8       ??_C@_0DC@IHGBIDKO@PicaSoft?3?3CPicaSoftMultiLock?3?3?$HOC@ 004c22e8     PicaSoftMultiThread.obj
 0002:0003031c       ??_C@_0DD@JGNEILBL@PicaSoft?3?3CPicaSoftWorkThread?3?3C@ 004c231c     PicaSoftMultiThread.obj
 0002:00030350       ??_7CPicaSoftWorkThread@PicaSoft@@6B@ 004c2350     PicaSoftMultiThread.obj
 0002:00030378       ??_C@_0CN@FBMAECIF@PicaSoft?3?3CPicaSoftWorkThread?3?3S@ 004c2378     PicaSoftMultiThread.obj
 0002:000303a8       ??_C@_0L@FOJEDHID@?N?$NO?$LK?t?$LN?P?$LG?Q?U?$LL?$AA@ 004c23a8     PicaSoftMultiThread.obj
 0002:000303b8       ??_C@_0EA@OGFFPJHL@?O?$NP?$LD?L?5?8?$CFs?8?5?$LH?$KC?I?z?N?$LE?$LE?$KG?$MA?m?$LF?D?R?l?$LD?$KD?$KD?$KM?R?Q?$LO?$KN@ 004c23b8     PicaSoftMultiThread.obj
 0002:000303f8       ??_C@_0CO@KENDCFC@?O?$NP?$LD?L?5?8?$CFs?8?5?R?Q?$LO?$KN?M?$KD?V?$LJ?$KD?$KMID?$DN?$CFd?$CI0x?$CFX?$CJ?0@ 004c23f8     PicaSoftMultiThread.obj
 0002:00030428       ??_C@_0CC@JPHDBKCK@?O?$NP?$LD?L?5?8?$CFs?8?5?R?Q?$LO?$KN?F?t?$LG?$KP?$KD?$KMID?$DN?$CFd?$CI0x?$CFX?$CJ?$AN@ 004c2428     PicaSoftMultiThread.obj
 0002:0003044c       ??_C@_0CI@FNHIOIAC@PicaSoft?3?3CPicaSoftWorkThread?3?3W@ 004c244c     PicaSoftMultiThread.obj
 0002:00030478       ??_C@_0GC@JDHPHBL@?$FL?$CFs?$FN?V?$LE?P?P?O?$NP?$LD?L?8?$CFd?$CI0x?$CFX?$CJ?8?V?$LE?P?P?J?$KH?$LA?$NM?0?T@ 004c2478     PicaSoftMultiThread.obj
 0002:000304dc       ??_C@_0CD@BLFLMHGL@PicaSoft?3?3CPicaSoftWorkThread?3?3R@ 004c24dc     PicaSoftMultiThread.obj
 0002:00030500       ??_C@_0CP@OEDDPCHK@PicaSoft?3?3CPicaSoftWorkThread?3?3T@ 004c2500     PicaSoftMultiThread.obj
 0002:00030530       ??_C@_0FI@DFBIJFMF@PicaSoft?3?3CPicaSoftMemfunWorkThr@ 004c2530     PicaSoftMultiThread.obj
 0002:00030588       ??_C@_0BD@OLBABOEK@vector?$DMT?$DO?5too?5long?$AA@ 004c2588     PicaSoftMultiThread.obj
 0002:0003059c       ??_C@_0DE@PNBEABKE@PicaSoft?3?3CPicaSoftWorkThread?3?3?$HO@ 004c259c     PicaSoftMultiThread.obj
 0002:000305d0       ??_C@_0CD@DMGJIHEA@?I?h?$LG?$KI?O?$NP?$LD?L?8?$CFs?8?S?E?O?H?$LM?$LG?J?$KH?$LA?$NM?0?$LE?m?N?sID?3?$CFd@ 004c25d0     PicaSoftMultiThread.obj
 0002:000305f4       ??_C@_0BN@BLAHOPLL@?$LE?$LE?$LN?$KI?O?$NP?$LD?L?8?$CFs?8?J?$KH?$LA?$NM?0?$LE?m?N?sID?3?$CFd?$AN?6?$AA@ 004c25f4     PicaSoftMultiThread.obj
 0002:00030614       ??_C@_0CL@FMHOAEON@PicaSoft?3?3CPicaSoftWorkThread?3?3S@ 004c2614     PicaSoftMultiThread.obj
 0002:00030640       ??_7?$CPicaSoftMemfunWorkThread@VCPicaSoftThreadPool@PicaSoft@@@PicaSoft@@6B@ 004c2640     PicaSoftMultiThread.obj
 0002:00030668       ??_C@_0FP@HDAGHLBO@?$FL?$CFs?$FN?O?$NP?$LD?L?8?$CFd?$CI0x?$CFX?$CJ?8?V?$LE?P?P?J?$KH?$LA?$NM?0?T?$KN?R?r?3@ 004c2668     PicaSoftMultiThread.obj
 0002:000306c8       ??_C@_0EO@BECKBKGB@PicaSoft?3?3CPicaSoftMemfunWorkThr@ 004c26c8     PicaSoftMultiThread.obj
 0002:00030718       ??_7SThreadInfo@CPicaSoftThreadPool@PicaSoft@@6B@ 004c2718     PicaSoftMultiThread.obj
 0002:0003071c       ??_C@_0BH@KPPPMLOO@?O?$NP?$LD?L?$LD?X?$FL0x?$CF08X?$FN?5?$CD?$CFu?O?$NP?$LD?L?$AA@ 004c271c     PicaSoftMultiThread.obj
 0002:00030734       ??_C@_0P@CLKNBLMA@?O?$NP?$LD?L?$LD?X?$KD?$LK?$LG?$KI?J?$LB?F?w?$AA@ 004c2734     PicaSoftMultiThread.obj
 0002:00030748       ?classCPicaSoftObject@CPicaSoftObject@PicaSoft@@2UCPicaSoftRuntimeClass@2@B 004c2748     PicaSoftObject.obj
 0002:00030850       ??_C@_0FG@FFCGMEPN@?$LK?$KP?J?$PN?$CI?8?$CFs?8?$CJ?7?$LF?w?S?C?$CI?$CFd?$CJ?7?$LN?x?H?k?J?$LB?$LM?d?$CI?8?$CF0@ 004c2850     PicaSoftObject.obj
 0002:000308a8       ??_C@_0CG@JOAACJEN@?9?9?9?9?9?9?9?9?9?9?9?9?9?9?9?9?9?9?9?9?9?9?9?9?9?9?9?9?9?9?9?9@ 004c28a8     PicaSoftObject.obj
 0002:000308d0       ??_C@_0CD@MBIPGJMC@Thread?5?$CFd?$FL0x?$CFX?$FN?5call?5stack?5list?3@ 004c28d0     PicaSoftObject.obj
 0002:000308f4       ??_C@_0CA@IDMOKACG@?4?2PicaCommon?2PicaSoftObject?4cpp?$AA@ 004c28f4     PicaSoftObject.obj
 0002:00030914       ??_C@_0CB@DJGPBPED@?9?9?9?9?9?9?9?9?9?9?9?9?9?9?9?9?9?9?9?9?9?9?9?9?9?9?$DO?$DO?$DO?$DO?$AN?6@ 004c2914     PicaSoftObject.obj
 0002:00030938       ??_C@_0CB@LCJBEEBI@?$LF?$LB?G?$LA?O?$NP?$LD?L?P?E?O?$KC?9?9?9?9?9?9?9?9?9?9?9?9?9?9?$DO?$DO?$DO?$DO?$AN?6@ 004c2938     PicaSoftObject.obj
 0002:0003095c       ??_C@_0BF@GOPPIMBG@?O?$NP?$LD?L?$LF?w?S?C?$LG?Q?U?$LL?A?P?$LB?m?$KD?$LK?$AN?6?$AA@ 004c295c     PicaSoftObject.obj
 0002:00030974       ??_C@_0BH@GHAPLLCM@?K?y?S?P?O?$NP?$LD?L?$LF?w?S?C?$LG?$LM?R?Q?M?K?$LD?v?$AN?6?$AA@ 004c2974     PicaSoftObject.obj
 0002:0003098c       ??_C@_0BO@HNBJHCAO@CPicaSoftCallStack?5Destory?$CB?$AN?6?$AA@ 004c298c     PicaSoftObject.obj
 0002:000309cc       ??_C@_06JBKGCNBB@Delete?$AA@ 004c29cc     mfcs71d:stdafx.obj
 0002:000309d4       ??_C@_08KAAPDIAN@NoRemove?$AA@ 004c29d4     mfcs71d:stdafx.obj
 0002:000309e0       ??_C@_0M@DBGDLGLL@ForceRemove?$AA@ 004c29e0     mfcs71d:stdafx.obj
 0002:000309ec       ??_C@_03LAIAPFCB@Val?$AA@  004c29ec     mfcs71d:stdafx.obj
 0002:000309f0       ??_C@_01HMGJMAIH@B?$AA@    004c29f0     mfcs71d:stdafx.obj
 0002:000309f4       ??_C@_01CKDDGHAB@D?$AA@    004c29f4     mfcs71d:stdafx.obj
 0002:000309f8       ??_C@_01PLPBNMEI@M?$AA@    004c29f8     mfcs71d:stdafx.obj
 0002:000309fc       ??_C@_01CPLAODJH@S?$AA@    004c29fc     mfcs71d:stdafx.obj
 0002:00030a00       ??_C@_0DP@FKIBBBPJ@f?3?2vs70builds?26030?2vc?2MFCATL?2shi@ 004c2a00     mfcs71d:stdafx.obj
 0002:00030a40       ??_C@_0CA@CLKCNBMB@nIndex?5?$DO?$DN?50?5?$CG?$CG?5nIndex?5?$DM?5m_nSize?$AA@ 004c2a40     mfcs71d:stdafx.obj
 0002:00030ab0       ??_C@_0BO@GNIAFIKK@Unknown?5Runtime?5Check?5Error?6?$AN?$AA@ 004c2ab0     msvcrtd:error.obj
 0002:00030ad0       ??_C@_0DG@HKJMLLLP@A?5local?5variable?5was?5used?5before@ 004c2ad0     msvcrtd:error.obj
 0002:00030b08       ??_C@_0BN@FFOINMNJ@Stack?5memory?5was?5corrupted?6?$AN?$AA@ 004c2b08     msvcrtd:error.obj
 0002:00030b28       ??_C@_0BBN@GPMLNJCF@A?5cast?5to?5a?5smaller?5data?5type?5ha@ 004c2b28     msvcrtd:error.obj
 0002:00030c48       ??_C@_0NN@NGPKDKPD@The?5value?5of?5ESP?5was?5not?5properl@ 004c2c48     msvcrtd:error.obj
 0002:00030d28       ??_C@_0CA@IODNCDPG@Run?9Time?5Check?5Failure?5?$CD?$CFd?5?9?5?$CFs?$AA@ 004c2d28     msvcrtd:error.obj
 0002:00030d64       ??_C@_0BB@JEGFEAAM@?8?5was?5corrupted?4?$AA@ 004c2d64     msvcrtd:error.obj
 0002:00030d78       ??_C@_0BM@FGFAMDLF@Stack?5around?5the?5variable?5?8?$AA@ 004c2d78     msvcrtd:error.obj
 0002:00030d94       ??_C@_0DA@BEGFPCGG@A?5variable?5is?5being?5used?5without@ 004c2d94     msvcrtd:error.obj
 0002:00030dc4       ??_C@_0CH@LOIIHGKM@?8?5is?5being?5used?5without?5being?5de@ 004c2dc4     msvcrtd:error.obj
 0002:00030dec       ??_C@_0P@HLKMHJCG@The?5variable?5?8?$AA@ 004c2dec     msvcrtd:error.obj
 0002:00030dfc       ??_C@_0BC@KNBMEBEO@IsDebuggerPresent?$AA@ 004c2dfc     msvcrtd:error.obj
 0002:00030e10       ??_C@_0N@HAOHNMDE@Kernel32?4dll?$AA@ 004c2e10     msvcrtd:error.obj
 0002:00030e24       ??_7type_info@@6B@         004c2e24     msvcrtd:ti_inst.obj
 0002:00030e34       ??_C@_0CK@CNLNOEPB@Local?5variable?5used?5before?5initi@ 004c2e34     msvcrtd:userapi.obj
 0002:00030e60       ??_C@_0BI@CIGMDCBH@Stack?5memory?5corruption?$AA@ 004c2e60     msvcrtd:userapi.obj
 0002:00030e78       ??_C@_0CK@FEGOIOPB@Cast?5to?5smaller?5type?5causing?5los@ 004c2e78     msvcrtd:userapi.obj
 0002:00030ea4       ??_C@_0BJ@HEGAHDFO@Stack?5pointer?5corruption?$AA@ 004c2ea4     msvcrtd:userapi.obj
 0002:00030ec0       ??_C@_0M@HHEBEAAO@MSPDB71?4DLL?$AA@ 004c2ec0     msvcrtd:pdblkup.obj
 0002:00030ecc       ??_C@_01KDCPPGHE@r?$AA@    004c2ecc     msvcrtd:pdblkup.obj
 0002:00030ed0       ??_C@_08ONJBEOFA@PDBClose?$AA@ 004c2ed0     msvcrtd:pdblkup.obj
 0002:00030edc       ??_C@_08NINFAAFA@DBIClose?$AA@ 004c2edc     msvcrtd:pdblkup.obj
 0002:00030ee8       ??_C@_08LIGPJJNA@ModClose?$AA@ 004c2ee8     msvcrtd:pdblkup.obj
 0002:00030ef4       ??_C@_0O@IPLOKOKN@ModQueryLines?$AA@ 004c2ef4     msvcrtd:pdblkup.obj
 0002:00030f04       ??_C@_0BE@GDNPNLGH@DBIQueryModFromAddr?$AA@ 004c2f04     msvcrtd:pdblkup.obj
 0002:00030f18       ??_C@_0L@KPMOCKEL@PDBOpenDBI?$AA@ 004c2f18     msvcrtd:pdblkup.obj
 0002:00030f24       ??_C@_0BB@PENKIMFE@PDBOpenValidate3?$AA@ 004c2f24     msvcrtd:pdblkup.obj
 0002:00030f38       ??_C@_0N@KIGOLBLC@Module32Next?$AA@ 004c2f38     msvcrtd:pdblkup.obj
 0002:00030f48       ??_C@_0O@CNMFJJGO@Module32First?$AA@ 004c2f48     msvcrtd:pdblkup.obj
 0002:00030f58       ??_C@_0BF@OCLFCNKN@GetModuleInformation?$AA@ 004c2f58     msvcrtd:pdblkup.obj
 0002:00030f70       ??_C@_0BD@FIEJBLME@EnumProcessModules?$AA@ 004c2f70     msvcrtd:pdblkup.obj
 0002:00030f84       ??_C@_09EPMADGLA@PSAPI?4DLL?$AA@ 004c2f84     msvcrtd:pdblkup.obj
 0002:00030f90       ??_C@_0BJ@JEFKDHMD@CreateToolhelp32Snapshot?$AA@ 004c2f90     msvcrtd:pdblkup.obj
 0002:00030fac       ??_C@_0O@CHDGJGFP@ImageNtHeader?$AA@ 004c2fac     msvcrtd:pdblkup.obj
 0002:00030fbc       ??_C@_0N@KBGMOMJO@IMAGEHLP?4DLL?$AA@ 004c2fbc     msvcrtd:pdblkup.obj
 0002:00030fcc       ??_C@_0N@NHGLKGEC@KERNEL32?4DLL?$AA@ 004c2fcc     msvcrtd:pdblkup.obj
 0002:00030fdc       ??_C@_0BF@BMIHBHCA@EnvironmentDirectory?$AA@ 004c2fdc     msvcrtd:pdblkup.obj
 0002:00030ff4       ??_C@_0CN@KGLAKABH@SOFTWARE?2Microsoft?2VisualStudio?2@ 004c2ff4     msvcrtd:pdblkup.obj
 0002:00031024       ??_C@_0M@HLOHPNFA@RegCloseKey?$AA@ 004c3024     msvcrtd:pdblkup.obj
 0002:00031030       ??_C@_0BB@HHEIPGME@RegQueryValueExA?$AA@ 004c3030     msvcrtd:pdblkup.obj
 0002:00031044       ??_C@_0O@DCOGKJGG@RegOpenKeyExA?$AA@ 004c3044     msvcrtd:pdblkup.obj
 0002:00031054       ??_C@_0N@JJPEKNFO@ADVAPI32?4DLL?$AA@ 004c3054     msvcrtd:pdblkup.obj
 0002:00031084       _IID_IDispatch             004c3084     uuid:oaidl_i.obj
 0002:00031094       _GUID_NULL                 004c3094     uuid:cguid_i.obj
 0002:000310a4       __GUID_df0b3d60_548f_101b_8e65_08002b2bd119 004c30a4     comsuppd:comsupp.obj
 0002:000310c8       ??_7_com_error@@6B@        004c30c8     comsuppd:comraise.obj
 0002:00032bb4       __GUID_b196b284_bab4_101a_b69c_00aa00341d07 004c4bb4     atlsd:atlfuncs.obj
 0002:00032bc4       ??_C@_0DN@PDNBECNA@f?3?2vs70builds?26030?2vc?2MFCATL?2shi@ 004c4bc4     atlsd:atlfuncs.obj
 0002:00032c04       ??_C@_04DBLLIIGB@p?$DN?$DN0?$AA@ 004c4c04     atlsd:atlfuncs.obj
 0002:00032c0c       ??_C@_04CLHEGAEG@p?$CB?$DN0?$AA@ 004c4c0c     atlsd:atlfuncs.obj
 0002:00032c24       ??_C@_0DL@DODOJDGB@f?3?2vs70builds?26030?2vc?2MFCATL?2shi@ 004c4c24     atlsd:atlfuncs.obj
 0002:00032c60       ??_C@_09HIEJFN@m_bLocked?$AA@ 004c4c60     atlsd:atlfuncs.obj
 0002:00032c6c       ??_C@_0L@MPGHMANA@?$CBm_bLocked?$AA@ 004c4c6c     atlsd:atlfuncs.obj
 0002:00032c78       _GUID_ATLVer30             004c4c78     atlsd:atlbase.obj
 0002:00032c88       _GUID_ATLVer70             004c4c88     atlsd:atlbase.obj
 0002:00033400       ??_C@_0EO@EBKHEIBN@f?3?2vs70builds?26030?2vc?2mfcatl?2shi@ 004c5400     atlsd:Allocate.obj
 0002:00033450       ??_C@_0N@HGPIKDNG@nCookie?5?$CB?$DN?50?$AA@ 004c5450     atlsd:Allocate.obj
 0002:00033690       ??_C@_0N@OHCOOONG@appmodul?4cpp?$AA@ 004c5690     mfcs71d:appmodul.obj
 0002:000336a0       __load_config_used         004c56a0     msvcrtd:loadcfg.obj
 0002:00033754       ??_R1A@?0A@A@type_info@@8  004c5754     msvcrtd:ti_inst.obj
 0002:0003376c       ??_R2type_info@@8          004c576c     msvcrtd:ti_inst.obj
 0002:00033774       ??_R3type_info@@8          004c5774     msvcrtd:ti_inst.obj
 0002:00033784       ??_R4type_info@@6B@        004c5784     msvcrtd:ti_inst.obj
 0002:00033798       ??_R1A@?0A@A@_com_error@@8 004c5798     comsuppd:comraise.obj
 0002:000337b0       ??_R2_com_error@@8         004c57b0     comsuppd:comraise.obj
 0002:000337b8       ??_R3_com_error@@8         004c57b8     comsuppd:comraise.obj
 0002:000337c8       ??_R4_com_error@@6B@       004c57c8     comsuppd:comraise.obj
 0002:000337e0       ___safe_se_handler_table   004c57e0     <linker-defined>
 0002:00033e7c       ___rtc_iaa                 004c5e7c     msvcrtd:initsect.obj
 0002:00033e84       ___rtc_izz                 004c5e84     msvcrtd:initsect.obj
 0002:00033e88       ___rtc_taa                 004c5e88     msvcrtd:initsect.obj
 0002:00033e90       ___rtc_tzz                 004c5e90     msvcrtd:initsect.obj
 0002:00039550       __CT??_R0?AVexception@@@8??0exception@@QAE@ABV0@@Z12 004cb550     StdAfx.obj
 0002:00039950       __CT??_R0?AVlogic_error@std@@@8??0logic_error@std@@QAE@ABV01@@Z40 004cb950     CheckGroupBox.obj
 0002:0003996c       __CT??_R0?AVlength_error@std@@@8??0length_error@std@@QAE@ABV01@@Z40 004cb96c     CheckGroupBox.obj
 0002:00039988       __CTA3?AVlength_error@std@@ 004cb988     CheckGroupBox.obj
 0002:00039998       __TI3?AVlength_error@std@@ 004cb998     CheckGroupBox.obj
 0002:0003ae80       __CT??_R0J@84              004cce80     PCSParam.obj
 0002:0003ae9c       __CTA1J                    004cce9c     PCSParam.obj
 0002:0003aea4       __TI1J                     004ccea4     PCSParam.obj
 0002:0003aed8       __CT??_R0?AVout_of_range@std@@@8??0out_of_range@std@@QAE@ABV01@@Z40 004cced8     PCSParam.obj
 0002:0003aef4       __CTA3?AVout_of_range@std@@ 004ccef4     PCSParam.obj
 0002:0003af04       __TI3?AVout_of_range@std@@ 004ccf04     PCSParam.obj
 0002:0003b1a0       __CT??_R0PAX@84            004cd1a0     PicaSoftMultiThread.obj
 0002:0003b1bc       __CT??_R0PAD@84            004cd1bc     PicaSoftMultiThread.obj
 0002:0003b1d8       __CTA2PAD                  004cd1d8     PicaSoftMultiThread.obj
 0002:0003b1e4       __TI2PAD                   004cd1e4     PicaSoftMultiThread.obj
 0002:0003b934       __CT??_R0H@84              004cd934     PicaSoftObject.obj
 0002:0003b950       __CTA1H                    004cd950     PicaSoftObject.obj
 0002:0003b958       __TI1H                     004cd958     PicaSoftObject.obj
 0002:0003ba08       __CT??_R0?AV_com_error@@@8??0_com_error@@QAE@ABV0@@Z16 004cda08     comsuppd:comraise.obj
 0002:0003ba24       __CTA1?AV_com_error@@      004cda24     comsuppd:comraise.obj
 0002:0003ba2c       __TI1?AV_com_error@@       004cda2c     comsuppd:comraise.obj
 0002:0003ba3c       __CT??_R0?AVCAtlException@ATL@@@84 004cda3c     atlsd:Externs.obj
 0002:0003ba58       __CTA1?AVCAtlException@ATL@@ 004cda58     atlsd:Externs.obj
 0002:0003ba60       __TI1?AVCAtlException@ATL@@ 004cda60     atlsd:Externs.obj
 0002:0003ba70       __IMPORT_DESCRIPTOR_VERSION 004cda70     version:VERSION.dll
 0002:0003ba84       __IMPORT_DESCRIPTOR_jASR   004cda84     jASR:jASR.dll
 0002:0003ba98       __IMPORT_DESCRIPTOR_jTTS_ML 004cda98     jTTS_ML:jTTS_ML.dll
 0002:0003baac       __IMPORT_DESCRIPTOR_MFC71D 004cdaac     mfc71d:MFC71D.DLL
 0002:0003bac0       __IMPORT_DESCRIPTOR_MSVCR71D 004cdac0     msvcrtd:MSVCR71D.dll
 0002:0003bad4       __IMPORT_DESCRIPTOR_KERNEL32 004cdad4     kernel32:KERNEL32.dll
 0002:0003bae8       __IMPORT_DESCRIPTOR_USER32 004cdae8     user32:USER32.dll
 0002:0003bafc       __IMPORT_DESCRIPTOR_GDI32  004cdafc     gdi32:GDI32.dll
 0002:0003bb10       __IMPORT_DESCRIPTOR_ADVAPI32 004cdb10     advapi32:ADVAPI32.dll
 0002:0003bb24       __IMPORT_DESCRIPTOR_SHELL32 004cdb24     shell32:SHELL32.dll
 0002:0003bb38       __IMPORT_DESCRIPTOR_ole32  004cdb38     ole32:ole32.dll
 0002:0003bb4c       __IMPORT_DESCRIPTOR_OLEAUT32 004cdb4c     oleaut32:OLEAUT32.dll
 0002:0003bb60       __IMPORT_DESCRIPTOR_WS2_32 004cdb60     ws2_32:WS2_32.dll
 0002:0003bb74       __IMPORT_DESCRIPTOR_MSVCP71D 004cdb74     msvcprtd:MSVCP71D.dll
 0002:0003bb88       __IMPORT_DESCRIPTOR_NETAPI32 004cdb88     Netapi32:NETAPI32.dll
 0002:0003bb9c       __NULL_IMPORT_DESCRIPTOR   004cdb9c     version:VERSION.dll
 0003:00000000       ___xc_a                    004d1000     msvcrtd:cinitexe.obj
 0003:000000c4       ___xc_z                    004d10c4     msvcrtd:cinitexe.obj
 0003:000000c8       ___xi_a                    004d10c8     msvcrtd:cinitexe.obj
 0003:000000cc       ___xi_z                    004d10cc     msvcrtd:cinitexe.obj
 0003:000000e0       ?gb_Tone@@3PAUSTone_T@@A   004d10e0     _Global.obj
 0003:0000031c       ?g_pfnGetThreadACP@ATL@@3P6GIXZA 004d131c     BrowsePath.obj
 0003:000004b0       ??_R0?AV_com_error@@@8     004d14b0     IVRChannel.obj
 0003:00000648       ??_R0?AVexception@@@8      004d1648     StdAfx.obj
 0003:000006e8       ??_R0?AVlogic_error@std@@@8 004d16e8     CheckGroupBox.obj
 0003:00000708       ??_R0?AVlength_error@std@@@8 004d1708     CheckGroupBox.obj
 0003:000008f0       ??_R0J@8                   004d18f0     PCSParam.obj
 0003:000008fc       ??_R0?AVout_of_range@std@@@8 004d18fc     PCSParam.obj
 0003:0000091c       ??_R0PAX@8                 004d191c     PicaSoftMultiThread.obj
 0003:0000092c       ??_R0PAD@8                 004d192c     PicaSoftMultiThread.obj
 0003:0000093c       ??_R0H@8                   004d193c     PicaSoftObject.obj
 0003:00000948       ___security_cookie         004d1948     msvcrtd:seccook.obj
 0003:00000950       ?_RTC_ErrorLevels@@3PAHA   004d1950     msvcrtd:error.obj
 0003:00000974       ??_R0?AVtype_info@@@8      004d1974     msvcrtd:ti_inst.obj
 0003:000009a4       ___defaultmatherr          004d19a4     msvcrtd:merr.obj
 0003:000009a8       ?__errorPfn@@3P6GXJPAUIErrorInfo@@@ZA 004d19a8     comsuppd:comsupp.obj
 0003:000009ac       ?g_pszUpdateEventName@@3PBDB 004d19ac     atlsd:Externs.obj
 0003:000009b0       ?g_pszAllocFileMapName@@3PBDB 004d19b0     atlsd:Externs.obj
 0003:000009b4       ?g_pszKernelObjFmt@@3PBDB  004d19b4     atlsd:Externs.obj
 0003:000009b8       ??_R0?AVCAtlException@ATL@@@8 004d19b8     atlsd:Externs.obj
 0003:000009e0       ?gb_Enable2DiscSTone@@3HA  004d19e0     _Global.obj
 0003:000009e4       ?gb_Enable2DiscDTone@@3HA  004d19e4     _Global.obj
 0003:000009e8       ?gb_lngRoutePointCheckTimer@@3KA 004d19e8     _Global.obj
 0003:000009ec       ?glngInvokeID@@3KA         004d19ec     _Global.obj
 0003:000009f0       ?gb_NT_ABS_Disconnect@@3IA 004d19f0     _Global.obj
 0003:000009f4       ?gb_NT_CaptureABSignal@@3HA 004d19f4     _Global.obj
 0003:000009f8       ?gb_NT_IncludeD41@@3HA     004d19f8     _Global.obj
 0003:000009fc       ?gb_NT_UserGlobalCall@@3HA 004d19fc     _Global.obj
 0003:00000a00       ?g_blnAnalogAsynDivert@@3HA 004d1a00     _Global.obj
 0003:00000a04       ?gb_RingsPreOffhook@@3HA   004d1a04     _Global.obj
 0003:00000a08       ?gb_VoiceVolume@@3HA       004d1a08     _Global.obj
 0003:00000a10       ?PIVRCH@@3PAPAVCIVRChannel@@A 004d1a10     _Global.obj
 0003:00001210       ?PIVRGroup@@3PAPAVCIVRGroup@@A 004d2210     _Global.obj
 0003:00001610       ?PGroupInfo@@3PAUSIVR_Group@@A 004d2610     _Global.obj
 0003:00003210       ?PChannelDN@@3PAV?$CStringT@DV?$StrTraitMFC_DLL@DV?$ChTraitsCRT@D@ATL@@@@@ATL@@A 004d4210     _Global.obj
 0003:00003a10       ?gb_FN_VoxPath@@3V?$CStringT@DV?$StrTraitMFC_DLL@DV?$ChTraitsCRT@D@ATL@@@@@ATL@@A 004d4a10     _Global.obj
 0003:00003a14       ?gb_FN_RecPath@@3V?$CStringT@DV?$StrTraitMFC_DLL@DV?$ChTraitsCRT@D@ATL@@@@@ATL@@A 004d4a14     _Global.obj
 0003:00003a18       ?gb_FN_TempPath@@3V?$CStringT@DV?$StrTraitMFC_DLL@DV?$ChTraitsCRT@D@ATL@@@@@ATL@@A 004d4a18     _Global.obj
 0003:00003a1c       ?gb_NT_Protocol@@3V?$CStringT@DV?$StrTraitMFC_DLL@DV?$ChTraitsCRT@D@ATL@@@@@ATL@@A 004d4a1c     _Global.obj
 0003:00003a20       ?gb_FaxManager@@3VCFaxManager@@A 004d4a20     _Global.obj
 0003:00003a40       ?pGroupView@@3PAVCIVRGroupView@@A 004d4a40     MainFrm.obj
 0003:00003a44       ?pMainWindow@@3PAVCMainFrame@@A 004d4a44     MainFrm.obj
 0003:00003a50       ?theApp@@3VCPowerVoiceApp@@A 004d4a50     PowerVoice.obj
 0003:00003fc8       ?g_thSystemMain@@3VCThreadSysMain@@A 004d4fc8     PowerVoice.obj
 0003:00003fec       ?g_MQCTIOnHookEvents@@3VCFastMessageQ@@A 004d4fec     PowerVoice.obj
 0003:00004014       ?pChannelView@@3PAVCPowerVoiceView@@A 004d5014     PowerVoiceView.obj
 0003:00004018       ?c_pSplashWnd@CSplashWnd@@1PAV1@A 004d5018     Splash.obj
 0003:0000401c       ?c_bShowSplashWnd@CSplashWnd@@1HA 004d501c     Splash.obj
 0003:00004020       ?m_bInitFailed@CAtlBaseModule@ATL@@2_NA 004d5020     StdAfx.obj
 0003:00004054       ?theHelper@@3VXYTraceHelper@@A 004d5054     XYTrace.obj
 0003:00004078       ?m_blnASRInit@CASRInterface@@1HA 004d5078     ASRInterface.obj
 0003:00004080       ?publicThreadPool@PicaSoft@@3VCPicaSoftThreadPool@1@A 004d5080     PicaSoftMultiThread.obj
 0003:000042cc       ?sm_pPublicObj@CPicaSoftApplication@PicaSoft@@2PAU__tagPicaSoftPublicObj@2@A 004d52cc     PicaSoftObject.obj
 0003:000042d0       ?thePicaSoftApplication@PicaSoft@@3VCPicaSoftApplication@1@A 004d52d0     PicaSoftObject.obj
 0003:00004304       __afxForceEXCLUDE          004d5304     mfcs71d:nolib.obj
 0003:00004308       __afxForceSTDAFX           004d5308     mfcs71d:stdafx.obj
 0003:0000436c       __dowildcard               004d536c     msvcrtd:wildcard.obj
 0003:00004370       __newmode                  004d5370     msvcrtd:_newmode.obj
 0003:00004374       __commode                  004d5374     msvcrtd:xncommod.obj
 0003:00004378       __fmode                    004d5378     msvcrtd:xtxtmode.obj
 0003:00004380       ?vtMissing@@3V_variant_t@@A 004d5380     comsuppd:comutil.obj
 0003:00004390       ?g_Allocator@@3VCAtlAllocator@@A 004d5390     atlsd:Externs.obj
 0003:000043c4       ?s_trace@CTrace@ATL@@2V12@A 004d53c4     atlsd:Externs.obj
 0003:000043cc       ?atlTraceGeneral@ATL@@3VCTraceCategory@1@A 004d53cc     atlsd:atltrace.obj
 0003:000043d0       ?atlTraceCOM@ATL@@3VCTraceCategory@1@A 004d53d0     atlsd:atltrace.obj
 0003:000043d4       ?atlTraceQI@ATL@@3VCTraceCategory@1@A 004d53d4     atlsd:atltrace.obj
 0003:000043d8       ?atlTraceRegistrar@ATL@@3VCTraceCategory@1@A 004d53d8     atlsd:atltrace.obj
 0003:000043dc       ?atlTraceRefcount@ATL@@3VCTraceCategory@1@A 004d53dc     atlsd:atltrace.obj
 0003:000043e0       ?atlTraceWindowing@ATL@@3VCTraceCategory@1@A 004d53e0     atlsd:atltrace.obj
 0003:000043e4       ?atlTraceControls@ATL@@3VCTraceCategory@1@A 004d53e4     atlsd:atltrace.obj
 0003:000043e8       ?atlTraceHosting@ATL@@3VCTraceCategory@1@A 004d53e8     atlsd:atltrace.obj
 0003:000043ec       ?atlTraceDBClient@ATL@@3VCTraceCategory@1@A 004d53ec     atlsd:atltrace.obj
 0003:000043f0       ?atlTraceDBProvider@ATL@@3VCTraceCategory@1@A 004d53f0     atlsd:atltrace.obj
 0003:000043f4       ?atlTraceSnapin@ATL@@3VCTraceCategory@1@A 004d53f4     atlsd:atltrace.obj
 0003:000043f8       ?atlTraceNotImpl@ATL@@3VCTraceCategory@1@A 004d53f8     atlsd:atltrace.obj
 0003:000043fc       ?atlTraceAllocation@ATL@@3VCTraceCategory@1@A 004d53fc     atlsd:atltrace.obj
 0003:00004400       ?atlTraceException@ATL@@3VCTraceCategory@1@A 004d5400     atlsd:atltrace.obj
 0003:00004404       ?atlTraceTime@ATL@@3VCTraceCategory@1@A 004d5404     atlsd:atltrace.obj
 0003:00004408       ?atlTraceCache@ATL@@3VCTraceCategory@1@A 004d5408     atlsd:atltrace.obj
 0003:0000440c       ?atlTraceStencil@ATL@@3VCTraceCategory@1@A 004d540c     atlsd:atltrace.obj
 0003:00004410       ?atlTraceString@ATL@@3VCTraceCategory@1@A 004d5410     atlsd:atltrace.obj
 0003:00004414       ?atlTraceMap@ATL@@3VCTraceCategory@1@A 004d5414     atlsd:atltrace.obj
 0003:00004418       ?atlTraceUtil@ATL@@3VCTraceCategory@1@A 004d5418     atlsd:atltrace.obj
 0003:0000441c       ?atlTraceSecurity@ATL@@3VCTraceCategory@1@A 004d541c     atlsd:atltrace.obj
 0003:00004420       ?atlTraceSync@ATL@@3VCTraceCategory@1@A 004d5420     atlsd:atltrace.obj
 0003:00004424       ?atlTraceISAPI@ATL@@3VCTraceCategory@1@A 004d5424     atlsd:atltrace.obj
 0003:00004428       ?atlTraceUser@ATL@@3VCTraceCategory@1@A 004d5428     atlsd:atltrace.obj
 0003:0000442c       ?atlTraceUser2@ATL@@3VCTraceCategory@1@A 004d542c     atlsd:atltrace.obj
 0003:00004430       ?atlTraceUser3@ATL@@3VCTraceCategory@1@A 004d5430     atlsd:atltrace.obj
 0003:00004434       ?atlTraceUser4@ATL@@3VCTraceCategory@1@A 004d5434     atlsd:atltrace.obj
 0003:00004438       ?_AtlBaseModule@ATL@@3VCAtlBaseModule@1@A 004d5438     atlsd:atlbase.obj
 0003:00004474       ?_afxInitAppState@@3DA     004d5474     mfcs71d:appmodul.obj
 0003:00004478       __adjust_fdiv              004d5478     <common>
 0003:0000447c       ___onexitend               004d547c     <common>
 0003:00004480       ___onexitbegin             004d5480     <common>

 entry point at        0001:000817b0

 Static symbols

 0001:0000234d       $L151568                   0040334d f   channelcontrol.obj
 0001:00006d7a       $L150098                   00407d7a f   ClientSocket.obj
 0001:00007106       $L150127                   00408106 f   ClientSocket.obj
 0001:00007d32       $L150193                   00408d32 f   ClientSocket.obj
 0001:0000817d       $L150214                   0040917d f   ClientSocket.obj
 0001:00009277       $L149004                   0040a277 f   ConfigBox.obj
 0001:0000962b       $L149022                   0040a62b f   ConfigBox.obj
 0001:0000a592       $L150184                   0040b592 f   DlgAutoLoadCallFlow.obj
 0001:0000aecf       $L150186                   0040becf f   DlgAutoLoadCallFlow.obj
 0001:0000c754       $L150138                   0040d754 f   DlgAutoLoadResource.obj
 0001:0000d0a0       $L150140                   0040e0a0 f   DlgAutoLoadResource.obj
 0001:0000dc2f       $L150110                   0040ec2f f   DlgSeleCallFlowTable.obj
 0001:0000e56c       $L150112                   0040f56c f   DlgSeleCallFlowTable.obj
 0001:0000ee51       $L150100                   0040fe51 f   DLGSELERESOURCE.obj
 0001:0000f79d       $L150102                   0041079d f   DLGSELERESOURCE.obj
 0001:000103e5       $L147866                   004113e5 f   FaxManager.obj
 0001:000105ba       $L147886                   004115ba f   FaxManager.obj
 0001:000106ff       $L147903                   004116ff f   FaxManager.obj
 0001:00010874       $L147915                   00411874 f   FaxManager.obj
 0001:000109a2       $L147929                   004119a2 f   FaxManager.obj
 0001:00012b3f       $L155070                   00413b3f f   IVRChannel.obj
 0001:0001388b       $L155123                   0041488b f   IVRChannel.obj
 0001:0001398e       $L155135                   0041498e f   IVRChannel.obj
 0001:00016d35       $L155367                   00417d35 f   IVRChannel.obj
 0001:00018934       $L155514                   00419934 f   IVRChannel.obj
 0001:0001c67f       $L155705                   0041d67f f   IVRChannel.obj
 0001:0001e4b2       $L155810                   0041f4b2 f   IVRChannel.obj
 0001:0001f73c       $L155870                   0042073c f   IVRChannel.obj
 0001:0001fb28       $L155891                   00420b28 f   IVRChannel.obj
 0001:0001feed       $L155917                   00420eed f   IVRChannel.obj
 0001:0002065d       $L155967                   0042165d f   IVRChannel.obj
 0001:00021f65       $L155969                   00422f65 f   IVRChannel.obj
 0001:000258d3       $L156298                   004268d3 f   IVRChannel.obj
 0001:00026cd2       $L156375                   00427cd2 f   IVRChannel.obj
 0001:00027e18       $L156441                   00428e18 f   IVRChannel.obj
 0001:00029003       $L156443                   0042a003 f   IVRChannel.obj
 0001:0002a1f4       $L156553                   0042b1f4 f   IVRChannel.obj
 0001:0002a87f       $L156589                   0042b87f f   IVRChannel.obj
 0001:0002c2cf       $L156639                   0042d2cf f   IVRChannel.obj
 0001:0002ced3       $L156675                   0042ded3 f   IVRChannel.obj
 0001:0002d7a4       $L156709                   0042e7a4 f   IVRChannel.obj
 0001:0002db04       $L156738                   0042eb04 f   IVRChannel.obj
 0001:0002dfcf       $L156770                   0042efcf f   IVRChannel.obj
 0001:0002e672       $L156800                   0042f672 f   IVRChannel.obj
 0001:0002e7f7       $L156810                   0042f7f7 f   IVRChannel.obj
 0001:0002e9c7       $L156826                   0042f9c7 f   IVRChannel.obj
 0001:0002ebc3       $L156842                   0042fbc3 f   IVRChannel.obj
 0001:0002edf4       $L156858                   0042fdf4 f   IVRChannel.obj
 0001:0002eff6       $L156874                   0042fff6 f   IVRChannel.obj
 0001:0002f1d2       $L156890                   004301d2 f   IVRChannel.obj
 0001:0002f3e1       $L156906                   004303e1 f   IVRChannel.obj
 0001:0002f5e4       $L156922                   004305e4 f   IVRChannel.obj
 0001:0002f7da       $L156938                   004307da f   IVRChannel.obj
 0001:0002f9db       $L156954                   004309db f   IVRChannel.obj
 0001:0002fbc3       $L156970                   00430bc3 f   IVRChannel.obj
 0001:0002fe6e       $L156986                   00430e6e f   IVRChannel.obj
 0001:000300bb       $L157002                   004310bb f   IVRChannel.obj
 0001:000302da       $L157018                   004312da f   IVRChannel.obj
 0001:000304e2       $L157034                   004314e2 f   IVRChannel.obj
 0001:0003070a       $L157050                   0043170a f   IVRChannel.obj
 0001:0003095b       $L157066                   0043195b f   IVRChannel.obj
 0001:00030b64       $L157083                   00431b64 f   IVRChannel.obj
 0001:00033390       $L148847                   00434390 f   IVRClient_Admin.obj
 0001:000335ea       $L148849                   004345ea f   IVRClient_Admin.obj
 0001:0003370b       $L148851                   0043470b f   IVRClient_Admin.obj
 0001:00033933       $L148853                   00434933 f   IVRClient_Admin.obj
 0001:00033bb2       $L148855                   00434bb2 f   IVRClient_Admin.obj
 0001:00033d3e       $L148857                   00434d3e f   IVRClient_Admin.obj
 0001:00033ec3       $L148859                   00434ec3 f   IVRClient_Admin.obj
 0001:00034079       $L148861                   00435079 f   IVRClient_Admin.obj
 0001:00035a30       $L151225                   00436a30 f   IVRGroup.obj
 0001:00036262       $L151272                   00437262 f   IVRGroup.obj
 0001:0003694b       $L151307                   0043794b f   IVRGroup.obj
 0001:00036b50       $L151430                   00437b50 f   IVRGroup.obj
 0001:00036c2e       $L151432                   00437c2e f   IVRGroup.obj
 0001:0003712c       $L151434                   0043812c f   IVRGroup.obj
 0001:00037687       $L151436                   00438687 f   IVRGroup.obj
 0001:00037b7b       $L151438                   00438b7b f   IVRGroup.obj
 0001:000380ee       $L151440                   004390ee f   IVRGroup.obj
 0001:0003868c       $L151442                   0043968c f   IVRGroup.obj
 0001:0003917a       $L151589                   0043a17a f   IVRGroup.obj
 0001:00039d59       $L151643                   0043ad59 f   IVRGroup.obj
 0001:0003a02b       $L151684                   0043b02b f   IVRGroup.obj
 0001:0003a594       $L151686                   0043b594 f   IVRGroup.obj
 0001:0003a9a5       $L151727                   0043b9a5 f   IVRGroup.obj
 0001:0003aaa2       $L151741                   0043baa2 f   IVRGroup.obj
 0001:0003abed       $L151753                   0043bbed f   IVRGroup.obj
 0001:0003aebb       $L151769                   0043bebb f   IVRGroup.obj
 0001:0003b0a2       $L151785                   0043c0a2 f   IVRGroup.obj
 0001:0003b253       $L151801                   0043c253 f   IVRGroup.obj
 0001:0003b40d       $L151817                   0043c40d f   IVRGroup.obj
 0001:0003b5bd       $L151833                   0043c5bd f   IVRGroup.obj
 0001:0003bb63       $L148368                   0043cb63 f   ListenSocket.obj
 0001:0003e8a7       $L153343                   0043f8a7 f   MainFrm.obj
 0001:0003f850       $L153412                   00440850 f   MainFrm.obj
 0001:000442dc       $L153723                   004452dc f   MainFrm.obj
 0001:000443a0       $L153732                   004453a0 f   MainFrm.obj
 0001:00044470       $L153741                   00445470 f   MainFrm.obj
 0001:00044921       $L153763                   00445921 f   MainFrm.obj
 0001:00045b3b       $L153894                   00446b3b f   MainFrm.obj
 0001:00048084       $L136795                   00449084 f   MyThreadList.obj
 0001:0004aa02       $L149344                   0044ba02 f   PageGroup.obj
 0001:0004acaf       $L149346                   0044bcaf f   PageGroup.obj
 0001:00050069       $L150326                   00451069 f   PCSClientSock.obj
 0001:000502a0       $L150347                   004512a0 f   PCSClientSock.obj
 0001:000503a9       $L150361                   004513a9 f   PCSClientSock.obj
 0001:000506fe       $L150378                   004516fe f   PCSClientSock.obj
 0001:0005105d       $L150441                   0045205d f   PCSClientSock.obj
 0001:00051152       $L150443                   00452152 f   PCSClientSock.obj
 0001:00051997       $L150445                   00452997 f   PCSClientSock.obj
 0001:00051aea       $L150447                   00452aea f   PCSClientSock.obj
 0001:00051c5a       $L150449                   00452c5a f   PCSClientSock.obj
 0001:00051ed4       $L150451                   00452ed4 f   PCSClientSock.obj
 0001:00051fde       $L150453                   00452fde f   PCSClientSock.obj
 0001:00052136       $L150455                   00453136 f   PCSClientSock.obj
 0001:0005226a       $L150457                   0045326a f   PCSClientSock.obj
 0001:000523aa       $L150459                   004533aa f   PCSClientSock.obj
 0001:00052502       $L150461                   00453502 f   PCSClientSock.obj
 0001:000527fa       $L150463                   004537fa f   PCSClientSock.obj
 0001:000529ea       $L150465                   004539ea f   PCSClientSock.obj
 0001:00052bf3       $L150467                   00453bf3 f   PCSClientSock.obj
 0001:00053661       $L150018                   00454661 f   PCSExtClientSock.obj
 0001:00053880       $L150038                   00454880 f   PCSExtClientSock.obj
 0001:00053989       $L150052                   00454989 f   PCSExtClientSock.obj
 0001:00053cde       $L150069                   00454cde f   PCSExtClientSock.obj
 0001:000546e2       $L150096                   004556e2 f   PCSExtClientSock.obj
 0001:000584e6       $L135729                   004594e6 f   ProductLicense.obj
 0001:0005a455       $L137629                   0045b455 f   StdAfx.obj
 0001:0005b175       $L137755                   0045c175 f   StdAfx.obj
 0001:0005cb11       $L149787                   0045db11 f   ThreadSysMain.obj
 0001:0005cf17       $L135559                   0045df17 f   _CommonFunc.obj
 0001:0005dad6       $L135624                   0045ead6 f   _DataQueue.obj
 0001:00060559       $L136780                   00461559 f i CheckGroupBox.obj
 0001:00060946       $L136822                   00461946 f i CheckGroupBox.obj
 0001:00061412       $L135998                   00462412 f   DataRecorderConnect.obj
 0001:000618b2       $L136020                   004628b2 f   DataRecorderConnect.obj
 0001:00061b0d       $L136038                   00462b0d f   DataRecorderConnect.obj
 0001:00061c36       $L136053                   00462c36 f   DataRecorderConnect.obj
 0001:00061f6d       $L136070                   00462f6d f   DataRecorderConnect.obj
 0001:000621ac       $L136088                   004631ac f   DataRecorderConnect.obj
 0001:00062396       $L136103                   00463396 f   DataRecorderConnect.obj
 0001:000660e1       $L135823                   004670e1 f   ManulCallCom.obj
 0001:000671ab       $L135766                   004681ab f   MessageQ.obj
 0001:00067384       $L135782                   00468384 f   MessageQ.obj
 0001:00067437       $L135791                   00468437 f   MessageQ.obj
 0001:0006778a       $L135807                   0046878a f   MessageQ.obj
 0001:0006784d       $L135816                   0046884d f   MessageQ.obj
 0001:00068098       $L135582                   00469098 f   MySQLLog.obj
 0001:00068f44       $L135696                   00469f44 f   MyThread.obj
 0001:0006a570       $L135578                   0046b570 f   XYTrace.obj
 0001:0006abea       $L137698                   0046bbea f   TTSInterface.obj
 0001:0006b2d7       $L137755                   0046c2d7 f   TTSInterface.obj
 0001:0006b6a2       $L137791                   0046c6a2 f   TTSInterface.obj
 0001:0006b794       $L137800                   0046c794 f   TTSInterface.obj
 0001:0006b99b       $L137813                   0046c99b f   TTSInterface.obj
 0001:0006badc       $L137822                   0046cadc f   TTSInterface.obj
 0001:0006ca2f       $L137905                   0046da2f f   TTSInterface.obj
 0001:0006cc37       $L137921                   0046dc37 f   TTSInterface.obj
 0001:0006cd88       $L137931                   0046dd88 f   TTSInterface.obj
 0001:0006ce73       $L137941                   0046de73 f   TTSInterface.obj
 0001:0006d1e8       $L137957                   0046e1e8 f   TTSInterface.obj
 0001:0006d308       $L137981                   0046e308 f   TTSInterface.obj
 0001:0006d47e       $L137991                   0046e47e f   TTSInterface.obj
 0001:0006d5e2       $L138001                   0046e5e2 f   TTSInterface.obj
 0001:00070b78       $L145274                   00471b78 f i PCSParam.obj
 0001:00070cb5       $L145410                   00471cb5 f i PCSParam.obj
 0001:000737df       $L148657                   004747df f   PicaSoftMultiThread.obj
 0001:000738cf       $L148681                   004748cf f   PicaSoftMultiThread.obj
 0001:00076196       $L150824                   00477196 f   PicaSoftMultiThread.obj
 0001:000775f8       $L153848                   004785f8 f i PicaSoftMultiThread.obj
 0001:000776d3       $L154344                   004786d3 f i PicaSoftMultiThread.obj
 0001:00077a58       $L155257                   00478a58 f i PicaSoftMultiThread.obj
 0001:00077b88       $L155416                   00478b88 f i PicaSoftMultiThread.obj
 0001:00077b88       $L155042                   00478b88 f i PicaSoftMultiThread.obj
 0001:00078a35       $L161962                   00479a35 f i PicaSoftMultiThread.obj
 0001:00078bed       $L161964                   00479bed f i PicaSoftMultiThread.obj
 0001:0007c088       $L139872                   0047d088 f i PicaSoftObject.obj
 0001:0007c182       $L140008                   0047d182 f i PicaSoftObject.obj
 0001:0007ce65       $L142633                   0047de65 f i PicaSoftObject.obj
 0001:0007ce65       $L142175                   0047de65 f i PicaSoftObject.obj
 0001:0007d01d       $L142635                   0047e01d f i PicaSoftObject.obj
 0001:0007d01d       $L142177                   0047e01d f i PicaSoftObject.obj
 0001:00080ea0       ?ArrayUnwindFilter@@YAHPAU_EXCEPTION_POINTERS@@@Z 00481ea0 f   msvcrtd:ehvecdtr.obj
 0001:00080ee0       _report_failure            00481ee0 f   msvcrtd:secchk.obj
 0001:000811d0       ?failwithmessage@@YAXPAXHHPBD@Z 004821d0 f   msvcrtd:error.obj
 0001:000812c0       ?DebuggerProbe@@YAHK@Z     004822c0 f   msvcrtd:error.obj
 0001:00081340       ?DebuggerRuntime@@YAHKHPAXPB_W@Z 00482340 f   msvcrtd:error.obj
 0001:00081570       ?_IsDebuggerPresent@@YAHXZ 00482570 f   msvcrtd:error.obj
 0001:000815a0       ?Initialize@@YAHXZ         004825a0 f   msvcrtd:error.obj
 0001:00081620       ?Win95IsDebuggerPresent@@YGHXZ 00482620 f   msvcrtd:error.obj
 0001:00081630       ?WinGetDebugContext@@YAPAXXZ 00482630 f   msvcrtd:error.obj
 0001:00081640       ?GetCurrentTib@@YAPAU_TIB@@XZ 00482640 f   msvcrtd:error.obj
 0001:00081a40       _check_managed_app         00482a40 f   msvcrtd:crtexew.obj
 0001:00081f80       ?GetImageInfo@@YAPAUImageInfo@@K@Z 00482f80 f   msvcrtd:pdblkup.obj
 0001:00082340       ?GetPdbDll@@YAPAUHINSTANCE__@@XZ 00483340 f   msvcrtd:pdblkup.obj
 0001:00082915       $L78733                    00483915 f   comsuppd:comutil.obj
 0001:00082c00       ?Init@@YG_NXZ              00483c00 f   atlsd:Externs.obj
 0001:00083e30       ?ShouldTraceOutput@ATL@@YG_NKKIPAPBVCAtlTraceCategory@@PAP6AHHPBDH11ZZ@Z 00484e30 f   atlsd:AtlDebugAPI.obj
 0001:00089bc0       $L149181                   0048abc0 f   BrowsePath.obj
 0001:00089bc8       $L149182                   0048abc8 f   BrowsePath.obj
 0001:00089bd3       $L149183                   0048abd3 f   BrowsePath.obj
 0001:00089be1       $L149184                   0048abe1 f   BrowsePath.obj
 0001:00089bef       $L149185                   0048abef f   BrowsePath.obj
 0001:00089c07       $L149186                   0048ac07 f   BrowsePath.obj
 0001:00089c1f       $L149187                   0048ac1f f   BrowsePath.obj
 0001:00089c37       __ehhandler$??0CBrowsePath@@QAE@PAVCWnd@@H@Z 0048ac37 f   BrowsePath.obj
 0001:00089c41       $L149220                   0048ac41 f   BrowsePath.obj
 0001:00089c53       $L149221                   0048ac53 f   BrowsePath.obj
 0001:00089c65       $L149222                   0048ac65 f   BrowsePath.obj
 0001:00089c77       __ehhandler$?OnOK@CBrowsePath@@MAEXXZ 0048ac77 f   BrowsePath.obj
 0001:00089c81       $L149236                   0048ac81 f   BrowsePath.obj
 0001:00089c93       $L149237                   0048ac93 f   BrowsePath.obj
 0001:00089ca5       $L149238                   0048aca5 f   BrowsePath.obj
 0001:00089cba       $L149239                   0048acba f   BrowsePath.obj
 0001:00089ccf       $L149240                   0048accf f   BrowsePath.obj
 0001:00089ce4       __ehhandler$?OnInitDialog@CBrowsePath@@MAEHXZ 0048ace4 f   BrowsePath.obj
 0001:00089cee       $L149265                   0048acee f   BrowsePath.obj
 0001:00089d00       __ehhandler$?OnSelchangeCmbDrivers@CBrowsePath@@IAEXXZ 0048ad00 f   BrowsePath.obj
 0001:00089d0a       $L149276                   0048ad0a f   BrowsePath.obj
 0001:00089d1c       $L149277                   0048ad1c f   BrowsePath.obj
 0001:00089d2e       $L149278                   0048ad2e f   BrowsePath.obj
 0001:00089d40       $L149279                   0048ad40 f   BrowsePath.obj
 0001:00089d52       __ehhandler$?InsertNewFileItem@CBrowsePath@@AAEHHV?$CStringT@DV?$StrTraitMFC_DLL@DV?$ChTraitsCRT@D@ATL@@@@@ATL@@KAAVCTime@3@@Z 0048ad52 f   BrowsePath.obj
 0001:00089d5c       $L149291                   0048ad5c f   BrowsePath.obj
 0001:00089d6e       $L149292                   0048ad6e f   BrowsePath.obj
 0001:00089d80       __ehhandler$?OnSelchangedTreDir@CBrowsePath@@IAEXPAUtagNMHDR@@PAJ@Z 0048ad80 f   BrowsePath.obj
 0001:00089d8a       $L149306                   0048ad8a f   BrowsePath.obj
 0001:00089d9c       __ehhandler$?FindListCtrlItem@CBrowsePath@@AAEHPAVCListCtrl@@V?$CStringT@DV?$StrTraitMFC_DLL@DV?$ChTraitsCRT@D@ATL@@@@@ATL@@PAH@Z 0048ad9c f   BrowsePath.obj
 0001:00089db0       $L149199                   0048adb0 f   BrowsePath.obj
 0001:00089db8       $L149200                   0048adb8 f   BrowsePath.obj
 0001:00089dc3       $L149201                   0048adc3 f   BrowsePath.obj
 0001:00089dd1       __ehhandler$??1CBrowsePath@@UAE@XZ 0048add1 f   BrowsePath.obj
 0001:00089de0       $L149314                   0048ade0 f   BrowsePath.obj
 0001:00089df2       __ehhandler$??HATL@@YA?AV?$CStringT@DV?$StrTraitMFC_DLL@DV?$ChTraitsCRT@D@ATL@@@@@0@ABV10@0@Z 0048adf2 f   BrowsePath.obj
 0001:00089e00       $L151526                   0048ae00 f   channelcontrol.obj
 0001:00089e19       $L151527                   0048ae19 f   channelcontrol.obj
 0001:00089e31       __ehhandler$??0Cchannelcontrol@@QAE@XZ 0048ae31 f   channelcontrol.obj
 0001:00089e3b       $L151540                   0048ae3b f   channelcontrol.obj
 0001:00089e54       __ehhandler$??1Cchannelcontrol@@UAE@XZ 0048ae54 f   channelcontrol.obj
 0001:00089e5e       __ehhandler$?ivr_channel_terminate@Cchannelcontrol@@QAEHXZ 0048ae5e f   channelcontrol.obj
 0001:00089e68       $L151593                   0048ae68 f   channelcontrol.obj
 0001:00089e70       $L151594                   0048ae70 f   channelcontrol.obj
 0001:00089e82       __ehhandler$?SetTerminateCode@Cchannelcontrol@@QAEXHKPBDPAUIPCSParam@@@Z 0048ae82 f   channelcontrol.obj
 0001:00089e8c       $L151700                   0048ae8c f   channelcontrol.obj
 0001:00089ea1       __ehhandler$?ivr_channel_digitplay@Cchannelcontrol@@QAEHNHE@Z 0048aea1 f   channelcontrol.obj
 0001:00089eb0       $L150063                   0048aeb0 f   ClientSocket.obj
 0001:00089eb8       $L150064                   0048aeb8 f   ClientSocket.obj
 0001:00089ec3       $L150065                   0048aec3 f   ClientSocket.obj
 0001:00089ece       $L150066                   0048aece f   ClientSocket.obj
 0001:00089ed9       $L150067                   0048aed9 f   ClientSocket.obj
 0001:00089ee4       __ehhandler$??0CClientSocket@@QAE@XZ 0048aee4 f   ClientSocket.obj
 0001:00089eee       $L150081                   0048aeee f   ClientSocket.obj
 0001:00089ef6       $L150084                   0048aef6 f   ClientSocket.obj
 0001:00089f1d       $L150085                   0048af1d f   ClientSocket.obj
 0001:00089f28       $L150086                   0048af28 f   ClientSocket.obj
 0001:00089f33       $L150087                   0048af33 f   ClientSocket.obj
 0001:00089f3e       __ehhandler$??1CClientSocket@@UAE@XZ 0048af3e f   ClientSocket.obj
 0001:00089f48       $L150099                   0048af48 f   ClientSocket.obj
 0001:00089f5d       $L150100                   0048af5d f   ClientSocket.obj
 0001:00089f72       __ehhandler$?OnReceive@CClientSocket@@UAEXH@Z 0048af72 f   ClientSocket.obj
 0001:00089f7c       $L150128                   0048af7c f   ClientSocket.obj
 0001:00089f8e       __ehhandler$?KeepLiveChecking@CClientSocket@@QAEHXZ 0048af8e f   ClientSocket.obj
 0001:00089f98       $L150141                   0048af98 f   ClientSocket.obj
 0001:00089faa       __ehhandler$?SetWorkObject@CClientSocket@@QAEXPAXE@Z 0048afaa f   ClientSocket.obj
 0001:00089fb4       $L150158                   0048afb4 f   ClientSocket.obj
 0001:00089fc6       __ehhandler$?GetRequests@CClientSocket@@IAEXXZ 0048afc6 f   ClientSocket.obj
 0001:00089fd0       $L150168                   0048afd0 f   ClientSocket.obj
 0001:00089fe5       __ehhandler$?SendTextMessage@CClientSocket@@QAEHPBDH@Z 0048afe5 f   ClientSocket.obj
 0001:00089fef       $L150194                   0048afef f   ClientSocket.obj
 0001:00089ff7       __ehhandler$?SendControlData@CClientSocket@@QAEHPBEI@Z 0048aff7 f   ClientSocket.obj
 0001:0008a001       $L150215                   0048b001 f   ClientSocket.obj
 0001:0008a016       __ehhandler$?ProcessMsg_Admin@CClientSocket@@IAEHXZ 0048b016 f   ClientSocket.obj
 0001:0008a020       $L148459                   0048b020 f   ClientThread.obj
 0001:0008a031       __ehhandler$?CreateObject@CClientThread@@SGPAVCObject@@XZ 0048b031 f   ClientThread.obj
 0001:0008a03b       $L148473                   0048b03b f   ClientThread.obj
 0001:0008a043       __ehhandler$??0CClientThread@@IAE@XZ 0048b043 f   ClientThread.obj
 0001:0008a04d       $L148483                   0048b04d f   ClientThread.obj
 0001:0008a055       __ehhandler$??1CClientThread@@MAE@XZ 0048b055 f   ClientThread.obj
 0001:0008a05f       $L148494                   0048b05f f   ClientThread.obj
 0001:0008a071       __ehhandler$?InitInstance@CClientThread@@UAEHXZ 0048b071 f   ClientThread.obj
 0001:0008a080       $L148963                   0048b080 f   ConfigBox.obj
 0001:0008a088       $L148964                   0048b088 f   ConfigBox.obj
 0001:0008a093       $L148965                   0048b093 f   ConfigBox.obj
 0001:0008a0a1       $L148966                   0048b0a1 f   ConfigBox.obj
 0001:0008a0af       $L148967                   0048b0af f   ConfigBox.obj
 0001:0008a0bd       __ehhandler$??0CConfigBox@@QAE@PAVCWnd@@@Z 0048b0bd f   ConfigBox.obj
 0001:0008a0c7       $L148984                   0048b0c7 f   ConfigBox.obj
 0001:0008a0cf       $L148985                   0048b0cf f   ConfigBox.obj
 0001:0008a0da       $L148986                   0048b0da f   ConfigBox.obj
 0001:0008a0e8       $L148987                   0048b0e8 f   ConfigBox.obj
 0001:0008a0f6       $L148988                   0048b0f6 f   ConfigBox.obj
 0001:0008a104       $L148989                   0048b104 f   ConfigBox.obj
 0001:0008a112       __ehhandler$??1CConfigBox@@UAE@XZ 0048b112 f   ConfigBox.obj
 0001:0008a11c       $L149005                   0048b11c f   ConfigBox.obj
 0001:0008a12d       $L149006                   0048b12d f   ConfigBox.obj
 0001:0008a13f       __ehhandler$?OnInitDialog@CConfigBox@@MAEHXZ 0048b13f f   ConfigBox.obj
 0001:0008a149       $L149023                   0048b149 f   ConfigBox.obj
 0001:0008a15b       __ehhandler$?OnApplyClick@CConfigBox@@IAEXXZ 0048b15b f   ConfigBox.obj
 0001:0008a165       $L149035                   0048b165 f   ConfigBox.obj
 0001:0008a177       __ehhandler$?OnCancel@CConfigBox@@MAEXXZ 0048b177 f   ConfigBox.obj
 0001:0008a190       $L150111                   0048b190 f   DlgAutoLoadCallFlow.obj
 0001:0008a198       $L150112                   0048b198 f   DlgAutoLoadCallFlow.obj
 0001:0008a1a6       $L150113                   0048b1a6 f   DlgAutoLoadCallFlow.obj
 0001:0008a1b4       $L150114                   0048b1b4 f   DlgAutoLoadCallFlow.obj
 0001:0008a1c2       $L150115                   0048b1c2 f   DlgAutoLoadCallFlow.obj
 0001:0008a1da       __ehhandler$??0CDlgAutoLoadCallFlow@@QAE@PAVCWnd@@@Z 0048b1da f   DlgAutoLoadCallFlow.obj
 0001:0008a1e4       $L150187                   0048b1e4 f   DlgAutoLoadCallFlow.obj
 0001:0008a1ec       $L150188                   0048b1ec f   DlgAutoLoadCallFlow.obj
 0001:0008a1fe       $L150189                   0048b1fe f   DlgAutoLoadCallFlow.obj
 0001:0008a210       $L150190                   0048b210 f   DlgAutoLoadCallFlow.obj
 0001:0008a222       $L150191                   0048b222 f   DlgAutoLoadCallFlow.obj
 0001:0008a234       $L150192                   0048b234 f   DlgAutoLoadCallFlow.obj
 0001:0008a23f       $L150193                   0048b23f f   DlgAutoLoadCallFlow.obj
 0001:0008a254       $L150194                   0048b254 f   DlgAutoLoadCallFlow.obj
 0001:0008a25f       $L150195                   0048b25f f   DlgAutoLoadCallFlow.obj
 0001:0008a26a       $L150196                   0048b26a f   DlgAutoLoadCallFlow.obj
 0001:0008a275       $L150197                   0048b275 f   DlgAutoLoadCallFlow.obj
 0001:0008a280       $L150198                   0048b280 f   DlgAutoLoadCallFlow.obj
 0001:0008a28b       $L150199                   0048b28b f   DlgAutoLoadCallFlow.obj
 0001:0008a296       $L150201                   0048b296 f   DlgAutoLoadCallFlow.obj
 0001:0008a2a1       $L150202                   0048b2a1 f   DlgAutoLoadCallFlow.obj
 0001:0008a2ac       $L150203                   0048b2ac f   DlgAutoLoadCallFlow.obj
 0001:0008a2b7       $L150204                   0048b2b7 f   DlgAutoLoadCallFlow.obj
 0001:0008a2c2       $L150205                   0048b2c2 f   DlgAutoLoadCallFlow.obj
 0001:0008a2cd       $L150206                   0048b2cd f   DlgAutoLoadCallFlow.obj
 0001:0008a2d8       $L150207                   0048b2d8 f   DlgAutoLoadCallFlow.obj
 0001:0008a2e3       $L150208                   0048b2e3 f   DlgAutoLoadCallFlow.obj
 0001:0008a2f8       $L150209                   0048b2f8 f   DlgAutoLoadCallFlow.obj
 0001:0008a303       $L150210                   0048b303 f   DlgAutoLoadCallFlow.obj
 0001:0008a30e       $L150211                   0048b30e f   DlgAutoLoadCallFlow.obj
 0001:0008a319       $L150212                   0048b319 f   DlgAutoLoadCallFlow.obj
 0001:0008a324       $L150213                   0048b324 f   DlgAutoLoadCallFlow.obj
 0001:0008a32f       $L150214                   0048b32f f   DlgAutoLoadCallFlow.obj
 0001:0008a33a       $L150215                   0048b33a f   DlgAutoLoadCallFlow.obj
 0001:0008a345       $L150216                   0048b345 f   DlgAutoLoadCallFlow.obj
 0001:0008a350       $L150217                   0048b350 f   DlgAutoLoadCallFlow.obj
 0001:0008a35b       $L150218                   0048b35b f   DlgAutoLoadCallFlow.obj
 0001:0008a366       $L150219                   0048b366 f   DlgAutoLoadCallFlow.obj
 0001:0008a371       $L150220                   0048b371 f   DlgAutoLoadCallFlow.obj
 0001:0008a37c       $L150221                   0048b37c f   DlgAutoLoadCallFlow.obj
 0001:0008a387       $L150222                   0048b387 f   DlgAutoLoadCallFlow.obj
 0001:0008a392       $L150223                   0048b392 f   DlgAutoLoadCallFlow.obj
 0001:0008a3a7       __ehhandler$?LoadCallFlowProjectList@CDlgAutoLoadCallFlow@@AAEHXZ 0048b3a7 f   DlgAutoLoadCallFlow.obj
 0001:0008a3b1       $L150248                   0048b3b1 f   DlgAutoLoadCallFlow.obj
 0001:0008a3bc       $L150249                   0048b3bc f   DlgAutoLoadCallFlow.obj
 0001:0008a3d1       __ehhandler$?OnBtnBrowse@CDlgAutoLoadCallFlow@@IAEXXZ 0048b3d1 f   DlgAutoLoadCallFlow.obj
 0001:0008a3e0       $L150127                   0048b3e0 f   DlgAutoLoadCallFlow.obj
 0001:0008a3e8       $L150128                   0048b3e8 f   DlgAutoLoadCallFlow.obj
 0001:0008a3f6       $L150129                   0048b3f6 f   DlgAutoLoadCallFlow.obj
 0001:0008a404       __ehhandler$??1CDlgAutoLoadCallFlow@@UAE@XZ 0048b404 f   DlgAutoLoadCallFlow.obj
 0001:0008a410       $L150281                   0048b410 f   DlgAutoLoadCallFlow.obj
 0001:0008a41b       __ehhandler$??0_bstr_t@@QAE@PBD@Z 0048b41b f   DlgAutoLoadCallFlow.obj
 0001:0008a430       $L150069                   0048b430 f   DlgAutoLoadResource.obj
 0001:0008a438       $L150070                   0048b438 f   DlgAutoLoadResource.obj
 0001:0008a446       __ehhandler$??0CDlgAutoLoadResource@@QAE@PAVCWnd@@@Z 0048b446 f   DlgAutoLoadResource.obj
 0001:0008a450       $L150141                   0048b450 f   DlgAutoLoadResource.obj
 0001:0008a458       $L150142                   0048b458 f   DlgAutoLoadResource.obj
 0001:0008a46a       $L150143                   0048b46a f   DlgAutoLoadResource.obj
 0001:0008a47c       $L150144                   0048b47c f   DlgAutoLoadResource.obj
 0001:0008a48e       $L150145                   0048b48e f   DlgAutoLoadResource.obj
